
/home/alex/GitRepos/crsf-radio-proxy/build/main_app.elf:     file format elf32-littlearm

Sections:
Idx Name          Size      VMA       LMA       File off  Algn
  0 .boot2        00000100  10000000  10000000  00001000  2**0
                  CONTENTS, ALLOC, LOAD, READONLY, CODE
  1 .text         00004e3c  10000100  10000100  00001100  2**3
                  CONTENTS, ALLOC, LOAD, READONLY, CODE
  2 .rodata       00000588  10004f3c  10004f3c  00005f3c  2**2
                  CONTENTS, ALLOC, LOAD, READONLY, DATA
  3 .binary_info  00000020  100054c4  100054c4  000064c4  2**2
                  CONTENTS, ALLOC, LOAD, READONLY, DATA
  4 .ram_vector_table 000000c0  20000000  20000000  00009000  2**2
                  ALLOC
  5 .uninitialized_data 00000000  200000c0  200000c0  00008140  2**0
                  CONTENTS
  6 .data         00001080  200000c0  100054e4  000070c0  2**4
                  CONTENTS, ALLOC, LOAD, CODE
  7 .tdata        00000000  20001140  20001140  00008140  2**0
                  CONTENTS, ALLOC, LOAD, DATA, THREAD_LOCAL
  8 .tbss         00000000  20001140  20001140  00000000  2**0
                  ALLOC, THREAD_LOCAL
  9 .bss          000012e8  20001200  10006564  00008200  2**8
                  ALLOC
 10 .heap         00000800  200024e8  10006564  000084e8  2**2
                  ALLOC, READONLY
 11 .scratch_x    00000000  20040000  20040000  00008140  2**0
                  CONTENTS
 12 .scratch_y    00000000  20041000  20041000  00008140  2**0
                  CONTENTS
 13 .stack_dummy  00000800  20041000  20041000  00009000  2**5
                  ALLOC, READONLY
 14 .ARM.attributes 00000028  00000000  00000000  00008140  2**0
                  CONTENTS, READONLY
 15 .comment      0000007e  00000000  00000000  00008168  2**0
                  CONTENTS, READONLY
 16 .debug_info   0003ae19  00000000  00000000  000081e6  2**0
                  CONTENTS, READONLY, DEBUGGING
 17 .debug_abbrev 000091fe  00000000  00000000  00042fff  2**0
                  CONTENTS, READONLY, DEBUGGING
 18 .debug_loc    0001ff7e  00000000  00000000  0004c1fd  2**0
                  CONTENTS, READONLY, DEBUGGING
 19 .debug_aranges 00001788  00000000  00000000  0006c180  2**3
                  CONTENTS, READONLY, DEBUGGING
 20 .debug_ranges 00006a18  00000000  00000000  0006d908  2**3
                  CONTENTS, READONLY, DEBUGGING
 21 .debug_line   000152cf  00000000  00000000  00074320  2**0
                  CONTENTS, READONLY, DEBUGGING
 22 .debug_str    00009a20  00000000  00000000  000895ef  2**0
                  CONTENTS, READONLY, DEBUGGING
 23 .debug_frame  000031e8  00000000  00000000  00093010  2**2
                  CONTENTS, READONLY, DEBUGGING

/home/alex/GitRepos/crsf-radio-proxy/build/main_app.elf:     file format elf32-littlearm


Disassembly of section .boot2:

10000000 <__boot2_start__>:
10000000:	4b32b500 	.word	0x4b32b500
10000004:	60582021 	.word	0x60582021
10000008:	21026898 	.word	0x21026898
1000000c:	60984388 	.word	0x60984388
10000010:	611860d8 	.word	0x611860d8
10000014:	4b2e6158 	.word	0x4b2e6158
10000018:	60992100 	.word	0x60992100
1000001c:	61592102 	.word	0x61592102
10000020:	22f02101 	.word	0x22f02101
10000024:	492b5099 	.word	0x492b5099
10000028:	21016019 	.word	0x21016019
1000002c:	20356099 	.word	0x20356099
10000030:	f844f000 	.word	0xf844f000
10000034:	42902202 	.word	0x42902202
10000038:	2106d014 	.word	0x2106d014
1000003c:	f0006619 	.word	0xf0006619
10000040:	6e19f834 	.word	0x6e19f834
10000044:	66192101 	.word	0x66192101
10000048:	66182000 	.word	0x66182000
1000004c:	f000661a 	.word	0xf000661a
10000050:	6e19f82c 	.word	0x6e19f82c
10000054:	6e196e19 	.word	0x6e196e19
10000058:	f0002005 	.word	0xf0002005
1000005c:	2101f82f 	.word	0x2101f82f
10000060:	d1f94208 	.word	0xd1f94208
10000064:	60992100 	.word	0x60992100
10000068:	6019491b 	.word	0x6019491b
1000006c:	60592100 	.word	0x60592100
10000070:	481b491a 	.word	0x481b491a
10000074:	21016001 	.word	0x21016001
10000078:	21eb6099 	.word	0x21eb6099
1000007c:	21a06619 	.word	0x21a06619
10000080:	f0006619 	.word	0xf0006619
10000084:	2100f812 	.word	0x2100f812
10000088:	49166099 	.word	0x49166099
1000008c:	60014814 	.word	0x60014814
10000090:	60992101 	.word	0x60992101
10000094:	2800bc01 	.word	0x2800bc01
10000098:	4700d000 	.word	0x4700d000
1000009c:	49134812 	.word	0x49134812
100000a0:	c8036008 	.word	0xc8036008
100000a4:	8808f380 	.word	0x8808f380
100000a8:	b5034708 	.word	0xb5034708
100000ac:	20046a99 	.word	0x20046a99
100000b0:	d0fb4201 	.word	0xd0fb4201
100000b4:	42012001 	.word	0x42012001
100000b8:	bd03d1f8 	.word	0xbd03d1f8
100000bc:	6618b502 	.word	0x6618b502
100000c0:	f7ff6618 	.word	0xf7ff6618
100000c4:	6e18fff2 	.word	0x6e18fff2
100000c8:	bd026e18 	.word	0xbd026e18
100000cc:	40020000 	.word	0x40020000
100000d0:	18000000 	.word	0x18000000
100000d4:	00070000 	.word	0x00070000
100000d8:	005f0300 	.word	0x005f0300
100000dc:	00002221 	.word	0x00002221
100000e0:	180000f4 	.word	0x180000f4
100000e4:	a0002022 	.word	0xa0002022
100000e8:	10000100 	.word	0x10000100
100000ec:	e000ed08 	.word	0xe000ed08
	...
100000fc:	7a4eb274 	.word	0x7a4eb274

Disassembly of section .text:

10000100 <__VECTOR_TABLE>:
10000100:	20042000 	.word	0x20042000
10000104:	100001f7 	.word	0x100001f7
10000108:	100001cb 	.word	0x100001cb
1000010c:	100001cd 	.word	0x100001cd
10000110:	100001c9 	.word	0x100001c9
10000114:	100001c9 	.word	0x100001c9
10000118:	100001c9 	.word	0x100001c9
1000011c:	100001c9 	.word	0x100001c9
10000120:	100001c9 	.word	0x100001c9
10000124:	100001c9 	.word	0x100001c9
10000128:	100001c9 	.word	0x100001c9
1000012c:	100001cf 	.word	0x100001cf
10000130:	100001c9 	.word	0x100001c9
10000134:	100001c9 	.word	0x100001c9
10000138:	100001d1 	.word	0x100001d1
1000013c:	100001d3 	.word	0x100001d3
10000140:	100001c1 	.word	0x100001c1
10000144:	100001c1 	.word	0x100001c1
10000148:	100001c1 	.word	0x100001c1
1000014c:	100001c1 	.word	0x100001c1
10000150:	100001c1 	.word	0x100001c1
10000154:	100001c1 	.word	0x100001c1
10000158:	100001c1 	.word	0x100001c1
1000015c:	100001c1 	.word	0x100001c1
10000160:	100001c1 	.word	0x100001c1
10000164:	100001c1 	.word	0x100001c1
10000168:	100001c1 	.word	0x100001c1
1000016c:	100001c1 	.word	0x100001c1
10000170:	100001c1 	.word	0x100001c1
10000174:	100001c1 	.word	0x100001c1
10000178:	100001c1 	.word	0x100001c1
1000017c:	100001c1 	.word	0x100001c1
10000180:	100001c1 	.word	0x100001c1
10000184:	100001c1 	.word	0x100001c1
10000188:	100001c1 	.word	0x100001c1
1000018c:	100001c1 	.word	0x100001c1
10000190:	100001c1 	.word	0x100001c1
10000194:	100001c1 	.word	0x100001c1
10000198:	100001c1 	.word	0x100001c1
1000019c:	100001c1 	.word	0x100001c1
100001a0:	100001c1 	.word	0x100001c1
100001a4:	100001c1 	.word	0x100001c1
100001a8:	100001c1 	.word	0x100001c1
100001ac:	100001c1 	.word	0x100001c1
100001b0:	100001c1 	.word	0x100001c1
100001b4:	100001c1 	.word	0x100001c1
100001b8:	100001c1 	.word	0x100001c1
100001bc:	100001c1 	.word	0x100001c1

100001c0 <__unhandled_user_irq>:
100001c0:	f3ef 8005 	mrs	r0, IPSR
100001c4:	3810      	subs	r0, #16

100001c6 <unhandled_user_irq_num_in_r0>:
100001c6:	be00      	bkpt	0x0000

100001c8 <isr_invalid>:
100001c8:	be00      	bkpt	0x0000

100001ca <isr_nmi>:
100001ca:	be00      	bkpt	0x0000

100001cc <isr_hardfault>:
100001cc:	be00      	bkpt	0x0000

100001ce <isr_svcall>:
100001ce:	be00      	bkpt	0x0000

100001d0 <isr_pendsv>:
100001d0:	be00      	bkpt	0x0000

100001d2 <isr_systick>:
100001d2:	be00      	bkpt	0x0000

100001d4 <__default_isrs_end>:
100001d4:	7188ebf2 	.word	0x7188ebf2
100001d8:	100054c4 	.word	0x100054c4
100001dc:	100054e4 	.word	0x100054e4
100001e0:	10000238 	.word	0x10000238
100001e4:	e71aa390 	.word	0xe71aa390

100001e8 <_entry_point>:
100001e8:	481e      	ldr	r0, [pc, #120]	; (10000264 <data_cpy_table+0x2c>)

100001ea <_enter_vtable_in_r0>:
100001ea:	491f      	ldr	r1, [pc, #124]	; (10000268 <data_cpy_table+0x30>)
100001ec:	6008      	str	r0, [r1, #0]
100001ee:	c806      	ldmia	r0!, {r1, r2}
100001f0:	f381 8808 	msr	MSP, r1
100001f4:	4710      	bx	r2

100001f6 <_reset_handler>:
100001f6:	481d      	ldr	r0, [pc, #116]	; (1000026c <data_cpy_table+0x34>)
100001f8:	6800      	ldr	r0, [r0, #0]
100001fa:	2800      	cmp	r0, #0
100001fc:	d001      	beq.n	10000202 <hold_non_core0_in_bootrom+0x4>

100001fe <hold_non_core0_in_bootrom>:
100001fe:	4819      	ldr	r0, [pc, #100]	; (10000264 <data_cpy_table+0x2c>)
10000200:	e7f3      	b.n	100001ea <_enter_vtable_in_r0>
10000202:	a40d      	add	r4, pc, #52	; (adr r4, 10000238 <data_cpy_table>)
10000204:	cc0e      	ldmia	r4!, {r1, r2, r3}
10000206:	2900      	cmp	r1, #0
10000208:	d002      	beq.n	10000210 <hold_non_core0_in_bootrom+0x12>
1000020a:	f000 f812 	bl	10000232 <data_cpy>
1000020e:	e7f9      	b.n	10000204 <hold_non_core0_in_bootrom+0x6>
10000210:	4917      	ldr	r1, [pc, #92]	; (10000270 <data_cpy_table+0x38>)
10000212:	4a18      	ldr	r2, [pc, #96]	; (10000274 <data_cpy_table+0x3c>)
10000214:	2000      	movs	r0, #0
10000216:	e000      	b.n	1000021a <bss_fill_test>

10000218 <bss_fill_loop>:
10000218:	c101      	stmia	r1!, {r0}

1000021a <bss_fill_test>:
1000021a:	4291      	cmp	r1, r2
1000021c:	d1fc      	bne.n	10000218 <bss_fill_loop>

1000021e <platform_entry>:
1000021e:	4916      	ldr	r1, [pc, #88]	; (10000278 <data_cpy_table+0x40>)
10000220:	4788      	blx	r1
10000222:	4916      	ldr	r1, [pc, #88]	; (1000027c <data_cpy_table+0x44>)
10000224:	4788      	blx	r1
10000226:	4916      	ldr	r1, [pc, #88]	; (10000280 <data_cpy_table+0x48>)
10000228:	4788      	blx	r1
1000022a:	be00      	bkpt	0x0000
1000022c:	e7fd      	b.n	1000022a <platform_entry+0xc>

1000022e <data_cpy_loop>:
1000022e:	c901      	ldmia	r1!, {r0}
10000230:	c201      	stmia	r2!, {r0}

10000232 <data_cpy>:
10000232:	429a      	cmp	r2, r3
10000234:	d3fb      	bcc.n	1000022e <data_cpy_loop>
10000236:	4770      	bx	lr

10000238 <data_cpy_table>:
10000238:	100054e4 	.word	0x100054e4
1000023c:	200000c0 	.word	0x200000c0
10000240:	20001140 	.word	0x20001140
10000244:	10006564 	.word	0x10006564
10000248:	20040000 	.word	0x20040000
1000024c:	20040000 	.word	0x20040000
10000250:	10006564 	.word	0x10006564
10000254:	20041000 	.word	0x20041000
10000258:	20041000 	.word	0x20041000
1000025c:	00000000 	.word	0x00000000
10000260:	4770      	bx	lr
10000262:	0000      	.short	0x0000
10000264:	00000000 	.word	0x00000000
10000268:	e000ed08 	.word	0xe000ed08
1000026c:	d0000000 	.word	0xd0000000
10000270:	20001140 	.word	0x20001140
10000274:	200024e8 	.word	0x200024e8
10000278:	1000222d 	.word	0x1000222d
1000027c:	10000559 	.word	0x10000559
10000280:	10002225 	.word	0x10002225

10000284 <_init>:
10000284:	b5f8      	push	{r3, r4, r5, r6, r7, lr}
10000286:	46c0      	nop			; (mov r8, r8)

10000288 <__do_global_dtors_aux>:
10000288:	b510      	push	{r4, lr}
1000028a:	4c06      	ldr	r4, [pc, #24]	; (100002a4 <__do_global_dtors_aux+0x1c>)
1000028c:	7823      	ldrb	r3, [r4, #0]
1000028e:	2b00      	cmp	r3, #0
10000290:	d107      	bne.n	100002a2 <__do_global_dtors_aux+0x1a>
10000292:	4b05      	ldr	r3, [pc, #20]	; (100002a8 <__do_global_dtors_aux+0x20>)
10000294:	2b00      	cmp	r3, #0
10000296:	d002      	beq.n	1000029e <__do_global_dtors_aux+0x16>
10000298:	4804      	ldr	r0, [pc, #16]	; (100002ac <__do_global_dtors_aux+0x24>)
1000029a:	e000      	b.n	1000029e <__do_global_dtors_aux+0x16>
1000029c:	bf00      	nop
1000029e:	2301      	movs	r3, #1
100002a0:	7023      	strb	r3, [r4, #0]
100002a2:	bd10      	pop	{r4, pc}
100002a4:	20001390 	.word	0x20001390
100002a8:	00000000 	.word	0x00000000
100002ac:	10004f3c 	.word	0x10004f3c

100002b0 <frame_dummy>:
100002b0:	4b04      	ldr	r3, [pc, #16]	; (100002c4 <frame_dummy+0x14>)
100002b2:	b510      	push	{r4, lr}
100002b4:	2b00      	cmp	r3, #0
100002b6:	d003      	beq.n	100002c0 <frame_dummy+0x10>
100002b8:	4903      	ldr	r1, [pc, #12]	; (100002c8 <frame_dummy+0x18>)
100002ba:	4804      	ldr	r0, [pc, #16]	; (100002cc <frame_dummy+0x1c>)
100002bc:	e000      	b.n	100002c0 <frame_dummy+0x10>
100002be:	bf00      	nop
100002c0:	bd10      	pop	{r4, pc}
100002c2:	46c0      	nop			; (mov r8, r8)
100002c4:	00000000 	.word	0x00000000
100002c8:	20001394 	.word	0x20001394
100002cc:	10004f3c 	.word	0x10004f3c

100002d0 <tx_alarm_callback>:
100002d0:	23d0      	movs	r3, #208	; 0xd0
100002d2:	2280      	movs	r2, #128	; 0x80
100002d4:	061b      	lsls	r3, r3, #24
100002d6:	6859      	ldr	r1, [r3, #4]
100002d8:	0512      	lsls	r2, r2, #20
100002da:	b570      	push	{r4, r5, r6, lr}
100002dc:	4211      	tst	r1, r2
100002de:	d13d      	bne.n	1000035c <tx_alarm_callback+0x8c>
100002e0:	615a      	str	r2, [r3, #20]
100002e2:	4b28      	ldr	r3, [pc, #160]	; (10000384 <tx_alarm_callback+0xb4>)
100002e4:	4928      	ldr	r1, [pc, #160]	; (10000388 <tx_alarm_callback+0xb8>)
100002e6:	6808      	ldr	r0, [r1, #0]
100002e8:	881a      	ldrh	r2, [r3, #0]
100002ea:	1812      	adds	r2, r2, r0
100002ec:	b292      	uxth	r2, r2
100002ee:	801a      	strh	r2, [r3, #0]
100002f0:	8818      	ldrh	r0, [r3, #0]
100002f2:	4a26      	ldr	r2, [pc, #152]	; (1000038c <tx_alarm_callback+0xbc>)
100002f4:	4290      	cmp	r0, r2
100002f6:	d929      	bls.n	1000034c <tx_alarm_callback+0x7c>
100002f8:	801a      	strh	r2, [r3, #0]
100002fa:	220a      	movs	r2, #10
100002fc:	4252      	negs	r2, r2
100002fe:	600a      	str	r2, [r1, #0]
10000300:	881b      	ldrh	r3, [r3, #0]
10000302:	4c23      	ldr	r4, [pc, #140]	; (10000390 <tx_alarm_callback+0xc0>)
10000304:	4923      	ldr	r1, [pc, #140]	; (10000394 <tx_alarm_callback+0xc4>)
10000306:	b29b      	uxth	r3, r3
10000308:	0020      	movs	r0, r4
1000030a:	800b      	strh	r3, [r1, #0]
1000030c:	f000 fa18 	bl	10000740 <crsf_pack_channels>
10000310:	21a0      	movs	r1, #160	; 0xa0
10000312:	05c9      	lsls	r1, r1, #23
10000314:	468c      	mov	ip, r1
10000316:	4a20      	ldr	r2, [pc, #128]	; (10000398 <tx_alarm_callback+0xc8>)
10000318:	6813      	ldr	r3, [r2, #0]
1000031a:	019b      	lsls	r3, r3, #6
1000031c:	4463      	add	r3, ip
1000031e:	691b      	ldr	r3, [r3, #16]
10000320:	01db      	lsls	r3, r3, #7
10000322:	d51d      	bpl.n	10000360 <tx_alarm_callback+0x90>
10000324:	4b1d      	ldr	r3, [pc, #116]	; (1000039c <tx_alarm_callback+0xcc>)
10000326:	491e      	ldr	r1, [pc, #120]	; (100003a0 <tx_alarm_callback+0xd0>)
10000328:	681c      	ldr	r4, [r3, #0]
1000032a:	685d      	ldr	r5, [r3, #4]
1000032c:	680a      	ldr	r2, [r1, #0]
1000032e:	684b      	ldr	r3, [r1, #4]
10000330:	431a      	orrs	r2, r3
10000332:	d007      	beq.n	10000344 <tx_alarm_callback+0x74>
10000334:	680a      	ldr	r2, [r1, #0]
10000336:	684b      	ldr	r3, [r1, #4]
10000338:	1aa4      	subs	r4, r4, r2
1000033a:	419d      	sbcs	r5, r3
1000033c:	2200      	movs	r2, #0
1000033e:	2300      	movs	r3, #0
10000340:	600a      	str	r2, [r1, #0]
10000342:	604b      	str	r3, [r1, #4]
10000344:	2100      	movs	r1, #0
10000346:	4260      	negs	r0, r4
10000348:	41a9      	sbcs	r1, r5
1000034a:	bd70      	pop	{r4, r5, r6, pc}
1000034c:	881a      	ldrh	r2, [r3, #0]
1000034e:	2aab      	cmp	r2, #171	; 0xab
10000350:	d8d6      	bhi.n	10000300 <tx_alarm_callback+0x30>
10000352:	22ac      	movs	r2, #172	; 0xac
10000354:	801a      	strh	r2, [r3, #0]
10000356:	3aa2      	subs	r2, #162	; 0xa2
10000358:	600a      	str	r2, [r1, #0]
1000035a:	e7d1      	b.n	10000300 <tx_alarm_callback+0x30>
1000035c:	619a      	str	r2, [r3, #24]
1000035e:	e7c0      	b.n	100002e2 <tx_alarm_callback+0x12>
10000360:	6813      	ldr	r3, [r2, #0]
10000362:	221a      	movs	r2, #26
10000364:	019b      	lsls	r3, r3, #6
10000366:	4463      	add	r3, ip
10000368:	601c      	str	r4, [r3, #0]
1000036a:	61da      	str	r2, [r3, #28]
1000036c:	23d0      	movs	r3, #208	; 0xd0
1000036e:	2280      	movs	r2, #128	; 0x80
10000370:	061b      	lsls	r3, r3, #24
10000372:	6859      	ldr	r1, [r3, #4]
10000374:	04d2      	lsls	r2, r2, #19
10000376:	4211      	tst	r1, r2
10000378:	d001      	beq.n	1000037e <tx_alarm_callback+0xae>
1000037a:	619a      	str	r2, [r3, #24]
1000037c:	e7d2      	b.n	10000324 <tx_alarm_callback+0x54>
1000037e:	615a      	str	r2, [r3, #20]
10000380:	e7d0      	b.n	10000324 <tx_alarm_callback+0x54>
10000382:	46c0      	nop			; (mov r8, r8)
10000384:	2000107c 	.word	0x2000107c
10000388:	20001078 	.word	0x20001078
1000038c:	00000713 	.word	0x00000713
10000390:	20002104 	.word	0x20002104
10000394:	20001f00 	.word	0x20001f00
10000398:	20002120 	.word	0x20002120
1000039c:	20001070 	.word	0x20001070
100003a0:	20001200 	.word	0x20001200

100003a4 <init_crsf_hardware>:
100003a4:	b510      	push	{r4, lr}
100003a6:	4c1e      	ldr	r4, [pc, #120]	; (10000420 <init_crsf_hardware+0x7c>)
100003a8:	491e      	ldr	r1, [pc, #120]	; (10000424 <init_crsf_hardware+0x80>)
100003aa:	0020      	movs	r0, r4
100003ac:	f001 fa9a 	bl	100018e4 <uart_init>
100003b0:	2102      	movs	r1, #2
100003b2:	2000      	movs	r0, #0
100003b4:	f000 fb24 	bl	10000a00 <gpio_set_function>
100003b8:	2102      	movs	r1, #2
100003ba:	2001      	movs	r0, #1
100003bc:	f000 fb20 	bl	10000a00 <gpio_set_function>
100003c0:	2001      	movs	r0, #1
100003c2:	f004 fcf3 	bl	10004dac <dma_claim_unused_channel>
100003c6:	4918      	ldr	r1, [pc, #96]	; (10000428 <init_crsf_hardware+0x84>)
100003c8:	4a18      	ldr	r2, [pc, #96]	; (1000042c <init_crsf_hardware+0x88>)
100003ca:	6008      	str	r0, [r1, #0]
100003cc:	680b      	ldr	r3, [r1, #0]
100003ce:	2001      	movs	r0, #1
100003d0:	02db      	lsls	r3, r3, #11
100003d2:	4013      	ands	r3, r2
100003d4:	4a16      	ldr	r2, [pc, #88]	; (10000430 <init_crsf_hardware+0x8c>)
100003d6:	431a      	orrs	r2, r3
100003d8:	680b      	ldr	r3, [r1, #0]
100003da:	21a0      	movs	r1, #160	; 0xa0
100003dc:	05c9      	lsls	r1, r1, #23
100003de:	468c      	mov	ip, r1
100003e0:	019b      	lsls	r3, r3, #6
100003e2:	4914      	ldr	r1, [pc, #80]	; (10000434 <init_crsf_hardware+0x90>)
100003e4:	4463      	add	r3, ip
100003e6:	6019      	str	r1, [r3, #0]
100003e8:	211a      	movs	r1, #26
100003ea:	605c      	str	r4, [r3, #4]
100003ec:	6099      	str	r1, [r3, #8]
100003ee:	611a      	str	r2, [r3, #16]
100003f0:	f004 fcdc 	bl	10004dac <dma_claim_unused_channel>
100003f4:	4910      	ldr	r1, [pc, #64]	; (10000438 <init_crsf_hardware+0x94>)
100003f6:	4a11      	ldr	r2, [pc, #68]	; (1000043c <init_crsf_hardware+0x98>)
100003f8:	6008      	str	r0, [r1, #0]
100003fa:	680b      	ldr	r3, [r1, #0]
100003fc:	02db      	lsls	r3, r3, #11
100003fe:	4013      	ands	r3, r2
10000400:	4a0f      	ldr	r2, [pc, #60]	; (10000440 <init_crsf_hardware+0x9c>)
10000402:	431a      	orrs	r2, r3
10000404:	680b      	ldr	r3, [r1, #0]
10000406:	21a0      	movs	r1, #160	; 0xa0
10000408:	05c9      	lsls	r1, r1, #23
1000040a:	468c      	mov	ip, r1
1000040c:	019b      	lsls	r3, r3, #6
1000040e:	490d      	ldr	r1, [pc, #52]	; (10000444 <init_crsf_hardware+0xa0>)
10000410:	4463      	add	r3, ip
10000412:	601c      	str	r4, [r3, #0]
10000414:	6059      	str	r1, [r3, #4]
10000416:	2101      	movs	r1, #1
10000418:	4249      	negs	r1, r1
1000041a:	6099      	str	r1, [r3, #8]
1000041c:	60da      	str	r2, [r3, #12]
1000041e:	bd10      	pop	{r4, pc}
10000420:	40034000 	.word	0x40034000
10000424:	000668a0 	.word	0x000668a0
10000428:	20002120 	.word	0x20002120
1000042c:	ff00783f 	.word	0xff00783f
10000430:	000a0011 	.word	0x000a0011
10000434:	20002104 	.word	0x20002104
10000438:	20002100 	.word	0x20002100
1000043c:	ff00781f 	.word	0xff00781f
10000440:	000a8621 	.word	0x000a8621
10000444:	20002000 	.word	0x20002000

10000448 <handle_opentx_sync_packet>:
10000448:	b570      	push	{r4, r5, r6, lr}
1000044a:	4a38      	ldr	r2, [pc, #224]	; (1000052c <handle_opentx_sync_packet+0xe4>)
1000044c:	b084      	sub	sp, #16
1000044e:	79d3      	ldrb	r3, [r2, #7]
10000450:	7995      	ldrb	r5, [r2, #6]
10000452:	021b      	lsls	r3, r3, #8
10000454:	432b      	orrs	r3, r5
10000456:	7a15      	ldrb	r5, [r2, #8]
10000458:	7a90      	ldrb	r0, [r2, #10]
1000045a:	042d      	lsls	r5, r5, #16
1000045c:	432b      	orrs	r3, r5
1000045e:	7a55      	ldrb	r5, [r2, #9]
10000460:	210a      	movs	r1, #10
10000462:	062d      	lsls	r5, r5, #24
10000464:	431d      	orrs	r5, r3
10000466:	7ad3      	ldrb	r3, [r2, #11]
10000468:	ba2d      	rev	r5, r5
1000046a:	021b      	lsls	r3, r3, #8
1000046c:	4303      	orrs	r3, r0
1000046e:	7b10      	ldrb	r0, [r2, #12]
10000470:	0400      	lsls	r0, r0, #16
10000472:	4303      	orrs	r3, r0
10000474:	7b50      	ldrb	r0, [r2, #13]
10000476:	0600      	lsls	r0, r0, #24
10000478:	4318      	orrs	r0, r3
1000047a:	ba00      	rev	r0, r0
1000047c:	f001 fda0 	bl	10001fc0 <__wrap___aeabi_idiv>
10000480:	4b2b      	ldr	r3, [pc, #172]	; (10000530 <handle_opentx_sync_packet+0xe8>)
10000482:	0004      	movs	r4, r0
10000484:	4298      	cmp	r0, r3
10000486:	da00      	bge.n	1000048a <handle_opentx_sync_packet+0x42>
10000488:	001c      	movs	r4, r3
1000048a:	210a      	movs	r1, #10
1000048c:	0028      	movs	r0, r5
1000048e:	f001 fd97 	bl	10001fc0 <__wrap___aeabi_idiv>
10000492:	0002      	movs	r2, r0
10000494:	4927      	ldr	r1, [pc, #156]	; (10000534 <handle_opentx_sync_packet+0xec>)
10000496:	17c3      	asrs	r3, r0, #31
10000498:	600a      	str	r2, [r1, #0]
1000049a:	604b      	str	r3, [r1, #4]
1000049c:	23fa      	movs	r3, #250	; 0xfa
1000049e:	009b      	lsls	r3, r3, #2
100004a0:	429c      	cmp	r4, r3
100004a2:	dd00      	ble.n	100004a6 <handle_opentx_sync_packet+0x5e>
100004a4:	001c      	movs	r4, r3
100004a6:	0022      	movs	r2, r4
100004a8:	17e3      	asrs	r3, r4, #31
100004aa:	4923      	ldr	r1, [pc, #140]	; (10000538 <handle_opentx_sync_packet+0xf0>)
100004ac:	4c23      	ldr	r4, [pc, #140]	; (1000053c <handle_opentx_sync_packet+0xf4>)
100004ae:	600a      	str	r2, [r1, #0]
100004b0:	604b      	str	r3, [r1, #4]
100004b2:	7823      	ldrb	r3, [r4, #0]
100004b4:	2b00      	cmp	r3, #0
100004b6:	d001      	beq.n	100004bc <handle_opentx_sync_packet+0x74>
100004b8:	b004      	add	sp, #16
100004ba:	bd70      	pop	{r4, r5, r6, pc}
100004bc:	f000 ffc8 	bl	10001450 <alarm_pool_get_default>
100004c0:	0006      	movs	r6, r0
100004c2:	f001 f9c3 	bl	1000184c <time_us_64>
100004c6:	2300      	movs	r3, #0
100004c8:	4a1d      	ldr	r2, [pc, #116]	; (10000540 <handle_opentx_sync_packet+0xf8>)
100004ca:	1812      	adds	r2, r2, r0
100004cc:	414b      	adcs	r3, r1
100004ce:	2b00      	cmp	r3, #0
100004d0:	da02      	bge.n	100004d8 <handle_opentx_sync_packet+0x90>
100004d2:	2201      	movs	r2, #1
100004d4:	4b1b      	ldr	r3, [pc, #108]	; (10000544 <handle_opentx_sync_packet+0xfc>)
100004d6:	4252      	negs	r2, r2
100004d8:	2100      	movs	r1, #0
100004da:	2501      	movs	r5, #1
100004dc:	9101      	str	r1, [sp, #4]
100004de:	491a      	ldr	r1, [pc, #104]	; (10000548 <handle_opentx_sync_packet+0x100>)
100004e0:	9502      	str	r5, [sp, #8]
100004e2:	9100      	str	r1, [sp, #0]
100004e4:	0030      	movs	r0, r6
100004e6:	f000 ffb7 	bl	10001458 <alarm_pool_add_alarm_at>
100004ea:	21a0      	movs	r1, #160	; 0xa0
100004ec:	05c9      	lsls	r1, r1, #23
100004ee:	468c      	mov	ip, r1
100004f0:	4a16      	ldr	r2, [pc, #88]	; (1000054c <handle_opentx_sync_packet+0x104>)
100004f2:	7025      	strb	r5, [r4, #0]
100004f4:	6813      	ldr	r3, [r2, #0]
100004f6:	019b      	lsls	r3, r3, #6
100004f8:	4463      	add	r3, ip
100004fa:	691b      	ldr	r3, [r3, #16]
100004fc:	01db      	lsls	r3, r3, #7
100004fe:	d503      	bpl.n	10000508 <handle_opentx_sync_packet+0xc0>
10000500:	4813      	ldr	r0, [pc, #76]	; (10000550 <handle_opentx_sync_packet+0x108>)
10000502:	f001 ffe3 	bl	100024cc <__wrap_puts>
10000506:	e7d7      	b.n	100004b8 <handle_opentx_sync_packet+0x70>
10000508:	6813      	ldr	r3, [r2, #0]
1000050a:	4a12      	ldr	r2, [pc, #72]	; (10000554 <handle_opentx_sync_packet+0x10c>)
1000050c:	019b      	lsls	r3, r3, #6
1000050e:	4463      	add	r3, ip
10000510:	601a      	str	r2, [r3, #0]
10000512:	221a      	movs	r2, #26
10000514:	61da      	str	r2, [r3, #28]
10000516:	23d0      	movs	r3, #208	; 0xd0
10000518:	2280      	movs	r2, #128	; 0x80
1000051a:	061b      	lsls	r3, r3, #24
1000051c:	6859      	ldr	r1, [r3, #4]
1000051e:	04d2      	lsls	r2, r2, #19
10000520:	4211      	tst	r1, r2
10000522:	d001      	beq.n	10000528 <handle_opentx_sync_packet+0xe0>
10000524:	619a      	str	r2, [r3, #24]
10000526:	e7eb      	b.n	10000500 <handle_opentx_sync_packet+0xb8>
10000528:	615a      	str	r2, [r3, #20]
1000052a:	e7e9      	b.n	10000500 <handle_opentx_sync_packet+0xb8>
1000052c:	20002124 	.word	0x20002124
10000530:	fffffc18 	.word	0xfffffc18
10000534:	20001070 	.word	0x20001070
10000538:	20001200 	.word	0x20001200
1000053c:	20001e4c 	.word	0x20001e4c
10000540:	00001388 	.word	0x00001388
10000544:	7fffffff 	.word	0x7fffffff
10000548:	100002d1 	.word	0x100002d1
1000054c:	20002120 	.word	0x20002120
10000550:	10004f3c 	.word	0x10004f3c
10000554:	20002104 	.word	0x20002104

10000558 <main>:
10000558:	b5f0      	push	{r4, r5, r6, r7, lr}
1000055a:	46de      	mov	lr, fp
1000055c:	464e      	mov	r6, r9
1000055e:	4645      	mov	r5, r8
10000560:	4657      	mov	r7, sl
10000562:	24d0      	movs	r4, #208	; 0xd0
10000564:	b5e0      	push	{r5, r6, r7, lr}
10000566:	2580      	movs	r5, #128	; 0x80
10000568:	b083      	sub	sp, #12
1000056a:	f001 ff61 	bl	10002430 <stdio_init_all>
1000056e:	0624      	lsls	r4, r4, #24
10000570:	201a      	movs	r0, #26
10000572:	04ed      	lsls	r5, r5, #19
10000574:	f000 fa5e 	bl	10000a34 <gpio_init>
10000578:	201b      	movs	r0, #27
1000057a:	6265      	str	r5, [r4, #36]	; 0x24
1000057c:	f000 fa5a 	bl	10000a34 <gpio_init>
10000580:	2380      	movs	r3, #128	; 0x80
10000582:	051b      	lsls	r3, r3, #20
10000584:	6263      	str	r3, [r4, #36]	; 0x24
10000586:	f7ff ff0d 	bl	100003a4 <init_crsf_hardware>
1000058a:	4854      	ldr	r0, [pc, #336]	; (100006dc <main+0x184>)
1000058c:	f001 f81e 	bl	100015cc <sleep_ms>
10000590:	23f8      	movs	r3, #248	; 0xf8
10000592:	4e53      	ldr	r6, [pc, #332]	; (100006e0 <main+0x188>)
10000594:	4953      	ldr	r1, [pc, #332]	; (100006e4 <main+0x18c>)
10000596:	009b      	lsls	r3, r3, #2
10000598:	0030      	movs	r0, r6
1000059a:	800b      	strh	r3, [r1, #0]
1000059c:	804b      	strh	r3, [r1, #2]
1000059e:	808b      	strh	r3, [r1, #4]
100005a0:	80cb      	strh	r3, [r1, #6]
100005a2:	810b      	strh	r3, [r1, #8]
100005a4:	814b      	strh	r3, [r1, #10]
100005a6:	818b      	strh	r3, [r1, #12]
100005a8:	81cb      	strh	r3, [r1, #14]
100005aa:	820b      	strh	r3, [r1, #16]
100005ac:	824b      	strh	r3, [r1, #18]
100005ae:	828b      	strh	r3, [r1, #20]
100005b0:	82cb      	strh	r3, [r1, #22]
100005b2:	830b      	strh	r3, [r1, #24]
100005b4:	834b      	strh	r3, [r1, #26]
100005b6:	838b      	strh	r3, [r1, #28]
100005b8:	83cb      	strh	r3, [r1, #30]
100005ba:	f000 f8c1 	bl	10000740 <crsf_pack_channels>
100005be:	484a      	ldr	r0, [pc, #296]	; (100006e8 <main+0x190>)
100005c0:	f001 ff84 	bl	100024cc <__wrap_puts>
100005c4:	21a0      	movs	r1, #160	; 0xa0
100005c6:	05c9      	lsls	r1, r1, #23
100005c8:	468c      	mov	ip, r1
100005ca:	4a48      	ldr	r2, [pc, #288]	; (100006ec <main+0x194>)
100005cc:	6813      	ldr	r3, [r2, #0]
100005ce:	019b      	lsls	r3, r3, #6
100005d0:	4463      	add	r3, ip
100005d2:	691b      	ldr	r3, [r3, #16]
100005d4:	01db      	lsls	r3, r3, #7
100005d6:	d573      	bpl.n	100006c0 <main+0x168>
100005d8:	4b45      	ldr	r3, [pc, #276]	; (100006f0 <main+0x198>)
100005da:	4e46      	ldr	r6, [pc, #280]	; (100006f4 <main+0x19c>)
100005dc:	469b      	mov	fp, r3
100005de:	4b46      	ldr	r3, [pc, #280]	; (100006f8 <main+0x1a0>)
100005e0:	7832      	ldrb	r2, [r6, #0]
100005e2:	4698      	mov	r8, r3
100005e4:	4b45      	ldr	r3, [pc, #276]	; (100006fc <main+0x1a4>)
100005e6:	4f46      	ldr	r7, [pc, #280]	; (10000700 <main+0x1a8>)
100005e8:	469a      	mov	sl, r3
100005ea:	4d46      	ldr	r5, [pc, #280]	; (10000704 <main+0x1ac>)
100005ec:	465b      	mov	r3, fp
100005ee:	4946      	ldr	r1, [pc, #280]	; (10000708 <main+0x1b0>)
100005f0:	681b      	ldr	r3, [r3, #0]
100005f2:	468c      	mov	ip, r1
100005f4:	019b      	lsls	r3, r3, #6
100005f6:	4463      	add	r3, ip
100005f8:	681c      	ldr	r4, [r3, #0]
100005fa:	2302      	movs	r3, #2
100005fc:	4699      	mov	r9, r3
100005fe:	b2e4      	uxtb	r4, r4
10000600:	4294      	cmp	r4, r2
10000602:	d0f3      	beq.n	100005ec <main+0x94>
10000604:	1c53      	adds	r3, r2, #1
10000606:	5cb9      	ldrb	r1, [r7, r2]
10000608:	782a      	ldrb	r2, [r5, #0]
1000060a:	b2db      	uxtb	r3, r3
1000060c:	7033      	strb	r3, [r6, #0]
1000060e:	2a00      	cmp	r2, #0
10000610:	d10e      	bne.n	10000630 <main+0xd8>
10000612:	29c8      	cmp	r1, #200	; 0xc8
10000614:	d006      	beq.n	10000624 <main+0xcc>
10000616:	0008      	movs	r0, r1
10000618:	3204      	adds	r2, #4
1000061a:	4390      	bics	r0, r2
1000061c:	28ea      	cmp	r0, #234	; 0xea
1000061e:	d001      	beq.n	10000624 <main+0xcc>
10000620:	001a      	movs	r2, r3
10000622:	e7ed      	b.n	10000600 <main+0xa8>
10000624:	4642      	mov	r2, r8
10000626:	7011      	strb	r1, [r2, #0]
10000628:	2201      	movs	r2, #1
1000062a:	702a      	strb	r2, [r5, #0]
1000062c:	001a      	movs	r2, r3
1000062e:	e7e7      	b.n	10000600 <main+0xa8>
10000630:	2a01      	cmp	r2, #1
10000632:	d024      	beq.n	1000067e <main+0x126>
10000634:	2a02      	cmp	r2, #2
10000636:	d1f3      	bne.n	10000620 <main+0xc8>
10000638:	4652      	mov	r2, sl
1000063a:	7812      	ldrb	r2, [r2, #0]
1000063c:	4650      	mov	r0, sl
1000063e:	4694      	mov	ip, r2
10000640:	3201      	adds	r2, #1
10000642:	b2d2      	uxtb	r2, r2
10000644:	9201      	str	r2, [sp, #4]
10000646:	466a      	mov	r2, sp
10000648:	7912      	ldrb	r2, [r2, #4]
1000064a:	7002      	strb	r2, [r0, #0]
1000064c:	4640      	mov	r0, r8
1000064e:	4662      	mov	r2, ip
10000650:	5481      	strb	r1, [r0, r2]
10000652:	492e      	ldr	r1, [pc, #184]	; (1000070c <main+0x1b4>)
10000654:	9a01      	ldr	r2, [sp, #4]
10000656:	7809      	ldrb	r1, [r1, #0]
10000658:	1c48      	adds	r0, r1, #1
1000065a:	4290      	cmp	r0, r2
1000065c:	dae0      	bge.n	10000620 <main+0xc8>
1000065e:	3901      	subs	r1, #1
10000660:	b2c9      	uxtb	r1, r1
10000662:	482b      	ldr	r0, [pc, #172]	; (10000710 <main+0x1b8>)
10000664:	f000 f856 	bl	10000714 <crsf_crc8>
10000668:	4b28      	ldr	r3, [pc, #160]	; (1000070c <main+0x1b4>)
1000066a:	781b      	ldrb	r3, [r3, #0]
1000066c:	4443      	add	r3, r8
1000066e:	785b      	ldrb	r3, [r3, #1]
10000670:	4283      	cmp	r3, r0
10000672:	d016      	beq.n	100006a2 <main+0x14a>
10000674:	2300      	movs	r3, #0
10000676:	702b      	strb	r3, [r5, #0]
10000678:	7833      	ldrb	r3, [r6, #0]
1000067a:	001a      	movs	r2, r3
1000067c:	e7c0      	b.n	10000600 <main+0xa8>
1000067e:	1e8a      	subs	r2, r1, #2
10000680:	b2d2      	uxtb	r2, r2
10000682:	2afc      	cmp	r2, #252	; 0xfc
10000684:	d903      	bls.n	1000068e <main+0x136>
10000686:	2200      	movs	r2, #0
10000688:	702a      	strb	r2, [r5, #0]
1000068a:	001a      	movs	r2, r3
1000068c:	e7b8      	b.n	10000600 <main+0xa8>
1000068e:	4642      	mov	r2, r8
10000690:	7051      	strb	r1, [r2, #1]
10000692:	4a1e      	ldr	r2, [pc, #120]	; (1000070c <main+0x1b4>)
10000694:	7011      	strb	r1, [r2, #0]
10000696:	4652      	mov	r2, sl
10000698:	4649      	mov	r1, r9
1000069a:	7011      	strb	r1, [r2, #0]
1000069c:	7029      	strb	r1, [r5, #0]
1000069e:	001a      	movs	r2, r3
100006a0:	e7ae      	b.n	10000600 <main+0xa8>
100006a2:	4643      	mov	r3, r8
100006a4:	789b      	ldrb	r3, [r3, #2]
100006a6:	2b3a      	cmp	r3, #58	; 0x3a
100006a8:	d1e4      	bne.n	10000674 <main+0x11c>
100006aa:	4643      	mov	r3, r8
100006ac:	78db      	ldrb	r3, [r3, #3]
100006ae:	2bea      	cmp	r3, #234	; 0xea
100006b0:	d1e0      	bne.n	10000674 <main+0x11c>
100006b2:	4643      	mov	r3, r8
100006b4:	795b      	ldrb	r3, [r3, #5]
100006b6:	2b10      	cmp	r3, #16
100006b8:	d1dc      	bne.n	10000674 <main+0x11c>
100006ba:	f7ff fec5 	bl	10000448 <handle_opentx_sync_packet>
100006be:	e7d9      	b.n	10000674 <main+0x11c>
100006c0:	6813      	ldr	r3, [r2, #0]
100006c2:	221a      	movs	r2, #26
100006c4:	019b      	lsls	r3, r3, #6
100006c6:	4463      	add	r3, ip
100006c8:	601e      	str	r6, [r3, #0]
100006ca:	61da      	str	r2, [r3, #28]
100006cc:	6863      	ldr	r3, [r4, #4]
100006ce:	422b      	tst	r3, r5
100006d0:	d001      	beq.n	100006d6 <main+0x17e>
100006d2:	61a5      	str	r5, [r4, #24]
100006d4:	e780      	b.n	100005d8 <main+0x80>
100006d6:	6165      	str	r5, [r4, #20]
100006d8:	e77e      	b.n	100005d8 <main+0x80>
100006da:	46c0      	nop			; (mov r8, r8)
100006dc:	00000bb8 	.word	0x00000bb8
100006e0:	20002104 	.word	0x20002104
100006e4:	20001f00 	.word	0x20001f00
100006e8:	10004f5c 	.word	0x10004f5c
100006ec:	20002120 	.word	0x20002120
100006f0:	20002100 	.word	0x20002100
100006f4:	20001e4b 	.word	0x20001e4b
100006f8:	20002124 	.word	0x20002124
100006fc:	20001e48 	.word	0x20001e48
10000700:	20002000 	.word	0x20002000
10000704:	20001e4a 	.word	0x20001e4a
10000708:	50000004 	.word	0x50000004
1000070c:	20001e49 	.word	0x20001e49
10000710:	20002126 	.word	0x20002126

10000714 <crsf_crc8>:
10000714:	b510      	push	{r4, lr}
10000716:	2900      	cmp	r1, #0
10000718:	d00d      	beq.n	10000736 <crsf_crc8+0x22>
1000071a:	3901      	subs	r1, #1
1000071c:	b2c9      	uxtb	r1, r1
1000071e:	1841      	adds	r1, r0, r1
10000720:	0003      	movs	r3, r0
10000722:	2000      	movs	r0, #0
10000724:	4c05      	ldr	r4, [pc, #20]	; (1000073c <crsf_crc8+0x28>)
10000726:	3101      	adds	r1, #1
10000728:	781a      	ldrb	r2, [r3, #0]
1000072a:	3301      	adds	r3, #1
1000072c:	4050      	eors	r0, r2
1000072e:	5c20      	ldrb	r0, [r4, r0]
10000730:	428b      	cmp	r3, r1
10000732:	d1f9      	bne.n	10000728 <crsf_crc8+0x14>
10000734:	bd10      	pop	{r4, pc}
10000736:	2000      	movs	r0, #0
10000738:	e7fc      	b.n	10000734 <crsf_crc8+0x20>
1000073a:	46c0      	nop			; (mov r8, r8)
1000073c:	10004f94 	.word	0x10004f94

10000740 <crsf_pack_channels>:
10000740:	b5f0      	push	{r4, r5, r6, r7, lr}
10000742:	23c8      	movs	r3, #200	; 0xc8
10000744:	4657      	mov	r7, sl
10000746:	464e      	mov	r6, r9
10000748:	4645      	mov	r5, r8
1000074a:	46de      	mov	lr, fp
1000074c:	2207      	movs	r2, #7
1000074e:	b5e0      	push	{r5, r6, r7, lr}
10000750:	7003      	strb	r3, [r0, #0]
10000752:	3bb0      	subs	r3, #176	; 0xb0
10000754:	7043      	strb	r3, [r0, #1]
10000756:	3b02      	subs	r3, #2
10000758:	7083      	strb	r3, [r0, #2]
1000075a:	784e      	ldrb	r6, [r1, #1]
1000075c:	780b      	ldrb	r3, [r1, #0]
1000075e:	4016      	ands	r6, r2
10000760:	46b4      	mov	ip, r6
10000762:	70c3      	strb	r3, [r0, #3]
10000764:	1cc3      	adds	r3, r0, #3
10000766:	785e      	ldrb	r6, [r3, #1]
10000768:	241f      	movs	r4, #31
1000076a:	4396      	bics	r6, r2
1000076c:	4662      	mov	r2, ip
1000076e:	4316      	orrs	r6, r2
10000770:	2207      	movs	r2, #7
10000772:	788f      	ldrb	r7, [r1, #2]
10000774:	4016      	ands	r6, r2
10000776:	4027      	ands	r7, r4
10000778:	00ff      	lsls	r7, r7, #3
1000077a:	433e      	orrs	r6, r7
1000077c:	705e      	strb	r6, [r3, #1]
1000077e:	263f      	movs	r6, #63	; 0x3f
10000780:	884f      	ldrh	r7, [r1, #2]
10000782:	2503      	movs	r5, #3
10000784:	097f      	lsrs	r7, r7, #5
10000786:	4037      	ands	r7, r6
10000788:	46b8      	mov	r8, r7
1000078a:	790a      	ldrb	r2, [r1, #4]
1000078c:	789f      	ldrb	r7, [r3, #2]
1000078e:	402a      	ands	r2, r5
10000790:	0192      	lsls	r2, r2, #6
10000792:	4694      	mov	ip, r2
10000794:	4642      	mov	r2, r8
10000796:	43b7      	bics	r7, r6
10000798:	4317      	orrs	r7, r2
1000079a:	4662      	mov	r2, ip
1000079c:	4037      	ands	r7, r6
1000079e:	4317      	orrs	r7, r2
100007a0:	2201      	movs	r2, #1
100007a2:	4694      	mov	ip, r2
100007a4:	709f      	strb	r7, [r3, #2]
100007a6:	888f      	ldrh	r7, [r1, #4]
100007a8:	4664      	mov	r4, ip
100007aa:	08bf      	lsrs	r7, r7, #2
100007ac:	70df      	strb	r7, [r3, #3]
100007ae:	794f      	ldrb	r7, [r1, #5]
100007b0:	08bf      	lsrs	r7, r7, #2
100007b2:	403a      	ands	r2, r7
100007b4:	4690      	mov	r8, r2
100007b6:	4662      	mov	r2, ip
100007b8:	791f      	ldrb	r7, [r3, #4]
100007ba:	4397      	bics	r7, r2
100007bc:	4642      	mov	r2, r8
100007be:	4317      	orrs	r7, r2
100007c0:	711f      	strb	r7, [r3, #4]
100007c2:	277f      	movs	r7, #127	; 0x7f
100007c4:	798a      	ldrb	r2, [r1, #6]
100007c6:	403a      	ands	r2, r7
100007c8:	0052      	lsls	r2, r2, #1
100007ca:	4691      	mov	r9, r2
100007cc:	791a      	ldrb	r2, [r3, #4]
100007ce:	4022      	ands	r2, r4
100007d0:	4690      	mov	r8, r2
100007d2:	464a      	mov	r2, r9
100007d4:	4644      	mov	r4, r8
100007d6:	4322      	orrs	r2, r4
100007d8:	711a      	strb	r2, [r3, #4]
100007da:	88ca      	ldrh	r2, [r1, #6]
100007dc:	09d2      	lsrs	r2, r2, #7
100007de:	4691      	mov	r9, r2
100007e0:	220f      	movs	r2, #15
100007e2:	4690      	mov	r8, r2
100007e4:	464a      	mov	r2, r9
100007e6:	4644      	mov	r4, r8
100007e8:	4022      	ands	r2, r4
100007ea:	4693      	mov	fp, r2
100007ec:	795a      	ldrb	r2, [r3, #5]
100007ee:	43a2      	bics	r2, r4
100007f0:	4691      	mov	r9, r2
100007f2:	7a0a      	ldrb	r2, [r1, #8]
100007f4:	4022      	ands	r2, r4
100007f6:	0112      	lsls	r2, r2, #4
100007f8:	4692      	mov	sl, r2
100007fa:	464c      	mov	r4, r9
100007fc:	465a      	mov	r2, fp
100007fe:	4322      	orrs	r2, r4
10000800:	4644      	mov	r4, r8
10000802:	4022      	ands	r2, r4
10000804:	4691      	mov	r9, r2
10000806:	4652      	mov	r2, sl
10000808:	464c      	mov	r4, r9
1000080a:	4322      	orrs	r2, r4
1000080c:	715a      	strb	r2, [r3, #5]
1000080e:	890a      	ldrh	r2, [r1, #8]
10000810:	4664      	mov	r4, ip
10000812:	0912      	lsrs	r2, r2, #4
10000814:	403a      	ands	r2, r7
10000816:	4693      	mov	fp, r2
10000818:	799a      	ldrb	r2, [r3, #6]
1000081a:	43ba      	bics	r2, r7
1000081c:	4691      	mov	r9, r2
1000081e:	7a8a      	ldrb	r2, [r1, #10]
10000820:	4022      	ands	r2, r4
10000822:	01d2      	lsls	r2, r2, #7
10000824:	4692      	mov	sl, r2
10000826:	464c      	mov	r4, r9
10000828:	465a      	mov	r2, fp
1000082a:	4322      	orrs	r2, r4
1000082c:	403a      	ands	r2, r7
1000082e:	4691      	mov	r9, r2
10000830:	4652      	mov	r2, sl
10000832:	464c      	mov	r4, r9
10000834:	4322      	orrs	r2, r4
10000836:	719a      	strb	r2, [r3, #6]
10000838:	894a      	ldrh	r2, [r1, #10]
1000083a:	0852      	lsrs	r2, r2, #1
1000083c:	71da      	strb	r2, [r3, #7]
1000083e:	7aca      	ldrb	r2, [r1, #11]
10000840:	0852      	lsrs	r2, r2, #1
10000842:	402a      	ands	r2, r5
10000844:	4692      	mov	sl, r2
10000846:	7a1a      	ldrb	r2, [r3, #8]
10000848:	43aa      	bics	r2, r5
1000084a:	4691      	mov	r9, r2
1000084c:	4652      	mov	r2, sl
1000084e:	464c      	mov	r4, r9
10000850:	4322      	orrs	r2, r4
10000852:	721a      	strb	r2, [r3, #8]
10000854:	7b0a      	ldrb	r2, [r1, #12]
10000856:	4032      	ands	r2, r6
10000858:	0092      	lsls	r2, r2, #2
1000085a:	4692      	mov	sl, r2
1000085c:	7a1a      	ldrb	r2, [r3, #8]
1000085e:	402a      	ands	r2, r5
10000860:	4691      	mov	r9, r2
10000862:	4652      	mov	r2, sl
10000864:	464c      	mov	r4, r9
10000866:	4322      	orrs	r2, r4
10000868:	241f      	movs	r4, #31
1000086a:	721a      	strb	r2, [r3, #8]
1000086c:	898a      	ldrh	r2, [r1, #12]
1000086e:	0992      	lsrs	r2, r2, #6
10000870:	4022      	ands	r2, r4
10000872:	4693      	mov	fp, r2
10000874:	7a5a      	ldrb	r2, [r3, #9]
10000876:	43a2      	bics	r2, r4
10000878:	4691      	mov	r9, r2
1000087a:	7b8a      	ldrb	r2, [r1, #14]
1000087c:	3c18      	subs	r4, #24
1000087e:	4022      	ands	r2, r4
10000880:	0152      	lsls	r2, r2, #5
10000882:	4692      	mov	sl, r2
10000884:	464c      	mov	r4, r9
10000886:	465a      	mov	r2, fp
10000888:	4322      	orrs	r2, r4
1000088a:	241f      	movs	r4, #31
1000088c:	4022      	ands	r2, r4
1000088e:	4691      	mov	r9, r2
10000890:	4652      	mov	r2, sl
10000892:	464c      	mov	r4, r9
10000894:	4322      	orrs	r2, r4
10000896:	2407      	movs	r4, #7
10000898:	725a      	strb	r2, [r3, #9]
1000089a:	89ca      	ldrh	r2, [r1, #14]
1000089c:	08d2      	lsrs	r2, r2, #3
1000089e:	729a      	strb	r2, [r3, #10]
100008a0:	7c0a      	ldrb	r2, [r1, #16]
100008a2:	72da      	strb	r2, [r3, #11]
100008a4:	7c4a      	ldrb	r2, [r1, #17]
100008a6:	4022      	ands	r2, r4
100008a8:	4693      	mov	fp, r2
100008aa:	7b1a      	ldrb	r2, [r3, #12]
100008ac:	43a2      	bics	r2, r4
100008ae:	4691      	mov	r9, r2
100008b0:	7c8a      	ldrb	r2, [r1, #18]
100008b2:	3418      	adds	r4, #24
100008b4:	4022      	ands	r2, r4
100008b6:	00d2      	lsls	r2, r2, #3
100008b8:	4692      	mov	sl, r2
100008ba:	464c      	mov	r4, r9
100008bc:	465a      	mov	r2, fp
100008be:	4322      	orrs	r2, r4
100008c0:	2407      	movs	r4, #7
100008c2:	4022      	ands	r2, r4
100008c4:	4691      	mov	r9, r2
100008c6:	4652      	mov	r2, sl
100008c8:	464c      	mov	r4, r9
100008ca:	4322      	orrs	r2, r4
100008cc:	731a      	strb	r2, [r3, #12]
100008ce:	8a4a      	ldrh	r2, [r1, #18]
100008d0:	0952      	lsrs	r2, r2, #5
100008d2:	4032      	ands	r2, r6
100008d4:	4693      	mov	fp, r2
100008d6:	7b5a      	ldrb	r2, [r3, #13]
100008d8:	43b2      	bics	r2, r6
100008da:	4691      	mov	r9, r2
100008dc:	7d0a      	ldrb	r2, [r1, #20]
100008de:	464c      	mov	r4, r9
100008e0:	402a      	ands	r2, r5
100008e2:	0192      	lsls	r2, r2, #6
100008e4:	4692      	mov	sl, r2
100008e6:	465a      	mov	r2, fp
100008e8:	4322      	orrs	r2, r4
100008ea:	4032      	ands	r2, r6
100008ec:	4691      	mov	r9, r2
100008ee:	4652      	mov	r2, sl
100008f0:	464c      	mov	r4, r9
100008f2:	4322      	orrs	r2, r4
100008f4:	4664      	mov	r4, ip
100008f6:	735a      	strb	r2, [r3, #13]
100008f8:	8a8a      	ldrh	r2, [r1, #20]
100008fa:	0892      	lsrs	r2, r2, #2
100008fc:	739a      	strb	r2, [r3, #14]
100008fe:	7d4a      	ldrb	r2, [r1, #21]
10000900:	0892      	lsrs	r2, r2, #2
10000902:	4022      	ands	r2, r4
10000904:	4692      	mov	sl, r2
10000906:	7bda      	ldrb	r2, [r3, #15]
10000908:	43a2      	bics	r2, r4
1000090a:	4691      	mov	r9, r2
1000090c:	4652      	mov	r2, sl
1000090e:	464c      	mov	r4, r9
10000910:	4322      	orrs	r2, r4
10000912:	4664      	mov	r4, ip
10000914:	73da      	strb	r2, [r3, #15]
10000916:	7d8a      	ldrb	r2, [r1, #22]
10000918:	403a      	ands	r2, r7
1000091a:	0052      	lsls	r2, r2, #1
1000091c:	4692      	mov	sl, r2
1000091e:	7bda      	ldrb	r2, [r3, #15]
10000920:	4022      	ands	r2, r4
10000922:	4691      	mov	r9, r2
10000924:	4652      	mov	r2, sl
10000926:	464c      	mov	r4, r9
10000928:	4322      	orrs	r2, r4
1000092a:	4644      	mov	r4, r8
1000092c:	73da      	strb	r2, [r3, #15]
1000092e:	8aca      	ldrh	r2, [r1, #22]
10000930:	09d2      	lsrs	r2, r2, #7
10000932:	4022      	ands	r2, r4
10000934:	4693      	mov	fp, r2
10000936:	7c1a      	ldrb	r2, [r3, #16]
10000938:	43a2      	bics	r2, r4
1000093a:	4692      	mov	sl, r2
1000093c:	7e0a      	ldrb	r2, [r1, #24]
1000093e:	4022      	ands	r2, r4
10000940:	0112      	lsls	r2, r2, #4
10000942:	4691      	mov	r9, r2
10000944:	4654      	mov	r4, sl
10000946:	465a      	mov	r2, fp
10000948:	4322      	orrs	r2, r4
1000094a:	4692      	mov	sl, r2
1000094c:	4642      	mov	r2, r8
1000094e:	4654      	mov	r4, sl
10000950:	4022      	ands	r2, r4
10000952:	4690      	mov	r8, r2
10000954:	464a      	mov	r2, r9
10000956:	4644      	mov	r4, r8
10000958:	4322      	orrs	r2, r4
1000095a:	741a      	strb	r2, [r3, #16]
1000095c:	8b0a      	ldrh	r2, [r1, #24]
1000095e:	0912      	lsrs	r2, r2, #4
10000960:	403a      	ands	r2, r7
10000962:	4691      	mov	r9, r2
10000964:	7c5a      	ldrb	r2, [r3, #17]
10000966:	43ba      	bics	r2, r7
10000968:	4690      	mov	r8, r2
1000096a:	7e8a      	ldrb	r2, [r1, #26]
1000096c:	4692      	mov	sl, r2
1000096e:	4662      	mov	r2, ip
10000970:	4654      	mov	r4, sl
10000972:	4022      	ands	r2, r4
10000974:	01d2      	lsls	r2, r2, #7
10000976:	4694      	mov	ip, r2
10000978:	4644      	mov	r4, r8
1000097a:	464a      	mov	r2, r9
1000097c:	4322      	orrs	r2, r4
1000097e:	4017      	ands	r7, r2
10000980:	4662      	mov	r2, ip
10000982:	4317      	orrs	r7, r2
10000984:	745f      	strb	r7, [r3, #17]
10000986:	8b4f      	ldrh	r7, [r1, #26]
10000988:	2407      	movs	r4, #7
1000098a:	087f      	lsrs	r7, r7, #1
1000098c:	749f      	strb	r7, [r3, #18]
1000098e:	7ecf      	ldrb	r7, [r1, #27]
10000990:	087f      	lsrs	r7, r7, #1
10000992:	402f      	ands	r7, r5
10000994:	46bc      	mov	ip, r7
10000996:	4662      	mov	r2, ip
10000998:	7cdf      	ldrb	r7, [r3, #19]
1000099a:	43af      	bics	r7, r5
1000099c:	4317      	orrs	r7, r2
1000099e:	221f      	movs	r2, #31
100009a0:	74df      	strb	r7, [r3, #19]
100009a2:	7f0f      	ldrb	r7, [r1, #28]
100009a4:	403e      	ands	r6, r7
100009a6:	7cdf      	ldrb	r7, [r3, #19]
100009a8:	00b6      	lsls	r6, r6, #2
100009aa:	403d      	ands	r5, r7
100009ac:	4335      	orrs	r5, r6
100009ae:	74dd      	strb	r5, [r3, #19]
100009b0:	8b8d      	ldrh	r5, [r1, #28]
100009b2:	7f8f      	ldrb	r7, [r1, #30]
100009b4:	09ad      	lsrs	r5, r5, #6
100009b6:	4015      	ands	r5, r2
100009b8:	002e      	movs	r6, r5
100009ba:	7d1d      	ldrb	r5, [r3, #20]
100009bc:	403c      	ands	r4, r7
100009be:	4395      	bics	r5, r2
100009c0:	4335      	orrs	r5, r6
100009c2:	0164      	lsls	r4, r4, #5
100009c4:	402a      	ands	r2, r5
100009c6:	4322      	orrs	r2, r4
100009c8:	0004      	movs	r4, r0
100009ca:	751a      	strb	r2, [r3, #20]
100009cc:	8bca      	ldrh	r2, [r1, #30]
100009ce:	3419      	adds	r4, #25
100009d0:	0552      	lsls	r2, r2, #21
100009d2:	0e12      	lsrs	r2, r2, #24
100009d4:	755a      	strb	r2, [r3, #21]
100009d6:	4d09      	ldr	r5, [pc, #36]	; (100009fc <crsf_pack_channels+0x2bc>)
100009d8:	1c83      	adds	r3, r0, #2
100009da:	22d3      	movs	r2, #211	; 0xd3
100009dc:	e002      	b.n	100009e4 <crsf_pack_channels+0x2a4>
100009de:	7819      	ldrb	r1, [r3, #0]
100009e0:	404a      	eors	r2, r1
100009e2:	5caa      	ldrb	r2, [r5, r2]
100009e4:	3301      	adds	r3, #1
100009e6:	42a3      	cmp	r3, r4
100009e8:	d1f9      	bne.n	100009de <crsf_pack_channels+0x29e>
100009ea:	7642      	strb	r2, [r0, #25]
100009ec:	201a      	movs	r0, #26
100009ee:	bc3c      	pop	{r2, r3, r4, r5}
100009f0:	4690      	mov	r8, r2
100009f2:	4699      	mov	r9, r3
100009f4:	46a2      	mov	sl, r4
100009f6:	46ab      	mov	fp, r5
100009f8:	bdf0      	pop	{r4, r5, r6, r7, pc}
100009fa:	46c0      	nop			; (mov r8, r8)
100009fc:	10004f94 	.word	0x10004f94

10000a00 <gpio_set_function>:
10000a00:	b510      	push	{r4, lr}
10000a02:	2440      	movs	r4, #64	; 0x40
10000a04:	4a08      	ldr	r2, [pc, #32]	; (10000a28 <gpio_set_function+0x28>)
10000a06:	0083      	lsls	r3, r0, #2
10000a08:	189a      	adds	r2, r3, r2
10000a0a:	6812      	ldr	r2, [r2, #0]
10000a0c:	00c0      	lsls	r0, r0, #3
10000a0e:	4054      	eors	r4, r2
10000a10:	22c0      	movs	r2, #192	; 0xc0
10000a12:	4022      	ands	r2, r4
10000a14:	4c05      	ldr	r4, [pc, #20]	; (10000a2c <gpio_set_function+0x2c>)
10000a16:	46a4      	mov	ip, r4
10000a18:	4463      	add	r3, ip
10000a1a:	601a      	str	r2, [r3, #0]
10000a1c:	4b04      	ldr	r3, [pc, #16]	; (10000a30 <gpio_set_function+0x30>)
10000a1e:	469c      	mov	ip, r3
10000a20:	4460      	add	r0, ip
10000a22:	6041      	str	r1, [r0, #4]
10000a24:	bd10      	pop	{r4, pc}
10000a26:	46c0      	nop			; (mov r8, r8)
10000a28:	4001c004 	.word	0x4001c004
10000a2c:	4001d004 	.word	0x4001d004
10000a30:	40014000 	.word	0x40014000

10000a34 <gpio_init>:
10000a34:	2301      	movs	r3, #1
10000a36:	22d0      	movs	r2, #208	; 0xd0
10000a38:	4083      	lsls	r3, r0
10000a3a:	2140      	movs	r1, #64	; 0x40
10000a3c:	0612      	lsls	r2, r2, #24
10000a3e:	6293      	str	r3, [r2, #40]	; 0x28
10000a40:	6193      	str	r3, [r2, #24]
10000a42:	4a09      	ldr	r2, [pc, #36]	; (10000a68 <gpio_init+0x34>)
10000a44:	0083      	lsls	r3, r0, #2
10000a46:	189a      	adds	r2, r3, r2
10000a48:	6812      	ldr	r2, [r2, #0]
10000a4a:	00c0      	lsls	r0, r0, #3
10000a4c:	4051      	eors	r1, r2
10000a4e:	22c0      	movs	r2, #192	; 0xc0
10000a50:	400a      	ands	r2, r1
10000a52:	4906      	ldr	r1, [pc, #24]	; (10000a6c <gpio_init+0x38>)
10000a54:	468c      	mov	ip, r1
10000a56:	4463      	add	r3, ip
10000a58:	601a      	str	r2, [r3, #0]
10000a5a:	4b05      	ldr	r3, [pc, #20]	; (10000a70 <gpio_init+0x3c>)
10000a5c:	469c      	mov	ip, r3
10000a5e:	2305      	movs	r3, #5
10000a60:	4460      	add	r0, ip
10000a62:	6043      	str	r3, [r0, #4]
10000a64:	4770      	bx	lr
10000a66:	46c0      	nop			; (mov r8, r8)
10000a68:	4001c004 	.word	0x4001c004
10000a6c:	4001d004 	.word	0x4001d004
10000a70:	40014000 	.word	0x40014000

10000a74 <rp2040_chip_version>:
10000a74:	2380      	movs	r3, #128	; 0x80
10000a76:	05db      	lsls	r3, r3, #23
10000a78:	6818      	ldr	r0, [r3, #0]
10000a7a:	0f00      	lsrs	r0, r0, #28
10000a7c:	4770      	bx	lr
10000a7e:	46c0      	nop			; (mov r8, r8)

10000a80 <panic>:
10000a80:	b40f      	push	{r0, r1, r2, r3}
10000a82:	b500      	push	{lr}
10000a84:	4808      	ldr	r0, [pc, #32]	; (10000aa8 <panic+0x28>)
10000a86:	b083      	sub	sp, #12
10000a88:	f001 fd20 	bl	100024cc <__wrap_puts>
10000a8c:	9b04      	ldr	r3, [sp, #16]
10000a8e:	2b00      	cmp	r3, #0
10000a90:	d007      	beq.n	10000aa2 <panic+0x22>
10000a92:	a905      	add	r1, sp, #20
10000a94:	0018      	movs	r0, r3
10000a96:	9101      	str	r1, [sp, #4]
10000a98:	f001 fbaa 	bl	100021f0 <weak_raw_vprintf>
10000a9c:	4803      	ldr	r0, [pc, #12]	; (10000aac <panic+0x2c>)
10000a9e:	f001 fd15 	bl	100024cc <__wrap_puts>
10000aa2:	2001      	movs	r0, #1
10000aa4:	f001 fbbc 	bl	10002220 <_exit>
10000aa8:	10005094 	.word	0x10005094
10000aac:	100050a4 	.word	0x100050a4

10000ab0 <hw_claim_or_assert>:
10000ab0:	b5f8      	push	{r3, r4, r5, r6, r7, lr}
10000ab2:	f3ef 8710 	mrs	r7, PRIMASK
10000ab6:	b672      	cpsid	i
10000ab8:	4e0d      	ldr	r6, [pc, #52]	; (10000af0 <hw_claim_or_assert+0x40>)
10000aba:	6833      	ldr	r3, [r6, #0]
10000abc:	2b00      	cmp	r3, #0
10000abe:	d0fc      	beq.n	10000aba <hw_claim_or_assert+0xa>
10000ac0:	f3bf 8f5f 	dmb	sy
10000ac4:	2507      	movs	r5, #7
10000ac6:	08cb      	lsrs	r3, r1, #3
10000ac8:	18c0      	adds	r0, r0, r3
10000aca:	2301      	movs	r3, #1
10000acc:	400d      	ands	r5, r1
10000ace:	40ab      	lsls	r3, r5
10000ad0:	001d      	movs	r5, r3
10000ad2:	7804      	ldrb	r4, [r0, #0]
10000ad4:	4025      	ands	r5, r4
10000ad6:	d107      	bne.n	10000ae8 <hw_claim_or_assert+0x38>
10000ad8:	4323      	orrs	r3, r4
10000ada:	7003      	strb	r3, [r0, #0]
10000adc:	f3bf 8f5f 	dmb	sy
10000ae0:	6035      	str	r5, [r6, #0]
10000ae2:	f387 8810 	msr	PRIMASK, r7
10000ae6:	bdf8      	pop	{r3, r4, r5, r6, r7, pc}
10000ae8:	0010      	movs	r0, r2
10000aea:	f7ff ffc9 	bl	10000a80 <panic>
10000aee:	46c0      	nop			; (mov r8, r8)
10000af0:	d000012c 	.word	0xd000012c

10000af4 <hw_claim_unused_from_range>:
10000af4:	b5f8      	push	{r3, r4, r5, r6, r7, lr}
10000af6:	46ce      	mov	lr, r9
10000af8:	4647      	mov	r7, r8
10000afa:	468c      	mov	ip, r1
10000afc:	b580      	push	{r7, lr}
10000afe:	f3ef 8910 	mrs	r9, PRIMASK
10000b02:	b672      	cpsid	i
10000b04:	4d21      	ldr	r5, [pc, #132]	; (10000b8c <hw_claim_unused_from_range+0x98>)
10000b06:	682c      	ldr	r4, [r5, #0]
10000b08:	2c00      	cmp	r4, #0
10000b0a:	d0fc      	beq.n	10000b06 <hw_claim_unused_from_range+0x12>
10000b0c:	f3bf 8f5f 	dmb	sy
10000b10:	429a      	cmp	r2, r3
10000b12:	d82c      	bhi.n	10000b6e <hw_claim_unused_from_range+0x7a>
10000b14:	2107      	movs	r1, #7
10000b16:	2501      	movs	r5, #1
10000b18:	4011      	ands	r1, r2
10000b1a:	408d      	lsls	r5, r1
10000b1c:	08d4      	lsrs	r4, r2, #3
10000b1e:	1904      	adds	r4, r0, r4
10000b20:	7826      	ldrb	r6, [r4, #0]
10000b22:	4235      	tst	r5, r6
10000b24:	d01f      	beq.n	10000b66 <hw_claim_unused_from_range+0x72>
10000b26:	2107      	movs	r1, #7
10000b28:	4688      	mov	r8, r1
10000b2a:	3906      	subs	r1, #6
10000b2c:	e009      	b.n	10000b42 <hw_claim_unused_from_range+0x4e>
10000b2e:	4645      	mov	r5, r8
10000b30:	000f      	movs	r7, r1
10000b32:	4015      	ands	r5, r2
10000b34:	40af      	lsls	r7, r5
10000b36:	08d4      	lsrs	r4, r2, #3
10000b38:	1904      	adds	r4, r0, r4
10000b3a:	7826      	ldrb	r6, [r4, #0]
10000b3c:	003d      	movs	r5, r7
10000b3e:	4237      	tst	r7, r6
10000b40:	d011      	beq.n	10000b66 <hw_claim_unused_from_range+0x72>
10000b42:	3201      	adds	r2, #1
10000b44:	4293      	cmp	r3, r2
10000b46:	d2f2      	bcs.n	10000b2e <hw_claim_unused_from_range+0x3a>
10000b48:	2001      	movs	r0, #1
10000b4a:	4240      	negs	r0, r0
10000b4c:	f3bf 8f5f 	dmb	sy
10000b50:	2200      	movs	r2, #0
10000b52:	4b0e      	ldr	r3, [pc, #56]	; (10000b8c <hw_claim_unused_from_range+0x98>)
10000b54:	601a      	str	r2, [r3, #0]
10000b56:	f389 8810 	msr	PRIMASK, r9
10000b5a:	2800      	cmp	r0, #0
10000b5c:	db0f      	blt.n	10000b7e <hw_claim_unused_from_range+0x8a>
10000b5e:	bc0c      	pop	{r2, r3}
10000b60:	4690      	mov	r8, r2
10000b62:	4699      	mov	r9, r3
10000b64:	bdf8      	pop	{r3, r4, r5, r6, r7, pc}
10000b66:	4335      	orrs	r5, r6
10000b68:	7025      	strb	r5, [r4, #0]
10000b6a:	0010      	movs	r0, r2
10000b6c:	e7ee      	b.n	10000b4c <hw_claim_unused_from_range+0x58>
10000b6e:	f3bf 8f5f 	dmb	sy
10000b72:	2300      	movs	r3, #0
10000b74:	602b      	str	r3, [r5, #0]
10000b76:	f389 8810 	msr	PRIMASK, r9
10000b7a:	2001      	movs	r0, #1
10000b7c:	4240      	negs	r0, r0
10000b7e:	4663      	mov	r3, ip
10000b80:	2b00      	cmp	r3, #0
10000b82:	d0ec      	beq.n	10000b5e <hw_claim_unused_from_range+0x6a>
10000b84:	9808      	ldr	r0, [sp, #32]
10000b86:	f7ff ff7b 	bl	10000a80 <panic>
10000b8a:	46c0      	nop			; (mov r8, r8)
10000b8c:	d000012c 	.word	0xd000012c

10000b90 <next_striped_spin_lock_num>:
10000b90:	4a04      	ldr	r2, [pc, #16]	; (10000ba4 <next_striped_spin_lock_num+0x14>)
10000b92:	7810      	ldrb	r0, [r2, #0]
10000b94:	1c43      	adds	r3, r0, #1
10000b96:	b2db      	uxtb	r3, r3
10000b98:	2b17      	cmp	r3, #23
10000b9a:	d900      	bls.n	10000b9e <next_striped_spin_lock_num+0xe>
10000b9c:	2310      	movs	r3, #16
10000b9e:	7013      	strb	r3, [r2, #0]
10000ba0:	4770      	bx	lr
10000ba2:	46c0      	nop			; (mov r8, r8)
10000ba4:	2000107e 	.word	0x2000107e

10000ba8 <spin_lock_claim_unused>:
10000ba8:	b500      	push	{lr}
10000baa:	4b05      	ldr	r3, [pc, #20]	; (10000bc0 <spin_lock_claim_unused+0x18>)
10000bac:	b083      	sub	sp, #12
10000bae:	0001      	movs	r1, r0
10000bb0:	9300      	str	r3, [sp, #0]
10000bb2:	2218      	movs	r2, #24
10000bb4:	231f      	movs	r3, #31
10000bb6:	4803      	ldr	r0, [pc, #12]	; (10000bc4 <spin_lock_claim_unused+0x1c>)
10000bb8:	f7ff ff9c 	bl	10000af4 <hw_claim_unused_from_range>
10000bbc:	b003      	add	sp, #12
10000bbe:	bd00      	pop	{pc}
10000bc0:	100050a8 	.word	0x100050a8
10000bc4:	2000198c 	.word	0x2000198c

10000bc8 <spin_locks_reset>:
10000bc8:	2100      	movs	r1, #0
10000bca:	4b04      	ldr	r3, [pc, #16]	; (10000bdc <spin_locks_reset+0x14>)
10000bcc:	4a04      	ldr	r2, [pc, #16]	; (10000be0 <spin_locks_reset+0x18>)
10000bce:	f3bf 8f5f 	dmb	sy
10000bd2:	c302      	stmia	r3!, {r1}
10000bd4:	4293      	cmp	r3, r2
10000bd6:	d1fa      	bne.n	10000bce <spin_locks_reset+0x6>
10000bd8:	4770      	bx	lr
10000bda:	46c0      	nop			; (mov r8, r8)
10000bdc:	d0000100 	.word	0xd0000100
10000be0:	d0000180 	.word	0xd0000180

10000be4 <runtime_init_per_core_irq_priorities>:
10000be4:	4b05      	ldr	r3, [pc, #20]	; (10000bfc <runtime_init_per_core_irq_priorities+0x18>)
10000be6:	4a06      	ldr	r2, [pc, #24]	; (10000c00 <runtime_init_per_core_irq_priorities+0x1c>)
10000be8:	6013      	str	r3, [r2, #0]
10000bea:	4a06      	ldr	r2, [pc, #24]	; (10000c04 <runtime_init_per_core_irq_priorities+0x20>)
10000bec:	6013      	str	r3, [r2, #0]
10000bee:	6053      	str	r3, [r2, #4]
10000bf0:	6093      	str	r3, [r2, #8]
10000bf2:	60d3      	str	r3, [r2, #12]
10000bf4:	6113      	str	r3, [r2, #16]
10000bf6:	6153      	str	r3, [r2, #20]
10000bf8:	6193      	str	r3, [r2, #24]
10000bfa:	4770      	bx	lr
10000bfc:	80808080 	.word	0x80808080
10000c00:	e000e400 	.word	0xe000e400
10000c04:	e000e404 	.word	0xe000e404

10000c08 <irq_set_enabled>:
10000c08:	231f      	movs	r3, #31
10000c0a:	4018      	ands	r0, r3
10000c0c:	3b1e      	subs	r3, #30
10000c0e:	4083      	lsls	r3, r0
10000c10:	2900      	cmp	r1, #0
10000c12:	d103      	bne.n	10000c1c <irq_set_enabled+0x14>
10000c14:	2280      	movs	r2, #128	; 0x80
10000c16:	4904      	ldr	r1, [pc, #16]	; (10000c28 <irq_set_enabled+0x20>)
10000c18:	508b      	str	r3, [r1, r2]
10000c1a:	4770      	bx	lr
10000c1c:	21c0      	movs	r1, #192	; 0xc0
10000c1e:	4a02      	ldr	r2, [pc, #8]	; (10000c28 <irq_set_enabled+0x20>)
10000c20:	0049      	lsls	r1, r1, #1
10000c22:	5053      	str	r3, [r2, r1]
10000c24:	6013      	str	r3, [r2, #0]
10000c26:	e7f8      	b.n	10000c1a <irq_set_enabled+0x12>
10000c28:	e000e100 	.word	0xe000e100

10000c2c <irq_is_enabled>:
10000c2c:	0002      	movs	r2, r0
10000c2e:	2001      	movs	r0, #1
10000c30:	4090      	lsls	r0, r2
10000c32:	4b03      	ldr	r3, [pc, #12]	; (10000c40 <irq_is_enabled+0x14>)
10000c34:	681b      	ldr	r3, [r3, #0]
10000c36:	4018      	ands	r0, r3
10000c38:	1e43      	subs	r3, r0, #1
10000c3a:	4198      	sbcs	r0, r3
10000c3c:	b2c0      	uxtb	r0, r0
10000c3e:	4770      	bx	lr
10000c40:	e000e100 	.word	0xe000e100

10000c44 <irq_set_pending>:
10000c44:	2301      	movs	r3, #1
10000c46:	4083      	lsls	r3, r0
10000c48:	4a01      	ldr	r2, [pc, #4]	; (10000c50 <irq_set_pending+0xc>)
10000c4a:	6013      	str	r3, [r2, #0]
10000c4c:	4770      	bx	lr
10000c4e:	46c0      	nop			; (mov r8, r8)
10000c50:	e000e200 	.word	0xe000e200

10000c54 <irq_has_shared_handler>:
10000c54:	4b06      	ldr	r3, [pc, #24]	; (10000c70 <irq_has_shared_handler+0x1c>)
10000c56:	3010      	adds	r0, #16
10000c58:	689b      	ldr	r3, [r3, #8]
10000c5a:	0080      	lsls	r0, r0, #2
10000c5c:	58c3      	ldr	r3, [r0, r3]
10000c5e:	4a05      	ldr	r2, [pc, #20]	; (10000c74 <irq_has_shared_handler+0x20>)
10000c60:	2000      	movs	r0, #0
10000c62:	1a9b      	subs	r3, r3, r2
10000c64:	222f      	movs	r2, #47	; 0x2f
10000c66:	429a      	cmp	r2, r3
10000c68:	4140      	adcs	r0, r0
10000c6a:	b2c0      	uxtb	r0, r0
10000c6c:	4770      	bx	lr
10000c6e:	46c0      	nop			; (mov r8, r8)
10000c70:	e000ed00 	.word	0xe000ed00
10000c74:	20001080 	.word	0x20001080

10000c78 <irq_set_exclusive_handler>:
10000c78:	b570      	push	{r4, r5, r6, lr}
10000c7a:	000d      	movs	r5, r1
10000c7c:	f3ef 8610 	mrs	r6, PRIMASK
10000c80:	b672      	cpsid	i
10000c82:	4a0f      	ldr	r2, [pc, #60]	; (10000cc0 <irq_set_exclusive_handler+0x48>)
10000c84:	6813      	ldr	r3, [r2, #0]
10000c86:	2b00      	cmp	r3, #0
10000c88:	d0fc      	beq.n	10000c84 <irq_set_exclusive_handler+0xc>
10000c8a:	f3bf 8f5f 	dmb	sy
10000c8e:	4b0d      	ldr	r3, [pc, #52]	; (10000cc4 <irq_set_exclusive_handler+0x4c>)
10000c90:	3010      	adds	r0, #16
10000c92:	689b      	ldr	r3, [r3, #8]
10000c94:	0084      	lsls	r4, r0, #2
10000c96:	591b      	ldr	r3, [r3, r4]
10000c98:	4a0b      	ldr	r2, [pc, #44]	; (10000cc8 <irq_set_exclusive_handler+0x50>)
10000c9a:	4293      	cmp	r3, r2
10000c9c:	d003      	beq.n	10000ca6 <irq_set_exclusive_handler+0x2e>
10000c9e:	429d      	cmp	r5, r3
10000ca0:	d001      	beq.n	10000ca6 <irq_set_exclusive_handler+0x2e>
10000ca2:	f001 f899 	bl	10001dd8 <hard_assertion_failure>
10000ca6:	4b07      	ldr	r3, [pc, #28]	; (10000cc4 <irq_set_exclusive_handler+0x4c>)
10000ca8:	689b      	ldr	r3, [r3, #8]
10000caa:	511d      	str	r5, [r3, r4]
10000cac:	f3bf 8f5f 	dmb	sy
10000cb0:	f3bf 8f5f 	dmb	sy
10000cb4:	2200      	movs	r2, #0
10000cb6:	4b02      	ldr	r3, [pc, #8]	; (10000cc0 <irq_set_exclusive_handler+0x48>)
10000cb8:	601a      	str	r2, [r3, #0]
10000cba:	f386 8810 	msr	PRIMASK, r6
10000cbe:	bd70      	pop	{r4, r5, r6, pc}
10000cc0:	d0000124 	.word	0xd0000124
10000cc4:	e000ed00 	.word	0xe000ed00
10000cc8:	100001c1 	.word	0x100001c1

10000ccc <irq_add_shared_handler>:
10000ccc:	b5f0      	push	{r4, r5, r6, r7, lr}
10000cce:	4657      	mov	r7, sl
10000cd0:	464e      	mov	r6, r9
10000cd2:	4645      	mov	r5, r8
10000cd4:	46de      	mov	lr, fp
10000cd6:	b5e0      	push	{r5, r6, r7, lr}
10000cd8:	4689      	mov	r9, r1
10000cda:	b083      	sub	sp, #12
10000cdc:	0007      	movs	r7, r0
10000cde:	4690      	mov	r8, r2
10000ce0:	f3ef 8a10 	mrs	sl, PRIMASK
10000ce4:	b672      	cpsid	i
10000ce6:	4a5f      	ldr	r2, [pc, #380]	; (10000e64 <irq_add_shared_handler+0x198>)
10000ce8:	6813      	ldr	r3, [r2, #0]
10000cea:	2b00      	cmp	r3, #0
10000cec:	d0fc      	beq.n	10000ce8 <irq_add_shared_handler+0x1c>
10000cee:	f3bf 8f5f 	dmb	sy
10000cf2:	2000      	movs	r0, #0
10000cf4:	4b5c      	ldr	r3, [pc, #368]	; (10000e68 <irq_add_shared_handler+0x19c>)
10000cf6:	5618      	ldrsb	r0, [r3, r0]
10000cf8:	469b      	mov	fp, r3
10000cfa:	2800      	cmp	r0, #0
10000cfc:	da00      	bge.n	10000d00 <irq_add_shared_handler+0x34>
10000cfe:	e082      	b.n	10000e06 <irq_add_shared_handler+0x13a>
10000d00:	465a      	mov	r2, fp
10000d02:	0044      	lsls	r4, r0, #1
10000d04:	4e59      	ldr	r6, [pc, #356]	; (10000e6c <irq_add_shared_handler+0x1a0>)
10000d06:	1824      	adds	r4, r4, r0
10000d08:	00a4      	lsls	r4, r4, #2
10000d0a:	1935      	adds	r5, r6, r4
10000d0c:	79ab      	ldrb	r3, [r5, #6]
10000d0e:	3710      	adds	r7, #16
10000d10:	7013      	strb	r3, [r2, #0]
10000d12:	4b57      	ldr	r3, [pc, #348]	; (10000e70 <irq_add_shared_handler+0x1a4>)
10000d14:	00ba      	lsls	r2, r7, #2
10000d16:	689b      	ldr	r3, [r3, #8]
10000d18:	4693      	mov	fp, r2
10000d1a:	589a      	ldr	r2, [r3, r2]
10000d1c:	1b93      	subs	r3, r2, r6
10000d1e:	2b2f      	cmp	r3, #47	; 0x2f
10000d20:	d92e      	bls.n	10000d80 <irq_add_shared_handler+0xb4>
10000d22:	4b54      	ldr	r3, [pc, #336]	; (10000e74 <irq_add_shared_handler+0x1a8>)
10000d24:	429a      	cmp	r2, r3
10000d26:	d001      	beq.n	10000d2c <irq_add_shared_handler+0x60>
10000d28:	f001 f856 	bl	10001dd8 <hard_assertion_failure>
10000d2c:	4b52      	ldr	r3, [pc, #328]	; (10000e78 <irq_add_shared_handler+0x1ac>)
10000d2e:	3402      	adds	r4, #2
10000d30:	802b      	strh	r3, [r5, #0]
10000d32:	4b52      	ldr	r3, [pc, #328]	; (10000e7c <irq_add_shared_handler+0x1b0>)
10000d34:	1936      	adds	r6, r6, r4
10000d36:	3b04      	subs	r3, #4
10000d38:	1b9e      	subs	r6, r3, r6
10000d3a:	0536      	lsls	r6, r6, #20
10000d3c:	4b50      	ldr	r3, [pc, #320]	; (10000e80 <irq_add_shared_handler+0x1b4>)
10000d3e:	0d76      	lsrs	r6, r6, #21
10000d40:	431e      	orrs	r6, r3
10000d42:	4b50      	ldr	r3, [pc, #320]	; (10000e84 <irq_add_shared_handler+0x1b8>)
10000d44:	2201      	movs	r2, #1
10000d46:	80ab      	strh	r3, [r5, #4]
10000d48:	23ff      	movs	r3, #255	; 0xff
10000d4a:	71ab      	strb	r3, [r5, #6]
10000d4c:	4643      	mov	r3, r8
10000d4e:	71eb      	strb	r3, [r5, #7]
10000d50:	464b      	mov	r3, r9
10000d52:	806e      	strh	r6, [r5, #2]
10000d54:	60ab      	str	r3, [r5, #8]
10000d56:	432a      	orrs	r2, r5
10000d58:	4659      	mov	r1, fp
10000d5a:	4b45      	ldr	r3, [pc, #276]	; (10000e70 <irq_add_shared_handler+0x1a4>)
10000d5c:	689b      	ldr	r3, [r3, #8]
10000d5e:	505a      	str	r2, [r3, r1]
10000d60:	f3bf 8f5f 	dmb	sy
10000d64:	f3bf 8f5f 	dmb	sy
10000d68:	2200      	movs	r2, #0
10000d6a:	4b3e      	ldr	r3, [pc, #248]	; (10000e64 <irq_add_shared_handler+0x198>)
10000d6c:	601a      	str	r2, [r3, #0]
10000d6e:	f38a 8810 	msr	PRIMASK, sl
10000d72:	b003      	add	sp, #12
10000d74:	bc3c      	pop	{r2, r3, r4, r5}
10000d76:	4690      	mov	r8, r2
10000d78:	4699      	mov	r9, r3
10000d7a:	46a2      	mov	sl, r4
10000d7c:	46ab      	mov	fp, r5
10000d7e:	bdf0      	pop	{r4, r5, r6, r7, pc}
10000d80:	2301      	movs	r3, #1
10000d82:	0011      	movs	r1, r2
10000d84:	4399      	bics	r1, r3
10000d86:	79cb      	ldrb	r3, [r1, #7]
10000d88:	468c      	mov	ip, r1
10000d8a:	4543      	cmp	r3, r8
10000d8c:	d941      	bls.n	10000e12 <irq_add_shared_handler+0x146>
10000d8e:	2706      	movs	r7, #6
10000d90:	57cf      	ldrsb	r7, [r1, r7]
10000d92:	2f00      	cmp	r7, #0
10000d94:	da05      	bge.n	10000da2 <irq_add_shared_handler+0xd6>
10000d96:	e022      	b.n	10000dde <irq_add_shared_handler+0x112>
10000d98:	2706      	movs	r7, #6
10000d9a:	57df      	ldrsb	r7, [r3, r7]
10000d9c:	0019      	movs	r1, r3
10000d9e:	2f00      	cmp	r7, #0
10000da0:	db1d      	blt.n	10000dde <irq_add_shared_handler+0x112>
10000da2:	007b      	lsls	r3, r7, #1
10000da4:	19db      	adds	r3, r3, r7
10000da6:	009b      	lsls	r3, r3, #2
10000da8:	18f3      	adds	r3, r6, r3
10000daa:	79df      	ldrb	r7, [r3, #7]
10000dac:	4547      	cmp	r7, r8
10000dae:	d8f3      	bhi.n	10000d98 <irq_add_shared_handler+0xcc>
10000db0:	2900      	cmp	r1, #0
10000db2:	d02e      	beq.n	10000e12 <irq_add_shared_handler+0x146>
10000db4:	2706      	movs	r7, #6
10000db6:	57cf      	ldrsb	r7, [r1, r7]
10000db8:	1d0b      	adds	r3, r1, #4
10000dba:	9301      	str	r3, [sp, #4]
10000dbc:	2f00      	cmp	r7, #0
10000dbe:	db4e      	blt.n	10000e5e <irq_add_shared_handler+0x192>
10000dc0:	888b      	ldrh	r3, [r1, #4]
10000dc2:	3404      	adds	r4, #4
10000dc4:	055b      	lsls	r3, r3, #21
10000dc6:	1934      	adds	r4, r6, r4
10000dc8:	151b      	asrs	r3, r3, #20
10000dca:	1d0e      	adds	r6, r1, #4
10000dcc:	18f6      	adds	r6, r6, r3
10000dce:	1b36      	subs	r6, r6, r4
10000dd0:	24e0      	movs	r4, #224	; 0xe0
10000dd2:	0536      	lsls	r6, r6, #20
10000dd4:	0d76      	lsrs	r6, r6, #21
10000dd6:	0224      	lsls	r4, r4, #8
10000dd8:	4326      	orrs	r6, r4
10000dda:	9b01      	ldr	r3, [sp, #4]
10000ddc:	e002      	b.n	10000de4 <irq_add_shared_handler+0x118>
10000dde:	1d0b      	adds	r3, r1, #4
10000de0:	4e29      	ldr	r6, [pc, #164]	; (10000e88 <irq_add_shared_handler+0x1bc>)
10000de2:	9301      	str	r3, [sp, #4]
10000de4:	1f2c      	subs	r4, r5, #4
10000de6:	1ae3      	subs	r3, r4, r3
10000de8:	051b      	lsls	r3, r3, #20
10000dea:	4c25      	ldr	r4, [pc, #148]	; (10000e80 <irq_add_shared_handler+0x1b4>)
10000dec:	0d5b      	lsrs	r3, r3, #21
10000dee:	4323      	orrs	r3, r4
10000df0:	808b      	strh	r3, [r1, #4]
10000df2:	4b26      	ldr	r3, [pc, #152]	; (10000e8c <irq_add_shared_handler+0x1c0>)
10000df4:	7188      	strb	r0, [r1, #6]
10000df6:	602b      	str	r3, [r5, #0]
10000df8:	4643      	mov	r3, r8
10000dfa:	71eb      	strb	r3, [r5, #7]
10000dfc:	464b      	mov	r3, r9
10000dfe:	80ae      	strh	r6, [r5, #4]
10000e00:	71af      	strb	r7, [r5, #6]
10000e02:	60ab      	str	r3, [r5, #8]
10000e04:	e7a8      	b.n	10000d58 <irq_add_shared_handler+0x8c>
10000e06:	f000 ffe7 	bl	10001dd8 <hard_assertion_failure>
10000e0a:	465b      	mov	r3, fp
10000e0c:	2000      	movs	r0, #0
10000e0e:	5618      	ldrsb	r0, [r3, r0]
10000e10:	e776      	b.n	10000d00 <irq_add_shared_handler+0x34>
10000e12:	4a1f      	ldr	r2, [pc, #124]	; (10000e90 <irq_add_shared_handler+0x1c4>)
10000e14:	4663      	mov	r3, ip
10000e16:	1b9b      	subs	r3, r3, r6
10000e18:	415b      	adcs	r3, r3
10000e1a:	435a      	muls	r2, r3
10000e1c:	0d12      	lsrs	r2, r2, #20
10000e1e:	4b16      	ldr	r3, [pc, #88]	; (10000e78 <irq_add_shared_handler+0x1ac>)
10000e20:	1ca1      	adds	r1, r4, #2
10000e22:	802b      	strh	r3, [r5, #0]
10000e24:	4b15      	ldr	r3, [pc, #84]	; (10000e7c <irq_add_shared_handler+0x1b0>)
10000e26:	1871      	adds	r1, r6, r1
10000e28:	3b04      	subs	r3, #4
10000e2a:	1a5b      	subs	r3, r3, r1
10000e2c:	051b      	lsls	r3, r3, #20
10000e2e:	4914      	ldr	r1, [pc, #80]	; (10000e80 <irq_add_shared_handler+0x1b4>)
10000e30:	0d5b      	lsrs	r3, r3, #21
10000e32:	430b      	orrs	r3, r1
10000e34:	806b      	strh	r3, [r5, #2]
10000e36:	4663      	mov	r3, ip
10000e38:	3404      	adds	r4, #4
10000e3a:	3b04      	subs	r3, #4
10000e3c:	1936      	adds	r6, r6, r4
10000e3e:	1b9e      	subs	r6, r3, r6
10000e40:	4643      	mov	r3, r8
10000e42:	71eb      	strb	r3, [r5, #7]
10000e44:	464b      	mov	r3, r9
10000e46:	71aa      	strb	r2, [r5, #6]
10000e48:	4662      	mov	r2, ip
10000e4a:	0536      	lsls	r6, r6, #20
10000e4c:	60ab      	str	r3, [r5, #8]
10000e4e:	0d76      	lsrs	r6, r6, #21
10000e50:	4b0e      	ldr	r3, [pc, #56]	; (10000e8c <irq_add_shared_handler+0x1c0>)
10000e52:	4331      	orrs	r1, r6
10000e54:	80a9      	strh	r1, [r5, #4]
10000e56:	6013      	str	r3, [r2, #0]
10000e58:	2201      	movs	r2, #1
10000e5a:	432a      	orrs	r2, r5
10000e5c:	e77c      	b.n	10000d58 <irq_add_shared_handler+0x8c>
10000e5e:	4e0a      	ldr	r6, [pc, #40]	; (10000e88 <irq_add_shared_handler+0x1bc>)
10000e60:	e7c0      	b.n	10000de4 <irq_add_shared_handler+0x118>
10000e62:	46c0      	nop			; (mov r8, r8)
10000e64:	d0000124 	.word	0xd0000124
10000e68:	20001e44 	.word	0x20001e44
10000e6c:	20001080 	.word	0x20001080
10000e70:	e000ed00 	.word	0xe000ed00
10000e74:	100001c1 	.word	0x100001c1
10000e78:	ffffa100 	.word	0xffffa100
10000e7c:	200010b0 	.word	0x200010b0
10000e80:	ffffe000 	.word	0xffffe000
10000e84:	ffffbd01 	.word	0xffffbd01
10000e88:	0000bd01 	.word	0x0000bd01
10000e8c:	47804801 	.word	0x47804801
10000e90:	0000aaaa 	.word	0x0000aaaa

10000e94 <irq_add_tail_to_free_list>:
10000e94:	b5f0      	push	{r4, r5, r6, r7, lr}
10000e96:	2401      	movs	r4, #1
10000e98:	4304      	orrs	r4, r0
10000e9a:	f3ef 8105 	mrs	r1, IPSR
10000e9e:	f3ef 8610 	mrs	r6, PRIMASK
10000ea2:	b672      	cpsid	i
10000ea4:	4a21      	ldr	r2, [pc, #132]	; (10000f2c <irq_add_tail_to_free_list+0x98>)
10000ea6:	6813      	ldr	r3, [r2, #0]
10000ea8:	2b00      	cmp	r3, #0
10000eaa:	d0fc      	beq.n	10000ea6 <irq_add_tail_to_free_list+0x12>
10000eac:	f3bf 8f5f 	dmb	sy
10000eb0:	4b1f      	ldr	r3, [pc, #124]	; (10000f30 <irq_add_tail_to_free_list+0x9c>)
10000eb2:	4a20      	ldr	r2, [pc, #128]	; (10000f34 <irq_add_tail_to_free_list+0xa0>)
10000eb4:	0005      	movs	r5, r0
10000eb6:	1aed      	subs	r5, r5, r3
10000eb8:	416d      	adcs	r5, r5
10000eba:	436a      	muls	r2, r5
10000ebc:	0d12      	lsrs	r2, r2, #20
10000ebe:	4d1e      	ldr	r5, [pc, #120]	; (10000f38 <irq_add_tail_to_free_list+0xa4>)
10000ec0:	0089      	lsls	r1, r1, #2
10000ec2:	68af      	ldr	r7, [r5, #8]
10000ec4:	b252      	sxtb	r2, r2
10000ec6:	587f      	ldr	r7, [r7, r1]
10000ec8:	42a7      	cmp	r7, r4
10000eca:	d01c      	beq.n	10000f06 <irq_add_tail_to_free_list+0x72>
10000ecc:	2106      	movs	r1, #6
10000ece:	5659      	ldrsb	r1, [r3, r1]
10000ed0:	4291      	cmp	r1, r2
10000ed2:	d026      	beq.n	10000f22 <irq_add_tail_to_free_list+0x8e>
10000ed4:	2112      	movs	r1, #18
10000ed6:	5659      	ldrsb	r1, [r3, r1]
10000ed8:	4291      	cmp	r1, r2
10000eda:	d024      	beq.n	10000f26 <irq_add_tail_to_free_list+0x92>
10000edc:	211e      	movs	r1, #30
10000ede:	5659      	ldrsb	r1, [r3, r1]
10000ee0:	4291      	cmp	r1, r2
10000ee2:	d014      	beq.n	10000f0e <irq_add_tail_to_free_list+0x7a>
10000ee4:	212a      	movs	r1, #42	; 0x2a
10000ee6:	5659      	ldrsb	r1, [r3, r1]
10000ee8:	2403      	movs	r4, #3
10000eea:	4291      	cmp	r1, r2
10000eec:	d010      	beq.n	10000f10 <irq_add_tail_to_free_list+0x7c>
10000eee:	4b13      	ldr	r3, [pc, #76]	; (10000f3c <irq_add_tail_to_free_list+0xa8>)
10000ef0:	7819      	ldrb	r1, [r3, #0]
10000ef2:	701a      	strb	r2, [r3, #0]
10000ef4:	7181      	strb	r1, [r0, #6]
10000ef6:	f3bf 8f5f 	dmb	sy
10000efa:	2200      	movs	r2, #0
10000efc:	4b0b      	ldr	r3, [pc, #44]	; (10000f2c <irq_add_tail_to_free_list+0x98>)
10000efe:	601a      	str	r2, [r3, #0]
10000f00:	f386 8810 	msr	PRIMASK, r6
10000f04:	bdf0      	pop	{r4, r5, r6, r7, pc}
10000f06:	68ab      	ldr	r3, [r5, #8]
10000f08:	4c0d      	ldr	r4, [pc, #52]	; (10000f40 <irq_add_tail_to_free_list+0xac>)
10000f0a:	505c      	str	r4, [r3, r1]
10000f0c:	e7ef      	b.n	10000eee <irq_add_tail_to_free_list+0x5a>
10000f0e:	2402      	movs	r4, #2
10000f10:	0061      	lsls	r1, r4, #1
10000f12:	1909      	adds	r1, r1, r4
10000f14:	0089      	lsls	r1, r1, #2
10000f16:	185b      	adds	r3, r3, r1
10000f18:	21ff      	movs	r1, #255	; 0xff
10000f1a:	7199      	strb	r1, [r3, #6]
10000f1c:	4909      	ldr	r1, [pc, #36]	; (10000f44 <irq_add_tail_to_free_list+0xb0>)
10000f1e:	8099      	strh	r1, [r3, #4]
10000f20:	e7e5      	b.n	10000eee <irq_add_tail_to_free_list+0x5a>
10000f22:	2400      	movs	r4, #0
10000f24:	e7f4      	b.n	10000f10 <irq_add_tail_to_free_list+0x7c>
10000f26:	2401      	movs	r4, #1
10000f28:	e7f2      	b.n	10000f10 <irq_add_tail_to_free_list+0x7c>
10000f2a:	46c0      	nop			; (mov r8, r8)
10000f2c:	d0000124 	.word	0xd0000124
10000f30:	20001080 	.word	0x20001080
10000f34:	0000aaaa 	.word	0x0000aaaa
10000f38:	e000ed00 	.word	0xe000ed00
10000f3c:	20001e44 	.word	0x20001e44
10000f40:	100001c1 	.word	0x100001c1
10000f44:	ffffbd01 	.word	0xffffbd01

10000f48 <user_irq_claim_unused>:
10000f48:	b500      	push	{lr}
10000f4a:	4b07      	ldr	r3, [pc, #28]	; (10000f68 <user_irq_claim_unused+0x20>)
10000f4c:	b083      	sub	sp, #12
10000f4e:	0001      	movs	r1, r0
10000f50:	9300      	str	r3, [sp, #0]
10000f52:	2200      	movs	r2, #0
10000f54:	2305      	movs	r3, #5
10000f56:	4805      	ldr	r0, [pc, #20]	; (10000f6c <user_irq_claim_unused+0x24>)
10000f58:	f7ff fdcc 	bl	10000af4 <hw_claim_unused_from_range>
10000f5c:	2800      	cmp	r0, #0
10000f5e:	db01      	blt.n	10000f64 <user_irq_claim_unused+0x1c>
10000f60:	231f      	movs	r3, #31
10000f62:	1a18      	subs	r0, r3, r0
10000f64:	b003      	add	sp, #12
10000f66:	bd00      	pop	{pc}
10000f68:	100050c4 	.word	0x100050c4
10000f6c:	20001e4d 	.word	0x20001e4d

10000f70 <lock_init>:
10000f70:	4b02      	ldr	r3, [pc, #8]	; (10000f7c <lock_init+0xc>)
10000f72:	469c      	mov	ip, r3
10000f74:	4461      	add	r1, ip
10000f76:	0089      	lsls	r1, r1, #2
10000f78:	6001      	str	r1, [r0, #0]
10000f7a:	4770      	bx	lr
10000f7c:	34000040 	.word	0x34000040

10000f80 <runtime_init_mutex>:
10000f80:	b5f0      	push	{r4, r5, r6, r7, lr}
10000f82:	46c6      	mov	lr, r8
10000f84:	4d16      	ldr	r5, [pc, #88]	; (10000fe0 <runtime_init_mutex+0x60>)
10000f86:	4f17      	ldr	r7, [pc, #92]	; (10000fe4 <runtime_init_mutex+0x64>)
10000f88:	b500      	push	{lr}
10000f8a:	42bd      	cmp	r5, r7
10000f8c:	d224      	bcs.n	10000fd8 <runtime_init_mutex+0x58>
10000f8e:	23ff      	movs	r3, #255	; 0xff
10000f90:	002c      	movs	r4, r5
10000f92:	4698      	mov	r8, r3
10000f94:	e00d      	b.n	10000fb2 <runtime_init_mutex+0x32>
10000f96:	f7ff fdfb 	bl	10000b90 <next_striped_spin_lock_num>
10000f9a:	0001      	movs	r1, r0
10000f9c:	0028      	movs	r0, r5
10000f9e:	f7ff ffe7 	bl	10000f70 <lock_init>
10000fa2:	4643      	mov	r3, r8
10000fa4:	80a3      	strh	r3, [r4, #4]
10000fa6:	f3bf 8f5f 	dmb	sy
10000faa:	0034      	movs	r4, r6
10000fac:	0035      	movs	r5, r6
10000fae:	42be      	cmp	r6, r7
10000fb0:	d212      	bcs.n	10000fd8 <runtime_init_mutex+0x58>
10000fb2:	0026      	movs	r6, r4
10000fb4:	6823      	ldr	r3, [r4, #0]
10000fb6:	3608      	adds	r6, #8
10000fb8:	2b00      	cmp	r3, #0
10000fba:	d1ec      	bne.n	10000f96 <runtime_init_mutex+0x16>
10000fbc:	f7ff fde8 	bl	10000b90 <next_striped_spin_lock_num>
10000fc0:	0001      	movs	r1, r0
10000fc2:	0028      	movs	r0, r5
10000fc4:	f7ff ffd4 	bl	10000f70 <lock_init>
10000fc8:	4643      	mov	r3, r8
10000fca:	7123      	strb	r3, [r4, #4]
10000fcc:	f3bf 8f5f 	dmb	sy
10000fd0:	0034      	movs	r4, r6
10000fd2:	0035      	movs	r5, r6
10000fd4:	42be      	cmp	r6, r7
10000fd6:	d3ec      	bcc.n	10000fb2 <runtime_init_mutex+0x32>
10000fd8:	bc04      	pop	{r2}
10000fda:	4690      	mov	r8, r2
10000fdc:	bdf0      	pop	{r4, r5, r6, r7, pc}
10000fde:	46c0      	nop			; (mov r8, r8)
10000fe0:	20001138 	.word	0x20001138
10000fe4:	20001140 	.word	0x20001140

10000fe8 <mutex_init>:
10000fe8:	b510      	push	{r4, lr}
10000fea:	0004      	movs	r4, r0
10000fec:	f7ff fdd0 	bl	10000b90 <next_striped_spin_lock_num>
10000ff0:	0001      	movs	r1, r0
10000ff2:	0020      	movs	r0, r4
10000ff4:	f7ff ffbc 	bl	10000f70 <lock_init>
10000ff8:	23ff      	movs	r3, #255	; 0xff
10000ffa:	7123      	strb	r3, [r4, #4]
10000ffc:	f3bf 8f5f 	dmb	sy
10001000:	bd10      	pop	{r4, pc}
10001002:	46c0      	nop			; (mov r8, r8)

10001004 <critical_section_init>:
10001004:	b510      	push	{r4, lr}
10001006:	0004      	movs	r4, r0
10001008:	2001      	movs	r0, #1
1000100a:	f7ff fdcd 	bl	10000ba8 <spin_lock_claim_unused>
1000100e:	4b04      	ldr	r3, [pc, #16]	; (10001020 <critical_section_init+0x1c>)
10001010:	469c      	mov	ip, r3
10001012:	4460      	add	r0, ip
10001014:	0080      	lsls	r0, r0, #2
10001016:	6020      	str	r0, [r4, #0]
10001018:	f3bf 8f5f 	dmb	sy
1000101c:	bd10      	pop	{r4, pc}
1000101e:	46c0      	nop			; (mov r8, r8)
10001020:	34000040 	.word	0x34000040

10001024 <critical_section_init_with_lock_num>:
10001024:	4b03      	ldr	r3, [pc, #12]	; (10001034 <critical_section_init_with_lock_num+0x10>)
10001026:	469c      	mov	ip, r3
10001028:	4461      	add	r1, ip
1000102a:	0089      	lsls	r1, r1, #2
1000102c:	6001      	str	r1, [r0, #0]
1000102e:	f3bf 8f5f 	dmb	sy
10001032:	4770      	bx	lr
10001034:	34000040 	.word	0x34000040

10001038 <sleep_until_callback>:
10001038:	4b0a      	ldr	r3, [pc, #40]	; (10001064 <sleep_until_callback+0x2c>)
1000103a:	6819      	ldr	r1, [r3, #0]
1000103c:	f3ef 8010 	mrs	r0, PRIMASK
10001040:	b672      	cpsid	i
10001042:	680a      	ldr	r2, [r1, #0]
10001044:	2a00      	cmp	r2, #0
10001046:	d0fc      	beq.n	10001042 <sleep_until_callback+0xa>
10001048:	f3bf 8f5f 	dmb	sy
1000104c:	681b      	ldr	r3, [r3, #0]
1000104e:	f3bf 8f5f 	dmb	sy
10001052:	2200      	movs	r2, #0
10001054:	601a      	str	r2, [r3, #0]
10001056:	f380 8810 	msr	PRIMASK, r0
1000105a:	bf40      	sev
1000105c:	2000      	movs	r0, #0
1000105e:	2100      	movs	r1, #0
10001060:	4770      	bx	lr
10001062:	46c0      	nop			; (mov r8, r8)
10001064:	20001e20 	.word	0x20001e20

10001068 <alarm_pool_irq_handler>:
10001068:	b5f0      	push	{r4, r5, r6, r7, lr}
1000106a:	46de      	mov	lr, fp
1000106c:	4657      	mov	r7, sl
1000106e:	464e      	mov	r6, r9
10001070:	4645      	mov	r5, r8
10001072:	b5e0      	push	{r5, r6, r7, lr}
10001074:	b085      	sub	sp, #20
10001076:	f3ef 8205 	mrs	r2, IPSR
1000107a:	2103      	movs	r1, #3
1000107c:	0013      	movs	r3, r2
1000107e:	400b      	ands	r3, r1
10001080:	009a      	lsls	r2, r3, #2
10001082:	0011      	movs	r1, r2
10001084:	9203      	str	r2, [sp, #12]
10001086:	4ab8      	ldr	r2, [pc, #736]	; (10001368 <alarm_pool_irq_handler+0x300>)
10001088:	5852      	ldr	r2, [r2, r1]
1000108a:	4690      	mov	r8, r2
1000108c:	2201      	movs	r2, #1
1000108e:	409a      	lsls	r2, r3
10001090:	4692      	mov	sl, r2
10001092:	4bb6      	ldr	r3, [pc, #728]	; (1000136c <alarm_pool_irq_handler+0x304>)
10001094:	601a      	str	r2, [r3, #0]
10001096:	4653      	mov	r3, sl
10001098:	48b5      	ldr	r0, [pc, #724]	; (10001370 <alarm_pool_irq_handler+0x308>)
1000109a:	6343      	str	r3, [r0, #52]	; 0x34
1000109c:	4643      	mov	r3, r8
1000109e:	2208      	movs	r2, #8
100010a0:	5e9b      	ldrsh	r3, [r3, r2]
100010a2:	4699      	mov	r9, r3
100010a4:	2b00      	cmp	r3, #0
100010a6:	db00      	blt.n	100010aa <alarm_pool_irq_handler+0x42>
100010a8:	e098      	b.n	100011dc <alarm_pool_irq_handler+0x174>
100010aa:	4643      	mov	r3, r8
100010ac:	889b      	ldrh	r3, [r3, #4]
100010ae:	b21b      	sxth	r3, r3
100010b0:	2b00      	cmp	r3, #0
100010b2:	db58      	blt.n	10001166 <alarm_pool_irq_handler+0xfe>
100010b4:	4643      	mov	r3, r8
100010b6:	691a      	ldr	r2, [r3, #16]
100010b8:	f3ef 8110 	mrs	r1, PRIMASK
100010bc:	b672      	cpsid	i
100010be:	6813      	ldr	r3, [r2, #0]
100010c0:	2b00      	cmp	r3, #0
100010c2:	d0fc      	beq.n	100010be <alarm_pool_irq_handler+0x56>
100010c4:	f3bf 8f5f 	dmb	sy
100010c8:	4643      	mov	r3, r8
100010ca:	889b      	ldrh	r3, [r3, #4]
100010cc:	4642      	mov	r2, r8
100010ce:	b21b      	sxth	r3, r3
100010d0:	469c      	mov	ip, r3
100010d2:	2301      	movs	r3, #1
100010d4:	425b      	negs	r3, r3
100010d6:	8093      	strh	r3, [r2, #4]
100010d8:	6913      	ldr	r3, [r2, #16]
100010da:	f3bf 8f5f 	dmb	sy
100010de:	2200      	movs	r2, #0
100010e0:	601a      	str	r2, [r3, #0]
100010e2:	f381 8810 	msr	PRIMASK, r1
100010e6:	4663      	mov	r3, ip
100010e8:	2b00      	cmp	r3, #0
100010ea:	db3c      	blt.n	10001166 <alarm_pool_irq_handler+0xfe>
100010ec:	4643      	mov	r3, r8
100010ee:	695f      	ldr	r7, [r3, #20]
100010f0:	2308      	movs	r3, #8
100010f2:	4443      	add	r3, r8
100010f4:	4699      	mov	r9, r3
100010f6:	4663      	mov	r3, ip
100010f8:	005e      	lsls	r6, r3, #1
100010fa:	4466      	add	r6, ip
100010fc:	00f6      	lsls	r6, r6, #3
100010fe:	46b3      	mov	fp, r6
10001100:	44bb      	add	fp, r7
10001102:	465b      	mov	r3, fp
10001104:	6898      	ldr	r0, [r3, #8]
10001106:	68d9      	ldr	r1, [r3, #12]
10001108:	4643      	mov	r3, r8
1000110a:	2208      	movs	r2, #8
1000110c:	5e9a      	ldrsh	r2, [r3, r2]
1000110e:	9000      	str	r0, [sp, #0]
10001110:	9101      	str	r1, [sp, #4]
10001112:	2a00      	cmp	r2, #0
10001114:	da00      	bge.n	10001118 <alarm_pool_irq_handler+0xb0>
10001116:	e0c7      	b.n	100012a8 <alarm_pool_irq_handler+0x240>
10001118:	0053      	lsls	r3, r2, #1
1000111a:	189b      	adds	r3, r3, r2
1000111c:	00db      	lsls	r3, r3, #3
1000111e:	18fb      	adds	r3, r7, r3
10001120:	689c      	ldr	r4, [r3, #8]
10001122:	68dd      	ldr	r5, [r3, #12]
10001124:	1b00      	subs	r0, r0, r4
10001126:	41a9      	sbcs	r1, r5
10001128:	2900      	cmp	r1, #0
1000112a:	da0c      	bge.n	10001146 <alarm_pool_irq_handler+0xde>
1000112c:	e0bc      	b.n	100012a8 <alarm_pool_irq_handler+0x240>
1000112e:	0053      	lsls	r3, r2, #1
10001130:	189b      	adds	r3, r3, r2
10001132:	00db      	lsls	r3, r3, #3
10001134:	18fb      	adds	r3, r7, r3
10001136:	9800      	ldr	r0, [sp, #0]
10001138:	9901      	ldr	r1, [sp, #4]
1000113a:	689c      	ldr	r4, [r3, #8]
1000113c:	68dd      	ldr	r5, [r3, #12]
1000113e:	1b00      	subs	r0, r0, r4
10001140:	41a9      	sbcs	r1, r5
10001142:	2900      	cmp	r1, #0
10001144:	db04      	blt.n	10001150 <alarm_pool_irq_handler+0xe8>
10001146:	001e      	movs	r6, r3
10001148:	2300      	movs	r3, #0
1000114a:	5ef2      	ldrsh	r2, [r6, r3]
1000114c:	2a00      	cmp	r2, #0
1000114e:	daee      	bge.n	1000112e <alarm_pool_irq_handler+0xc6>
10001150:	4663      	mov	r3, ip
10001152:	8033      	strh	r3, [r6, #0]
10001154:	465b      	mov	r3, fp
10001156:	2100      	movs	r1, #0
10001158:	5e5b      	ldrsh	r3, [r3, r1]
1000115a:	469c      	mov	ip, r3
1000115c:	465b      	mov	r3, fp
1000115e:	801a      	strh	r2, [r3, #0]
10001160:	4663      	mov	r3, ip
10001162:	2b00      	cmp	r3, #0
10001164:	dac7      	bge.n	100010f6 <alarm_pool_irq_handler+0x8e>
10001166:	4643      	mov	r3, r8
10001168:	799b      	ldrb	r3, [r3, #6]
1000116a:	2b00      	cmp	r3, #0
1000116c:	d000      	beq.n	10001170 <alarm_pool_irq_handler+0x108>
1000116e:	e09d      	b.n	100012ac <alarm_pool_irq_handler+0x244>
10001170:	4643      	mov	r3, r8
10001172:	2008      	movs	r0, #8
10001174:	5e18      	ldrsh	r0, [r3, r0]
10001176:	2800      	cmp	r0, #0
10001178:	db26      	blt.n	100011c8 <alarm_pool_irq_handler+0x160>
1000117a:	4642      	mov	r2, r8
1000117c:	6952      	ldr	r2, [r2, #20]
1000117e:	0043      	lsls	r3, r0, #1
10001180:	4694      	mov	ip, r2
10001182:	181b      	adds	r3, r3, r0
10001184:	00db      	lsls	r3, r3, #3
10001186:	4463      	add	r3, ip
10001188:	689c      	ldr	r4, [r3, #8]
1000118a:	68dd      	ldr	r5, [r3, #12]
1000118c:	1c63      	adds	r3, r4, #1
1000118e:	d100      	bne.n	10001192 <alarm_pool_irq_handler+0x12a>
10001190:	e0bc      	b.n	1000130c <alarm_pool_irq_handler+0x2a4>
10001192:	4877      	ldr	r0, [pc, #476]	; (10001370 <alarm_pool_irq_handler+0x308>)
10001194:	9b03      	ldr	r3, [sp, #12]
10001196:	4684      	mov	ip, r0
10001198:	4463      	add	r3, ip
1000119a:	6a82      	ldr	r2, [r0, #40]	; 0x28
1000119c:	0019      	movs	r1, r3
1000119e:	691b      	ldr	r3, [r3, #16]
100011a0:	1aa6      	subs	r6, r4, r2
100011a2:	1a9b      	subs	r3, r3, r2
100011a4:	429e      	cmp	r6, r3
100011a6:	d317      	bcc.n	100011d8 <alarm_pool_irq_handler+0x170>
100011a8:	4652      	mov	r2, sl
100011aa:	6a03      	ldr	r3, [r0, #32]
100011ac:	421a      	tst	r2, r3
100011ae:	d013      	beq.n	100011d8 <alarm_pool_irq_handler+0x170>
100011b0:	486f      	ldr	r0, [pc, #444]	; (10001370 <alarm_pool_irq_handler+0x308>)
100011b2:	f000 fb41 	bl	10001838 <timer_time_us_64>
100011b6:	1a24      	subs	r4, r4, r0
100011b8:	418d      	sbcs	r5, r1
100011ba:	2d00      	cmp	r5, #0
100011bc:	dc04      	bgt.n	100011c8 <alarm_pool_irq_handler+0x160>
100011be:	d000      	beq.n	100011c2 <alarm_pool_irq_handler+0x15a>
100011c0:	e769      	b.n	10001096 <alarm_pool_irq_handler+0x2e>
100011c2:	2c00      	cmp	r4, #0
100011c4:	d100      	bne.n	100011c8 <alarm_pool_irq_handler+0x160>
100011c6:	e766      	b.n	10001096 <alarm_pool_irq_handler+0x2e>
100011c8:	bf40      	sev
100011ca:	b005      	add	sp, #20
100011cc:	bc3c      	pop	{r2, r3, r4, r5}
100011ce:	4690      	mov	r8, r2
100011d0:	4699      	mov	r9, r3
100011d2:	46a2      	mov	sl, r4
100011d4:	46ab      	mov	fp, r5
100011d6:	bdf0      	pop	{r4, r5, r6, r7, pc}
100011d8:	610c      	str	r4, [r1, #16]
100011da:	e7e9      	b.n	100011b0 <alarm_pool_irq_handler+0x148>
100011dc:	4642      	mov	r2, r8
100011de:	6952      	ldr	r2, [r2, #20]
100011e0:	005b      	lsls	r3, r3, #1
100011e2:	4693      	mov	fp, r2
100011e4:	444b      	add	r3, r9
100011e6:	00db      	lsls	r3, r3, #3
100011e8:	449b      	add	fp, r3
100011ea:	465b      	mov	r3, fp
100011ec:	689e      	ldr	r6, [r3, #8]
100011ee:	68df      	ldr	r7, [r3, #12]
100011f0:	f000 fb22 	bl	10001838 <timer_time_us_64>
100011f4:	1b80      	subs	r0, r0, r6
100011f6:	41b9      	sbcs	r1, r7
100011f8:	2900      	cmp	r1, #0
100011fa:	da00      	bge.n	100011fe <alarm_pool_irq_handler+0x196>
100011fc:	e755      	b.n	100010aa <alarm_pool_irq_handler+0x42>
100011fe:	2f00      	cmp	r7, #0
10001200:	da00      	bge.n	10001204 <alarm_pool_irq_handler+0x19c>
10001202:	e087      	b.n	10001314 <alarm_pool_irq_handler+0x2ac>
10001204:	465a      	mov	r2, fp
10001206:	465b      	mov	r3, fp
10001208:	6954      	ldr	r4, [r2, #20]
1000120a:	691b      	ldr	r3, [r3, #16]
1000120c:	4a59      	ldr	r2, [pc, #356]	; (10001374 <alarm_pool_irq_handler+0x30c>)
1000120e:	4293      	cmp	r3, r2
10001210:	d100      	bne.n	10001214 <alarm_pool_irq_handler+0x1ac>
10001212:	e09b      	b.n	1000134c <alarm_pool_irq_handler+0x2e4>
10001214:	4641      	mov	r1, r8
10001216:	465a      	mov	r2, fp
10001218:	2008      	movs	r0, #8
1000121a:	5e08      	ldrsh	r0, [r1, r0]
1000121c:	8852      	ldrh	r2, [r2, #2]
1000121e:	0400      	lsls	r0, r0, #16
10001220:	0021      	movs	r1, r4
10001222:	4310      	orrs	r0, r2
10001224:	4798      	blx	r3
10001226:	0004      	movs	r4, r0
10001228:	000d      	movs	r5, r1
1000122a:	0023      	movs	r3, r4
1000122c:	432b      	orrs	r3, r5
1000122e:	d071      	beq.n	10001314 <alarm_pool_irq_handler+0x2ac>
10001230:	2d00      	cmp	r5, #0
10001232:	db00      	blt.n	10001236 <alarm_pool_irq_handler+0x1ce>
10001234:	e092      	b.n	1000135c <alarm_pool_irq_handler+0x2f4>
10001236:	1b36      	subs	r6, r6, r4
10001238:	41af      	sbcs	r7, r5
1000123a:	0034      	movs	r4, r6
1000123c:	003d      	movs	r5, r7
1000123e:	465b      	mov	r3, fp
10001240:	609c      	str	r4, [r3, #8]
10001242:	60dd      	str	r5, [r3, #12]
10001244:	2100      	movs	r1, #0
10001246:	5e59      	ldrsh	r1, [r3, r1]
10001248:	2900      	cmp	r1, #0
1000124a:	da00      	bge.n	1000124e <alarm_pool_irq_handler+0x1e6>
1000124c:	e72d      	b.n	100010aa <alarm_pool_irq_handler+0x42>
1000124e:	4643      	mov	r3, r8
10001250:	695b      	ldr	r3, [r3, #20]
10001252:	0022      	movs	r2, r4
10001254:	469c      	mov	ip, r3
10001256:	002b      	movs	r3, r5
10001258:	0048      	lsls	r0, r1, #1
1000125a:	1840      	adds	r0, r0, r1
1000125c:	00c0      	lsls	r0, r0, #3
1000125e:	4460      	add	r0, ip
10001260:	6886      	ldr	r6, [r0, #8]
10001262:	68c7      	ldr	r7, [r0, #12]
10001264:	1b92      	subs	r2, r2, r6
10001266:	41bb      	sbcs	r3, r7
10001268:	2b00      	cmp	r3, #0
1000126a:	da00      	bge.n	1000126e <alarm_pool_irq_handler+0x206>
1000126c:	e71d      	b.n	100010aa <alarm_pool_irq_handler+0x42>
1000126e:	4643      	mov	r3, r8
10001270:	4666      	mov	r6, ip
10001272:	8119      	strh	r1, [r3, #8]
10001274:	0002      	movs	r2, r0
10001276:	9400      	str	r4, [sp, #0]
10001278:	9501      	str	r5, [sp, #4]
1000127a:	e00c      	b.n	10001296 <alarm_pool_irq_handler+0x22e>
1000127c:	007b      	lsls	r3, r7, #1
1000127e:	19db      	adds	r3, r3, r7
10001280:	00db      	lsls	r3, r3, #3
10001282:	18f3      	adds	r3, r6, r3
10001284:	9800      	ldr	r0, [sp, #0]
10001286:	9901      	ldr	r1, [sp, #4]
10001288:	689c      	ldr	r4, [r3, #8]
1000128a:	68dd      	ldr	r5, [r3, #12]
1000128c:	1b00      	subs	r0, r0, r4
1000128e:	41a9      	sbcs	r1, r5
10001290:	2900      	cmp	r1, #0
10001292:	db04      	blt.n	1000129e <alarm_pool_irq_handler+0x236>
10001294:	001a      	movs	r2, r3
10001296:	2300      	movs	r3, #0
10001298:	5ed7      	ldrsh	r7, [r2, r3]
1000129a:	2f00      	cmp	r7, #0
1000129c:	daee      	bge.n	1000127c <alarm_pool_irq_handler+0x214>
1000129e:	465b      	mov	r3, fp
100012a0:	801f      	strh	r7, [r3, #0]
100012a2:	464b      	mov	r3, r9
100012a4:	8013      	strh	r3, [r2, #0]
100012a6:	e700      	b.n	100010aa <alarm_pool_irq_handler+0x42>
100012a8:	464e      	mov	r6, r9
100012aa:	e751      	b.n	10001150 <alarm_pool_irq_handler+0xe8>
100012ac:	2300      	movs	r3, #0
100012ae:	4642      	mov	r2, r8
100012b0:	7193      	strb	r3, [r2, #6]
100012b2:	4643      	mov	r3, r8
100012b4:	4646      	mov	r6, r8
100012b6:	2208      	movs	r2, #8
100012b8:	5e9a      	ldrsh	r2, [r3, r2]
100012ba:	3608      	adds	r6, #8
100012bc:	1c53      	adds	r3, r2, #1
100012be:	d100      	bne.n	100012c2 <alarm_pool_irq_handler+0x25a>
100012c0:	e782      	b.n	100011c8 <alarm_pool_irq_handler+0x160>
100012c2:	4643      	mov	r3, r8
100012c4:	4647      	mov	r7, r8
100012c6:	695d      	ldr	r5, [r3, #20]
100012c8:	4694      	mov	ip, r2
100012ca:	e003      	b.n	100012d4 <alarm_pool_irq_handler+0x26c>
100012cc:	001e      	movs	r6, r3
100012ce:	0022      	movs	r2, r4
100012d0:	1c63      	adds	r3, r4, #1
100012d2:	d018      	beq.n	10001306 <alarm_pool_irq_handler+0x29e>
100012d4:	0053      	lsls	r3, r2, #1
100012d6:	189b      	adds	r3, r3, r2
100012d8:	00db      	lsls	r3, r3, #3
100012da:	18eb      	adds	r3, r5, r3
100012dc:	2100      	movs	r1, #0
100012de:	5e5c      	ldrsh	r4, [r3, r1]
100012e0:	8859      	ldrh	r1, [r3, #2]
100012e2:	b209      	sxth	r1, r1
100012e4:	2900      	cmp	r1, #0
100012e6:	daf1      	bge.n	100012cc <alarm_pool_irq_handler+0x264>
100012e8:	2001      	movs	r0, #1
100012ea:	4240      	negs	r0, r0
100012ec:	17c1      	asrs	r1, r0, #31
100012ee:	6098      	str	r0, [r3, #8]
100012f0:	60d9      	str	r1, [r3, #12]
100012f2:	4594      	cmp	ip, r2
100012f4:	d0eb      	beq.n	100012ce <alarm_pool_irq_handler+0x266>
100012f6:	8034      	strh	r4, [r6, #0]
100012f8:	8939      	ldrh	r1, [r7, #8]
100012fa:	4694      	mov	ip, r2
100012fc:	8019      	strh	r1, [r3, #0]
100012fe:	813a      	strh	r2, [r7, #8]
10001300:	0022      	movs	r2, r4
10001302:	1c63      	adds	r3, r4, #1
10001304:	d1e6      	bne.n	100012d4 <alarm_pool_irq_handler+0x26c>
10001306:	46b8      	mov	r8, r7
10001308:	4660      	mov	r0, ip
1000130a:	e734      	b.n	10001176 <alarm_pool_irq_handler+0x10e>
1000130c:	1c6b      	adds	r3, r5, #1
1000130e:	d000      	beq.n	10001312 <alarm_pool_irq_handler+0x2aa>
10001310:	e73f      	b.n	10001192 <alarm_pool_irq_handler+0x12a>
10001312:	e74d      	b.n	100011b0 <alarm_pool_irq_handler+0x148>
10001314:	465b      	mov	r3, fp
10001316:	4642      	mov	r2, r8
10001318:	881b      	ldrh	r3, [r3, #0]
1000131a:	8113      	strh	r3, [r2, #8]
1000131c:	6912      	ldr	r2, [r2, #16]
1000131e:	f3ef 8110 	mrs	r1, PRIMASK
10001322:	b672      	cpsid	i
10001324:	6813      	ldr	r3, [r2, #0]
10001326:	2b00      	cmp	r3, #0
10001328:	d0fc      	beq.n	10001324 <alarm_pool_irq_handler+0x2bc>
1000132a:	f3bf 8f5f 	dmb	sy
1000132e:	4643      	mov	r3, r8
10001330:	465a      	mov	r2, fp
10001332:	885b      	ldrh	r3, [r3, #2]
10001334:	8013      	strh	r3, [r2, #0]
10001336:	4643      	mov	r3, r8
10001338:	464a      	mov	r2, r9
1000133a:	805a      	strh	r2, [r3, #2]
1000133c:	691b      	ldr	r3, [r3, #16]
1000133e:	f3bf 8f5f 	dmb	sy
10001342:	2200      	movs	r2, #0
10001344:	601a      	str	r2, [r3, #0]
10001346:	f381 8810 	msr	PRIMASK, r1
1000134a:	e6ae      	b.n	100010aa <alarm_pool_irq_handler+0x42>
1000134c:	0020      	movs	r0, r4
1000134e:	6923      	ldr	r3, [r4, #16]
10001350:	4798      	blx	r3
10001352:	2800      	cmp	r0, #0
10001354:	d0de      	beq.n	10001314 <alarm_pool_irq_handler+0x2ac>
10001356:	6865      	ldr	r5, [r4, #4]
10001358:	6824      	ldr	r4, [r4, #0]
1000135a:	e766      	b.n	1000122a <alarm_pool_irq_handler+0x1c2>
1000135c:	4804      	ldr	r0, [pc, #16]	; (10001370 <alarm_pool_irq_handler+0x308>)
1000135e:	f000 fa6b 	bl	10001838 <timer_time_us_64>
10001362:	1824      	adds	r4, r4, r0
10001364:	414d      	adcs	r5, r1
10001366:	e76a      	b.n	1000123e <alarm_pool_irq_handler+0x1d6>
10001368:	20001e04 	.word	0x20001e04
1000136c:	4005703c 	.word	0x4005703c
10001370:	40054000 	.word	0x40054000
10001374:	10001069 	.word	0x10001069

10001378 <runtime_init_default_alarm_pool>:
10001378:	b570      	push	{r4, r5, r6, lr}
1000137a:	4c2e      	ldr	r4, [pc, #184]	; (10001434 <runtime_init_default_alarm_pool+0xbc>)
1000137c:	6925      	ldr	r5, [r4, #16]
1000137e:	2d00      	cmp	r5, #0
10001380:	d004      	beq.n	1000138c <runtime_init_default_alarm_pool+0x14>
10001382:	210a      	movs	r1, #10
10001384:	482c      	ldr	r0, [pc, #176]	; (10001438 <runtime_init_default_alarm_pool+0xc0>)
10001386:	f7ff fdf3 	bl	10000f70 <lock_init>
1000138a:	bd70      	pop	{r4, r5, r6, pc}
1000138c:	4e2b      	ldr	r6, [pc, #172]	; (1000143c <runtime_init_default_alarm_pool+0xc4>)
1000138e:	2103      	movs	r1, #3
10001390:	0030      	movs	r0, r6
10001392:	f000 fa47 	bl	10001824 <timer_hardware_alarm_claim>
10001396:	60e6      	str	r6, [r4, #12]
10001398:	f7ff fbfa 	bl	10000b90 <next_striped_spin_lock_num>
1000139c:	4b28      	ldr	r3, [pc, #160]	; (10001440 <runtime_init_default_alarm_pool+0xc8>)
1000139e:	2103      	movs	r1, #3
100013a0:	469c      	mov	ip, r3
100013a2:	2310      	movs	r3, #16
100013a4:	8163      	strh	r3, [r4, #10]
100013a6:	23d0      	movs	r3, #208	; 0xd0
100013a8:	7021      	strb	r1, [r4, #0]
100013aa:	061b      	lsls	r3, r3, #24
100013ac:	681b      	ldr	r3, [r3, #0]
100013ae:	2201      	movs	r2, #1
100013b0:	7063      	strb	r3, [r4, #1]
100013b2:	230f      	movs	r3, #15
100013b4:	4460      	add	r0, ip
100013b6:	0080      	lsls	r0, r0, #2
100013b8:	6120      	str	r0, [r4, #16]
100013ba:	2002      	movs	r0, #2
100013bc:	8063      	strh	r3, [r4, #2]
100013be:	6963      	ldr	r3, [r4, #20]
100013c0:	4252      	negs	r2, r2
100013c2:	8122      	strh	r2, [r4, #8]
100013c4:	80a2      	strh	r2, [r4, #4]
100013c6:	801a      	strh	r2, [r3, #0]
100013c8:	3202      	adds	r2, #2
100013ca:	861a      	strh	r2, [r3, #48]	; 0x30
100013cc:	3247      	adds	r2, #71	; 0x47
100013ce:	831d      	strh	r5, [r3, #24]
100013d0:	5298      	strh	r0, [r3, r2]
100013d2:	3218      	adds	r2, #24
100013d4:	5299      	strh	r1, [r3, r2]
100013d6:	3218      	adds	r2, #24
100013d8:	3101      	adds	r1, #1
100013da:	5299      	strh	r1, [r3, r2]
100013dc:	3218      	adds	r2, #24
100013de:	3101      	adds	r1, #1
100013e0:	5299      	strh	r1, [r3, r2]
100013e2:	3218      	adds	r2, #24
100013e4:	3101      	adds	r1, #1
100013e6:	5299      	strh	r1, [r3, r2]
100013e8:	3218      	adds	r2, #24
100013ea:	3101      	adds	r1, #1
100013ec:	5299      	strh	r1, [r3, r2]
100013ee:	3508      	adds	r5, #8
100013f0:	3218      	adds	r2, #24
100013f2:	529d      	strh	r5, [r3, r2]
100013f4:	3102      	adds	r1, #2
100013f6:	3218      	adds	r2, #24
100013f8:	5299      	strh	r1, [r3, r2]
100013fa:	3218      	adds	r2, #24
100013fc:	3101      	adds	r1, #1
100013fe:	5299      	strh	r1, [r3, r2]
10001400:	3218      	adds	r2, #24
10001402:	3101      	adds	r1, #1
10001404:	5299      	strh	r1, [r3, r2]
10001406:	3218      	adds	r2, #24
10001408:	3101      	adds	r1, #1
1000140a:	5299      	strh	r1, [r3, r2]
1000140c:	3218      	adds	r2, #24
1000140e:	3101      	adds	r1, #1
10001410:	5299      	strh	r1, [r3, r2]
10001412:	3218      	adds	r2, #24
10001414:	3101      	adds	r1, #1
10001416:	5299      	strh	r1, [r3, r2]
10001418:	4b0a      	ldr	r3, [pc, #40]	; (10001444 <runtime_init_default_alarm_pool+0xcc>)
1000141a:	490b      	ldr	r1, [pc, #44]	; (10001448 <runtime_init_default_alarm_pool+0xd0>)
1000141c:	60dc      	str	r4, [r3, #12]
1000141e:	3001      	adds	r0, #1
10001420:	6235      	str	r5, [r6, #32]
10001422:	f7ff fc29 	bl	10000c78 <irq_set_exclusive_handler>
10001426:	2101      	movs	r1, #1
10001428:	2003      	movs	r0, #3
1000142a:	f7ff fbed 	bl	10000c08 <irq_set_enabled>
1000142e:	4b07      	ldr	r3, [pc, #28]	; (1000144c <runtime_init_default_alarm_pool+0xd4>)
10001430:	601d      	str	r5, [r3, #0]
10001432:	e7a6      	b.n	10001382 <runtime_init_default_alarm_pool+0xa>
10001434:	200010c8 	.word	0x200010c8
10001438:	20001e20 	.word	0x20001e20
1000143c:	40054000 	.word	0x40054000
10001440:	34000040 	.word	0x34000040
10001444:	20001e04 	.word	0x20001e04
10001448:	10001069 	.word	0x10001069
1000144c:	40056038 	.word	0x40056038

10001450 <alarm_pool_get_default>:
10001450:	4800      	ldr	r0, [pc, #0]	; (10001454 <alarm_pool_get_default+0x4>)
10001452:	4770      	bx	lr
10001454:	200010c8 	.word	0x200010c8

10001458 <alarm_pool_add_alarm_at>:
10001458:	b5f8      	push	{r3, r4, r5, r6, r7, lr}
1000145a:	001f      	movs	r7, r3
1000145c:	ab08      	add	r3, sp, #32
1000145e:	781b      	ldrb	r3, [r3, #0]
10001460:	0004      	movs	r4, r0
10001462:	0016      	movs	r6, r2
10001464:	2b00      	cmp	r3, #0
10001466:	d107      	bne.n	10001478 <alarm_pool_add_alarm_at+0x20>
10001468:	f000 f9f0 	bl	1000184c <time_us_64>
1000146c:	0032      	movs	r2, r6
1000146e:	003b      	movs	r3, r7
10001470:	1a12      	subs	r2, r2, r0
10001472:	418b      	sbcs	r3, r1
10001474:	2b00      	cmp	r3, #0
10001476:	db4b      	blt.n	10001510 <alarm_pool_add_alarm_at+0xb8>
10001478:	6922      	ldr	r2, [r4, #16]
1000147a:	f3ef 8010 	mrs	r0, PRIMASK
1000147e:	b672      	cpsid	i
10001480:	6813      	ldr	r3, [r2, #0]
10001482:	2b00      	cmp	r3, #0
10001484:	d0fc      	beq.n	10001480 <alarm_pool_add_alarm_at+0x28>
10001486:	f3bf 8f5f 	dmb	sy
1000148a:	2302      	movs	r3, #2
1000148c:	5ee1      	ldrsh	r1, [r4, r3]
1000148e:	6963      	ldr	r3, [r4, #20]
10001490:	004a      	lsls	r2, r1, #1
10001492:	469c      	mov	ip, r3
10001494:	1852      	adds	r2, r2, r1
10001496:	00d2      	lsls	r2, r2, #3
10001498:	4462      	add	r2, ip
1000149a:	2900      	cmp	r1, #0
1000149c:	db01      	blt.n	100014a2 <alarm_pool_add_alarm_at+0x4a>
1000149e:	8813      	ldrh	r3, [r2, #0]
100014a0:	8063      	strh	r3, [r4, #2]
100014a2:	6923      	ldr	r3, [r4, #16]
100014a4:	f3bf 8f5f 	dmb	sy
100014a8:	2500      	movs	r5, #0
100014aa:	601d      	str	r5, [r3, #0]
100014ac:	f380 8810 	msr	PRIMASK, r0
100014b0:	2900      	cmp	r1, #0
100014b2:	db2f      	blt.n	10001514 <alarm_pool_add_alarm_at+0xbc>
100014b4:	9b06      	ldr	r3, [sp, #24]
100014b6:	6096      	str	r6, [r2, #8]
100014b8:	60d7      	str	r7, [r2, #12]
100014ba:	6113      	str	r3, [r2, #16]
100014bc:	9b07      	ldr	r3, [sp, #28]
100014be:	6153      	str	r3, [r2, #20]
100014c0:	8853      	ldrh	r3, [r2, #2]
100014c2:	3301      	adds	r3, #1
100014c4:	045b      	lsls	r3, r3, #17
100014c6:	0c5b      	lsrs	r3, r3, #17
100014c8:	1e18      	subs	r0, r3, #0
100014ca:	d01e      	beq.n	1000150a <alarm_pool_add_alarm_at+0xb2>
100014cc:	8053      	strh	r3, [r2, #2]
100014ce:	040b      	lsls	r3, r1, #16
100014d0:	4318      	orrs	r0, r3
100014d2:	6925      	ldr	r5, [r4, #16]
100014d4:	f3ef 8610 	mrs	r6, PRIMASK
100014d8:	b672      	cpsid	i
100014da:	682b      	ldr	r3, [r5, #0]
100014dc:	2b00      	cmp	r3, #0
100014de:	d0fc      	beq.n	100014da <alarm_pool_add_alarm_at+0x82>
100014e0:	f3bf 8f5f 	dmb	sy
100014e4:	88a3      	ldrh	r3, [r4, #4]
100014e6:	8013      	strh	r3, [r2, #0]
100014e8:	80a1      	strh	r1, [r4, #4]
100014ea:	6923      	ldr	r3, [r4, #16]
100014ec:	f3bf 8f5f 	dmb	sy
100014f0:	2200      	movs	r2, #0
100014f2:	601a      	str	r2, [r3, #0]
100014f4:	f386 8810 	msr	PRIMASK, r6
100014f8:	4908      	ldr	r1, [pc, #32]	; (1000151c <alarm_pool_add_alarm_at+0xc4>)
100014fa:	7823      	ldrb	r3, [r4, #0]
100014fc:	3201      	adds	r2, #1
100014fe:	468c      	mov	ip, r1
10001500:	409a      	lsls	r2, r3
10001502:	68e3      	ldr	r3, [r4, #12]
10001504:	4463      	add	r3, ip
10001506:	601a      	str	r2, [r3, #0]
10001508:	bdf8      	pop	{r3, r4, r5, r6, r7, pc}
1000150a:	2001      	movs	r0, #1
1000150c:	2301      	movs	r3, #1
1000150e:	e7dd      	b.n	100014cc <alarm_pool_add_alarm_at+0x74>
10001510:	2000      	movs	r0, #0
10001512:	e7f9      	b.n	10001508 <alarm_pool_add_alarm_at+0xb0>
10001514:	2001      	movs	r0, #1
10001516:	4240      	negs	r0, r0
10001518:	e7f6      	b.n	10001508 <alarm_pool_add_alarm_at+0xb0>
1000151a:	46c0      	nop			; (mov r8, r8)
1000151c:	0000203c 	.word	0x0000203c

10001520 <alarm_pool_add_alarm_at_force_in_context>:
10001520:	b5f0      	push	{r4, r5, r6, r7, lr}
10001522:	0001      	movs	r1, r0
10001524:	6904      	ldr	r4, [r0, #16]
10001526:	f3ef 8610 	mrs	r6, PRIMASK
1000152a:	b672      	cpsid	i
1000152c:	6820      	ldr	r0, [r4, #0]
1000152e:	2800      	cmp	r0, #0
10001530:	d0fc      	beq.n	1000152c <alarm_pool_add_alarm_at_force_in_context+0xc>
10001532:	f3bf 8f5f 	dmb	sy
10001536:	2002      	movs	r0, #2
10001538:	5e0d      	ldrsh	r5, [r1, r0]
1000153a:	6948      	ldr	r0, [r1, #20]
1000153c:	006c      	lsls	r4, r5, #1
1000153e:	4684      	mov	ip, r0
10001540:	1964      	adds	r4, r4, r5
10001542:	00e4      	lsls	r4, r4, #3
10001544:	4464      	add	r4, ip
10001546:	2d00      	cmp	r5, #0
10001548:	db01      	blt.n	1000154e <alarm_pool_add_alarm_at_force_in_context+0x2e>
1000154a:	8820      	ldrh	r0, [r4, #0]
1000154c:	8048      	strh	r0, [r1, #2]
1000154e:	6908      	ldr	r0, [r1, #16]
10001550:	f3bf 8f5f 	dmb	sy
10001554:	2700      	movs	r7, #0
10001556:	6007      	str	r7, [r0, #0]
10001558:	f386 8810 	msr	PRIMASK, r6
1000155c:	2d00      	cmp	r5, #0
1000155e:	db2d      	blt.n	100015bc <alarm_pool_add_alarm_at_force_in_context+0x9c>
10001560:	60a2      	str	r2, [r4, #8]
10001562:	60e3      	str	r3, [r4, #12]
10001564:	8863      	ldrh	r3, [r4, #2]
10001566:	9805      	ldr	r0, [sp, #20]
10001568:	3301      	adds	r3, #1
1000156a:	6120      	str	r0, [r4, #16]
1000156c:	045b      	lsls	r3, r3, #17
1000156e:	9806      	ldr	r0, [sp, #24]
10001570:	0c5b      	lsrs	r3, r3, #17
10001572:	6160      	str	r0, [r4, #20]
10001574:	1e1a      	subs	r2, r3, #0
10001576:	d01e      	beq.n	100015b6 <alarm_pool_add_alarm_at_force_in_context+0x96>
10001578:	0428      	lsls	r0, r5, #16
1000157a:	4310      	orrs	r0, r2
1000157c:	8063      	strh	r3, [r4, #2]
1000157e:	690a      	ldr	r2, [r1, #16]
10001580:	f3ef 8610 	mrs	r6, PRIMASK
10001584:	b672      	cpsid	i
10001586:	6813      	ldr	r3, [r2, #0]
10001588:	2b00      	cmp	r3, #0
1000158a:	d0fc      	beq.n	10001586 <alarm_pool_add_alarm_at_force_in_context+0x66>
1000158c:	f3bf 8f5f 	dmb	sy
10001590:	888b      	ldrh	r3, [r1, #4]
10001592:	8023      	strh	r3, [r4, #0]
10001594:	808d      	strh	r5, [r1, #4]
10001596:	690b      	ldr	r3, [r1, #16]
10001598:	f3bf 8f5f 	dmb	sy
1000159c:	2200      	movs	r2, #0
1000159e:	601a      	str	r2, [r3, #0]
100015a0:	f386 8810 	msr	PRIMASK, r6
100015a4:	780b      	ldrb	r3, [r1, #0]
100015a6:	3201      	adds	r2, #1
100015a8:	409a      	lsls	r2, r3
100015aa:	68cb      	ldr	r3, [r1, #12]
100015ac:	4905      	ldr	r1, [pc, #20]	; (100015c4 <alarm_pool_add_alarm_at_force_in_context+0xa4>)
100015ae:	468c      	mov	ip, r1
100015b0:	4463      	add	r3, ip
100015b2:	601a      	str	r2, [r3, #0]
100015b4:	bdf0      	pop	{r4, r5, r6, r7, pc}
100015b6:	2201      	movs	r2, #1
100015b8:	2301      	movs	r3, #1
100015ba:	e7dd      	b.n	10001578 <alarm_pool_add_alarm_at_force_in_context+0x58>
100015bc:	2001      	movs	r0, #1
100015be:	4240      	negs	r0, r0
100015c0:	e7f8      	b.n	100015b4 <alarm_pool_add_alarm_at_force_in_context+0x94>
100015c2:	46c0      	nop			; (mov r8, r8)
100015c4:	0000203c 	.word	0x0000203c

100015c8 <alarm_pool_core_num>:
100015c8:	7840      	ldrb	r0, [r0, #1]
100015ca:	4770      	bx	lr

100015cc <sleep_ms>:
100015cc:	b5f0      	push	{r4, r5, r6, r7, lr}
100015ce:	46c6      	mov	lr, r8
100015d0:	b500      	push	{lr}
100015d2:	b082      	sub	sp, #8
100015d4:	0006      	movs	r6, r0
100015d6:	f000 f939 	bl	1000184c <time_us_64>
100015da:	22fa      	movs	r2, #250	; 0xfa
100015dc:	0004      	movs	r4, r0
100015de:	000d      	movs	r5, r1
100015e0:	0092      	lsls	r2, r2, #2
100015e2:	2300      	movs	r3, #0
100015e4:	0030      	movs	r0, r6
100015e6:	2100      	movs	r1, #0
100015e8:	f000 fd84 	bl	100020f4 <__wrap___aeabi_lmul>
100015ec:	1824      	adds	r4, r4, r0
100015ee:	414d      	adcs	r5, r1
100015f0:	2d00      	cmp	r5, #0
100015f2:	db4e      	blt.n	10001692 <sleep_ms+0xc6>
100015f4:	2606      	movs	r6, #6
100015f6:	4276      	negs	r6, r6
100015f8:	17f7      	asrs	r7, r6, #31
100015fa:	1936      	adds	r6, r6, r4
100015fc:	416f      	adcs	r7, r5
100015fe:	42af      	cmp	r7, r5
10001600:	d94e      	bls.n	100016a0 <sleep_ms+0xd4>
10001602:	2600      	movs	r6, #0
10001604:	2700      	movs	r7, #0
10001606:	f000 f921 	bl	1000184c <time_us_64>
1000160a:	0032      	movs	r2, r6
1000160c:	003b      	movs	r3, r7
1000160e:	1a12      	subs	r2, r2, r0
10001610:	418b      	sbcs	r3, r1
10001612:	2b00      	cmp	r3, #0
10001614:	dd38      	ble.n	10001688 <sleep_ms+0xbc>
10001616:	f000 f919 	bl	1000184c <time_us_64>
1000161a:	0032      	movs	r2, r6
1000161c:	003b      	movs	r3, r7
1000161e:	1a12      	subs	r2, r2, r0
10001620:	418b      	sbcs	r3, r1
10001622:	2b00      	cmp	r3, #0
10001624:	db12      	blt.n	1000164c <sleep_ms+0x80>
10001626:	2300      	movs	r3, #0
10001628:	9301      	str	r3, [sp, #4]
1000162a:	4b20      	ldr	r3, [pc, #128]	; (100016ac <sleep_ms+0xe0>)
1000162c:	0032      	movs	r2, r6
1000162e:	9300      	str	r3, [sp, #0]
10001630:	481f      	ldr	r0, [pc, #124]	; (100016b0 <sleep_ms+0xe4>)
10001632:	003b      	movs	r3, r7
10001634:	f7ff ff74 	bl	10001520 <alarm_pool_add_alarm_at_force_in_context>
10001638:	2800      	cmp	r0, #0
1000163a:	da07      	bge.n	1000164c <sleep_ms+0x80>
1000163c:	0020      	movs	r0, r4
1000163e:	0029      	movs	r1, r5
10001640:	f000 f940 	bl	100018c4 <busy_wait_until>
10001644:	b002      	add	sp, #8
10001646:	bc04      	pop	{r2}
10001648:	4690      	mov	r8, r2
1000164a:	bdf0      	pop	{r4, r5, r6, r7, pc}
1000164c:	46b0      	mov	r8, r6
1000164e:	2600      	movs	r6, #0
10001650:	46bc      	mov	ip, r7
10001652:	4a18      	ldr	r2, [pc, #96]	; (100016b4 <sleep_ms+0xe8>)
10001654:	4f18      	ldr	r7, [pc, #96]	; (100016b8 <sleep_ms+0xec>)
10001656:	6a7b      	ldr	r3, [r7, #36]	; 0x24
10001658:	459c      	cmp	ip, r3
1000165a:	d804      	bhi.n	10001666 <sleep_ms+0x9a>
1000165c:	6ab9      	ldr	r1, [r7, #40]	; 0x28
1000165e:	4588      	cmp	r8, r1
10001660:	d9ec      	bls.n	1000163c <sleep_ms+0x70>
10001662:	459c      	cmp	ip, r3
10001664:	d1ea      	bne.n	1000163c <sleep_ms+0x70>
10001666:	6811      	ldr	r1, [r2, #0]
10001668:	f3ef 8010 	mrs	r0, PRIMASK
1000166c:	b672      	cpsid	i
1000166e:	680b      	ldr	r3, [r1, #0]
10001670:	2b00      	cmp	r3, #0
10001672:	d0fc      	beq.n	1000166e <sleep_ms+0xa2>
10001674:	f3bf 8f5f 	dmb	sy
10001678:	6813      	ldr	r3, [r2, #0]
1000167a:	f3bf 8f5f 	dmb	sy
1000167e:	601e      	str	r6, [r3, #0]
10001680:	f380 8810 	msr	PRIMASK, r0
10001684:	bf20      	wfe
10001686:	e7e6      	b.n	10001656 <sleep_ms+0x8a>
10001688:	2b00      	cmp	r3, #0
1000168a:	d1d7      	bne.n	1000163c <sleep_ms+0x70>
1000168c:	2a00      	cmp	r2, #0
1000168e:	d1c2      	bne.n	10001616 <sleep_ms+0x4a>
10001690:	e7d4      	b.n	1000163c <sleep_ms+0x70>
10001692:	2401      	movs	r4, #1
10001694:	2607      	movs	r6, #7
10001696:	4264      	negs	r4, r4
10001698:	4d08      	ldr	r5, [pc, #32]	; (100016bc <sleep_ms+0xf0>)
1000169a:	4276      	negs	r6, r6
1000169c:	4f07      	ldr	r7, [pc, #28]	; (100016bc <sleep_ms+0xf0>)
1000169e:	e7b2      	b.n	10001606 <sleep_ms+0x3a>
100016a0:	42af      	cmp	r7, r5
100016a2:	d1b0      	bne.n	10001606 <sleep_ms+0x3a>
100016a4:	42a6      	cmp	r6, r4
100016a6:	d8ac      	bhi.n	10001602 <sleep_ms+0x36>
100016a8:	e7ad      	b.n	10001606 <sleep_ms+0x3a>
100016aa:	46c0      	nop			; (mov r8, r8)
100016ac:	10001039 	.word	0x10001039
100016b0:	200010c8 	.word	0x200010c8
100016b4:	20001e20 	.word	0x20001e20
100016b8:	40054000 	.word	0x40054000
100016bc:	7fffffff 	.word	0x7fffffff

100016c0 <best_effort_wfe_or_timeout>:
100016c0:	b5f0      	push	{r4, r5, r6, r7, lr}
100016c2:	46d6      	mov	lr, sl
100016c4:	464f      	mov	r7, r9
100016c6:	4646      	mov	r6, r8
100016c8:	b5c0      	push	{r6, r7, lr}
100016ca:	0004      	movs	r4, r0
100016cc:	b082      	sub	sp, #8
100016ce:	000d      	movs	r5, r1
100016d0:	f3ef 8605 	mrs	r6, IPSR
100016d4:	4688      	mov	r8, r1
100016d6:	2e00      	cmp	r6, #0
100016d8:	d012      	beq.n	10001700 <best_effort_wfe_or_timeout+0x40>
100016da:	4a4e      	ldr	r2, [pc, #312]	; (10001814 <best_effort_wfe_or_timeout+0x154>)
100016dc:	2000      	movs	r0, #0
100016de:	6a53      	ldr	r3, [r2, #36]	; 0x24
100016e0:	428b      	cmp	r3, r1
100016e2:	d307      	bcc.n	100016f4 <best_effort_wfe_or_timeout+0x34>
100016e4:	6a92      	ldr	r2, [r2, #40]	; 0x28
100016e6:	3001      	adds	r0, #1
100016e8:	42a2      	cmp	r2, r4
100016ea:	d203      	bcs.n	100016f4 <best_effort_wfe_or_timeout+0x34>
100016ec:	1b5b      	subs	r3, r3, r5
100016ee:	1e58      	subs	r0, r3, #1
100016f0:	4183      	sbcs	r3, r0
100016f2:	b2d8      	uxtb	r0, r3
100016f4:	b002      	add	sp, #8
100016f6:	bc1c      	pop	{r2, r3, r4}
100016f8:	4690      	mov	r8, r2
100016fa:	4699      	mov	r9, r3
100016fc:	46a2      	mov	sl, r4
100016fe:	bdf0      	pop	{r4, r5, r6, r7, pc}
10001700:	4b45      	ldr	r3, [pc, #276]	; (10001818 <best_effort_wfe_or_timeout+0x158>)
10001702:	4699      	mov	r9, r3
10001704:	68db      	ldr	r3, [r3, #12]
10001706:	469a      	mov	sl, r3
10001708:	464b      	mov	r3, r9
1000170a:	4650      	mov	r0, sl
1000170c:	781f      	ldrb	r7, [r3, #0]
1000170e:	f000 f893 	bl	10001838 <timer_time_us_64>
10001712:	4653      	mov	r3, sl
10001714:	3704      	adds	r7, #4
10001716:	00bf      	lsls	r7, r7, #2
10001718:	58fb      	ldr	r3, [r7, r3]
1000171a:	0022      	movs	r2, r4
1000171c:	1a1f      	subs	r7, r3, r0
1000171e:	002b      	movs	r3, r5
10001720:	1a12      	subs	r2, r2, r0
10001722:	418b      	sbcs	r3, r1
10001724:	429e      	cmp	r6, r3
10001726:	dc09      	bgt.n	1000173c <best_effort_wfe_or_timeout+0x7c>
10001728:	d006      	beq.n	10001738 <best_effort_wfe_or_timeout+0x78>
1000172a:	bf20      	wfe
1000172c:	4a39      	ldr	r2, [pc, #228]	; (10001814 <best_effort_wfe_or_timeout+0x154>)
1000172e:	2000      	movs	r0, #0
10001730:	6a53      	ldr	r3, [r2, #36]	; 0x24
10001732:	4543      	cmp	r3, r8
10001734:	d3de      	bcc.n	100016f4 <best_effort_wfe_or_timeout+0x34>
10001736:	e7d5      	b.n	100016e4 <best_effort_wfe_or_timeout+0x24>
10001738:	4297      	cmp	r7, r2
1000173a:	d9f6      	bls.n	1000172a <best_effort_wfe_or_timeout+0x6a>
1000173c:	f000 f886 	bl	1000184c <time_us_64>
10001740:	0022      	movs	r2, r4
10001742:	002b      	movs	r3, r5
10001744:	1a12      	subs	r2, r2, r0
10001746:	418b      	sbcs	r3, r1
10001748:	2b00      	cmp	r3, #0
1000174a:	db3f      	blt.n	100017cc <best_effort_wfe_or_timeout+0x10c>
1000174c:	2300      	movs	r3, #0
1000174e:	9301      	str	r3, [sp, #4]
10001750:	4b32      	ldr	r3, [pc, #200]	; (1000181c <best_effort_wfe_or_timeout+0x15c>)
10001752:	0022      	movs	r2, r4
10001754:	9300      	str	r3, [sp, #0]
10001756:	4648      	mov	r0, r9
10001758:	002b      	movs	r3, r5
1000175a:	f7ff fee1 	bl	10001520 <alarm_pool_add_alarm_at_force_in_context>
1000175e:	2800      	cmp	r0, #0
10001760:	dd34      	ble.n	100017cc <best_effort_wfe_or_timeout+0x10c>
10001762:	4b2c      	ldr	r3, [pc, #176]	; (10001814 <best_effort_wfe_or_timeout+0x154>)
10001764:	6a5a      	ldr	r2, [r3, #36]	; 0x24
10001766:	4542      	cmp	r2, r8
10001768:	d22a      	bcs.n	100017c0 <best_effort_wfe_or_timeout+0x100>
1000176a:	bf20      	wfe
1000176c:	464b      	mov	r3, r9
1000176e:	895b      	ldrh	r3, [r3, #10]
10001770:	1402      	asrs	r2, r0, #16
10001772:	429a      	cmp	r2, r3
10001774:	da1d      	bge.n	100017b2 <best_effort_wfe_or_timeout+0xf2>
10001776:	0053      	lsls	r3, r2, #1
10001778:	189b      	adds	r3, r3, r2
1000177a:	464a      	mov	r2, r9
1000177c:	6952      	ldr	r2, [r2, #20]
1000177e:	00db      	lsls	r3, r3, #3
10001780:	4694      	mov	ip, r2
10001782:	464a      	mov	r2, r9
10001784:	4463      	add	r3, ip
10001786:	6916      	ldr	r6, [r2, #16]
10001788:	f3ef 8110 	mrs	r1, PRIMASK
1000178c:	b672      	cpsid	i
1000178e:	6832      	ldr	r2, [r6, #0]
10001790:	2a00      	cmp	r2, #0
10001792:	d0fc      	beq.n	1000178e <best_effort_wfe_or_timeout+0xce>
10001794:	f3bf 8f5f 	dmb	sy
10001798:	885a      	ldrh	r2, [r3, #2]
1000179a:	b280      	uxth	r0, r0
1000179c:	b292      	uxth	r2, r2
1000179e:	4290      	cmp	r0, r2
100017a0:	d020      	beq.n	100017e4 <best_effort_wfe_or_timeout+0x124>
100017a2:	464b      	mov	r3, r9
100017a4:	691b      	ldr	r3, [r3, #16]
100017a6:	f3bf 8f5f 	dmb	sy
100017aa:	2200      	movs	r2, #0
100017ac:	601a      	str	r2, [r3, #0]
100017ae:	f381 8810 	msr	PRIMASK, r1
100017b2:	4a18      	ldr	r2, [pc, #96]	; (10001814 <best_effort_wfe_or_timeout+0x154>)
100017b4:	2000      	movs	r0, #0
100017b6:	6a53      	ldr	r3, [r2, #36]	; 0x24
100017b8:	4543      	cmp	r3, r8
100017ba:	d200      	bcs.n	100017be <best_effort_wfe_or_timeout+0xfe>
100017bc:	e79a      	b.n	100016f4 <best_effort_wfe_or_timeout+0x34>
100017be:	e791      	b.n	100016e4 <best_effort_wfe_or_timeout+0x24>
100017c0:	6a9b      	ldr	r3, [r3, #40]	; 0x28
100017c2:	42a3      	cmp	r3, r4
100017c4:	d2d2      	bcs.n	1000176c <best_effort_wfe_or_timeout+0xac>
100017c6:	4542      	cmp	r2, r8
100017c8:	d1d0      	bne.n	1000176c <best_effort_wfe_or_timeout+0xac>
100017ca:	e7ce      	b.n	1000176a <best_effort_wfe_or_timeout+0xaa>
100017cc:	4a11      	ldr	r2, [pc, #68]	; (10001814 <best_effort_wfe_or_timeout+0x154>)
100017ce:	2000      	movs	r0, #0
100017d0:	6a53      	ldr	r3, [r2, #36]	; 0x24
100017d2:	4543      	cmp	r3, r8
100017d4:	d200      	bcs.n	100017d8 <best_effort_wfe_or_timeout+0x118>
100017d6:	e78d      	b.n	100016f4 <best_effort_wfe_or_timeout+0x34>
100017d8:	6a92      	ldr	r2, [r2, #40]	; 0x28
100017da:	2001      	movs	r0, #1
100017dc:	42a2      	cmp	r2, r4
100017de:	d200      	bcs.n	100017e2 <best_effort_wfe_or_timeout+0x122>
100017e0:	e784      	b.n	100016ec <best_effort_wfe_or_timeout+0x2c>
100017e2:	e787      	b.n	100016f4 <best_effort_wfe_or_timeout+0x34>
100017e4:	2080      	movs	r0, #128	; 0x80
100017e6:	0200      	lsls	r0, r0, #8
100017e8:	4302      	orrs	r2, r0
100017ea:	805a      	strh	r2, [r3, #2]
100017ec:	2301      	movs	r3, #1
100017ee:	464a      	mov	r2, r9
100017f0:	7193      	strb	r3, [r2, #6]
100017f2:	6912      	ldr	r2, [r2, #16]
100017f4:	f3bf 8f5f 	dmb	sy
100017f8:	2000      	movs	r0, #0
100017fa:	6010      	str	r0, [r2, #0]
100017fc:	f381 8810 	msr	PRIMASK, r1
10001800:	464a      	mov	r2, r9
10001802:	7812      	ldrb	r2, [r2, #0]
10001804:	4906      	ldr	r1, [pc, #24]	; (10001820 <best_effort_wfe_or_timeout+0x160>)
10001806:	4093      	lsls	r3, r2
10001808:	464a      	mov	r2, r9
1000180a:	468c      	mov	ip, r1
1000180c:	68d2      	ldr	r2, [r2, #12]
1000180e:	4462      	add	r2, ip
10001810:	6013      	str	r3, [r2, #0]
10001812:	e7ce      	b.n	100017b2 <best_effort_wfe_or_timeout+0xf2>
10001814:	40054000 	.word	0x40054000
10001818:	200010c8 	.word	0x200010c8
1000181c:	10001039 	.word	0x10001039
10001820:	0000203c 	.word	0x0000203c

10001824 <timer_hardware_alarm_claim>:
10001824:	b510      	push	{r4, lr}
10001826:	4a02      	ldr	r2, [pc, #8]	; (10001830 <timer_hardware_alarm_claim+0xc>)
10001828:	4802      	ldr	r0, [pc, #8]	; (10001834 <timer_hardware_alarm_claim+0x10>)
1000182a:	f7ff f941 	bl	10000ab0 <hw_claim_or_assert>
1000182e:	bd10      	pop	{r4, pc}
10001830:	100050e0 	.word	0x100050e0
10001834:	20001990 	.word	0x20001990

10001838 <timer_time_us_64>:
10001838:	0002      	movs	r2, r0
1000183a:	6a41      	ldr	r1, [r0, #36]	; 0x24
1000183c:	e000      	b.n	10001840 <timer_time_us_64+0x8>
1000183e:	0019      	movs	r1, r3
10001840:	6a90      	ldr	r0, [r2, #40]	; 0x28
10001842:	6a53      	ldr	r3, [r2, #36]	; 0x24
10001844:	4299      	cmp	r1, r3
10001846:	d1fa      	bne.n	1000183e <timer_time_us_64+0x6>
10001848:	4770      	bx	lr
1000184a:	46c0      	nop			; (mov r8, r8)

1000184c <time_us_64>:
1000184c:	4a04      	ldr	r2, [pc, #16]	; (10001860 <time_us_64+0x14>)
1000184e:	6a51      	ldr	r1, [r2, #36]	; 0x24
10001850:	e000      	b.n	10001854 <time_us_64+0x8>
10001852:	0019      	movs	r1, r3
10001854:	6a90      	ldr	r0, [r2, #40]	; 0x28
10001856:	6a53      	ldr	r3, [r2, #36]	; 0x24
10001858:	428b      	cmp	r3, r1
1000185a:	d1fa      	bne.n	10001852 <time_us_64+0x6>
1000185c:	4770      	bx	lr
1000185e:	46c0      	nop			; (mov r8, r8)
10001860:	40054000 	.word	0x40054000

10001864 <busy_wait_us>:
10001864:	4a16      	ldr	r2, [pc, #88]	; (100018c0 <busy_wait_us+0x5c>)
10001866:	b570      	push	{r4, r5, r6, lr}
10001868:	6a54      	ldr	r4, [r2, #36]	; 0x24
1000186a:	e000      	b.n	1000186e <busy_wait_us+0xa>
1000186c:	001c      	movs	r4, r3
1000186e:	6a95      	ldr	r5, [r2, #40]	; 0x28
10001870:	6a53      	ldr	r3, [r2, #36]	; 0x24
10001872:	42a3      	cmp	r3, r4
10001874:	d1fa      	bne.n	1000186c <busy_wait_us+0x8>
10001876:	002a      	movs	r2, r5
10001878:	0023      	movs	r3, r4
1000187a:	1880      	adds	r0, r0, r2
1000187c:	4159      	adcs	r1, r3
1000187e:	0005      	movs	r5, r0
10001880:	000e      	movs	r6, r1
10001882:	428c      	cmp	r4, r1
10001884:	d816      	bhi.n	100018b4 <busy_wait_us+0x50>
10001886:	d013      	beq.n	100018b0 <busy_wait_us+0x4c>
10001888:	0032      	movs	r2, r6
1000188a:	4c0d      	ldr	r4, [pc, #52]	; (100018c0 <busy_wait_us+0x5c>)
1000188c:	6a63      	ldr	r3, [r4, #36]	; 0x24
1000188e:	4293      	cmp	r3, r2
10001890:	d3fc      	bcc.n	1000188c <busy_wait_us+0x28>
10001892:	429a      	cmp	r2, r3
10001894:	d10b      	bne.n	100018ae <busy_wait_us+0x4a>
10001896:	4b0a      	ldr	r3, [pc, #40]	; (100018c0 <busy_wait_us+0x5c>)
10001898:	0028      	movs	r0, r5
1000189a:	6a99      	ldr	r1, [r3, #40]	; 0x28
1000189c:	42a9      	cmp	r1, r5
1000189e:	d303      	bcc.n	100018a8 <busy_wait_us+0x44>
100018a0:	e005      	b.n	100018ae <busy_wait_us+0x4a>
100018a2:	6a99      	ldr	r1, [r3, #40]	; 0x28
100018a4:	4281      	cmp	r1, r0
100018a6:	d202      	bcs.n	100018ae <busy_wait_us+0x4a>
100018a8:	6a59      	ldr	r1, [r3, #36]	; 0x24
100018aa:	4291      	cmp	r1, r2
100018ac:	d0f9      	beq.n	100018a2 <busy_wait_us+0x3e>
100018ae:	bd70      	pop	{r4, r5, r6, pc}
100018b0:	4282      	cmp	r2, r0
100018b2:	d9e9      	bls.n	10001888 <busy_wait_us+0x24>
100018b4:	2201      	movs	r2, #1
100018b6:	2501      	movs	r5, #1
100018b8:	426d      	negs	r5, r5
100018ba:	17ee      	asrs	r6, r5, #31
100018bc:	4252      	negs	r2, r2
100018be:	e7e4      	b.n	1000188a <busy_wait_us+0x26>
100018c0:	40054000 	.word	0x40054000

100018c4 <busy_wait_until>:
100018c4:	4a06      	ldr	r2, [pc, #24]	; (100018e0 <busy_wait_until+0x1c>)
100018c6:	6a53      	ldr	r3, [r2, #36]	; 0x24
100018c8:	4299      	cmp	r1, r3
100018ca:	d8fc      	bhi.n	100018c6 <busy_wait_until+0x2>
100018cc:	d107      	bne.n	100018de <busy_wait_until+0x1a>
100018ce:	4b04      	ldr	r3, [pc, #16]	; (100018e0 <busy_wait_until+0x1c>)
100018d0:	e002      	b.n	100018d8 <busy_wait_until+0x14>
100018d2:	6a5a      	ldr	r2, [r3, #36]	; 0x24
100018d4:	4291      	cmp	r1, r2
100018d6:	d102      	bne.n	100018de <busy_wait_until+0x1a>
100018d8:	6a9a      	ldr	r2, [r3, #40]	; 0x28
100018da:	4290      	cmp	r0, r2
100018dc:	d8f9      	bhi.n	100018d2 <busy_wait_until+0xe>
100018de:	4770      	bx	lr
100018e0:	40054000 	.word	0x40054000

100018e4 <uart_init>:
100018e4:	b5f8      	push	{r3, r4, r5, r6, r7, lr}
100018e6:	0004      	movs	r4, r0
100018e8:	2006      	movs	r0, #6
100018ea:	000d      	movs	r5, r1
100018ec:	f000 f972 	bl	10001bd4 <clock_get_hz>
100018f0:	0003      	movs	r3, r0
100018f2:	2000      	movs	r0, #0
100018f4:	2b00      	cmp	r3, #0
100018f6:	d063      	beq.n	100019c0 <uart_init+0xdc>
100018f8:	4b34      	ldr	r3, [pc, #208]	; (100019cc <uart_init+0xe8>)
100018fa:	4935      	ldr	r1, [pc, #212]	; (100019d0 <uart_init+0xec>)
100018fc:	18e3      	adds	r3, r4, r3
100018fe:	1e5a      	subs	r2, r3, #1
10001900:	4193      	sbcs	r3, r2
10001902:	2280      	movs	r2, #128	; 0x80
10001904:	0412      	lsls	r2, r2, #16
10001906:	4694      	mov	ip, r2
10001908:	425b      	negs	r3, r3
1000190a:	4a32      	ldr	r2, [pc, #200]	; (100019d4 <uart_init+0xf0>)
1000190c:	059b      	lsls	r3, r3, #22
1000190e:	4463      	add	r3, ip
10001910:	6013      	str	r3, [r2, #0]
10001912:	4a31      	ldr	r2, [pc, #196]	; (100019d8 <uart_init+0xf4>)
10001914:	6013      	str	r3, [r2, #0]
10001916:	0018      	movs	r0, r3
10001918:	680a      	ldr	r2, [r1, #0]
1000191a:	4390      	bics	r0, r2
1000191c:	d1fb      	bne.n	10001916 <uart_init+0x32>
1000191e:	4b2b      	ldr	r3, [pc, #172]	; (100019cc <uart_init+0xe8>)
10001920:	2180      	movs	r1, #128	; 0x80
10001922:	18e3      	adds	r3, r4, r3
10001924:	425a      	negs	r2, r3
10001926:	4153      	adcs	r3, r2
10001928:	4a2c      	ldr	r2, [pc, #176]	; (100019dc <uart_init+0xf8>)
1000192a:	005b      	lsls	r3, r3, #1
1000192c:	0049      	lsls	r1, r1, #1
1000192e:	2006      	movs	r0, #6
10001930:	5299      	strh	r1, [r3, r2]
10001932:	f000 f94f 	bl	10001bd4 <clock_get_hz>
10001936:	0029      	movs	r1, r5
10001938:	00c0      	lsls	r0, r0, #3
1000193a:	f000 fb69 	bl	10002010 <__wrap___aeabi_uidiv>
1000193e:	3001      	adds	r0, #1
10001940:	09c3      	lsrs	r3, r0, #7
10001942:	d009      	beq.n	10001958 <uart_init+0x74>
10001944:	4a26      	ldr	r2, [pc, #152]	; (100019e0 <uart_init+0xfc>)
10001946:	4293      	cmp	r3, r2
10001948:	d83b      	bhi.n	100019c2 <uart_init+0xde>
1000194a:	0640      	lsls	r0, r0, #25
1000194c:	0e80      	lsrs	r0, r0, #26
1000194e:	019f      	lsls	r7, r3, #6
10001950:	001a      	movs	r2, r3
10001952:	183f      	adds	r7, r7, r0
10001954:	0003      	movs	r3, r0
10001956:	e001      	b.n	1000195c <uart_init+0x78>
10001958:	2740      	movs	r7, #64	; 0x40
1000195a:	2201      	movs	r2, #1
1000195c:	6262      	str	r2, [r4, #36]	; 0x24
1000195e:	62a3      	str	r3, [r4, #40]	; 0x28
10001960:	6b26      	ldr	r6, [r4, #48]	; 0x30
10001962:	07f3      	lsls	r3, r6, #31
10001964:	d515      	bpl.n	10001992 <uart_init+0xae>
10001966:	4b1f      	ldr	r3, [pc, #124]	; (100019e4 <uart_init+0x100>)
10001968:	4a1f      	ldr	r2, [pc, #124]	; (100019e8 <uart_init+0x104>)
1000196a:	18e3      	adds	r3, r4, r3
1000196c:	601a      	str	r2, [r3, #0]
1000196e:	6a65      	ldr	r5, [r4, #36]	; 0x24
10001970:	6aa3      	ldr	r3, [r4, #40]	; 0x28
10001972:	01ad      	lsls	r5, r5, #6
10001974:	2006      	movs	r0, #6
10001976:	18ed      	adds	r5, r5, r3
10001978:	f000 f92c 	bl	10001bd4 <clock_get_hz>
1000197c:	491b      	ldr	r1, [pc, #108]	; (100019ec <uart_init+0x108>)
1000197e:	f000 fb47 	bl	10002010 <__wrap___aeabi_uidiv>
10001982:	02ad      	lsls	r5, r5, #10
10001984:	0001      	movs	r1, r0
10001986:	0028      	movs	r0, r5
10001988:	f000 fb42 	bl	10002010 <__wrap___aeabi_uidiv>
1000198c:	2100      	movs	r1, #0
1000198e:	f7ff ff69 	bl	10001864 <busy_wait_us>
10001992:	6ae3      	ldr	r3, [r4, #44]	; 0x2c
10001994:	4b16      	ldr	r3, [pc, #88]	; (100019f0 <uart_init+0x10c>)
10001996:	2006      	movs	r0, #6
10001998:	18e5      	adds	r5, r4, r3
1000199a:	2300      	movs	r3, #0
1000199c:	602b      	str	r3, [r5, #0]
1000199e:	6326      	str	r6, [r4, #48]	; 0x30
100019a0:	f000 f918 	bl	10001bd4 <clock_get_hz>
100019a4:	0039      	movs	r1, r7
100019a6:	0080      	lsls	r0, r0, #2
100019a8:	f000 fb32 	bl	10002010 <__wrap___aeabi_uidiv>
100019ac:	2270      	movs	r2, #112	; 0x70
100019ae:	6ae3      	ldr	r3, [r4, #44]	; 0x2c
100019b0:	405a      	eors	r2, r3
100019b2:	237e      	movs	r3, #126	; 0x7e
100019b4:	4013      	ands	r3, r2
100019b6:	602b      	str	r3, [r5, #0]
100019b8:	4b0b      	ldr	r3, [pc, #44]	; (100019e8 <uart_init+0x104>)
100019ba:	6323      	str	r3, [r4, #48]	; 0x30
100019bc:	2303      	movs	r3, #3
100019be:	64a3      	str	r3, [r4, #72]	; 0x48
100019c0:	bdf8      	pop	{r3, r4, r5, r6, r7, pc}
100019c2:	4f0c      	ldr	r7, [pc, #48]	; (100019f4 <uart_init+0x110>)
100019c4:	2300      	movs	r3, #0
100019c6:	4a0c      	ldr	r2, [pc, #48]	; (100019f8 <uart_init+0x114>)
100019c8:	e7c8      	b.n	1000195c <uart_init+0x78>
100019ca:	46c0      	nop			; (mov r8, r8)
100019cc:	bffc8000 	.word	0xbffc8000
100019d0:	4000c008 	.word	0x4000c008
100019d4:	4000e000 	.word	0x4000e000
100019d8:	4000f000 	.word	0x4000f000
100019dc:	20002224 	.word	0x20002224
100019e0:	0000fffe 	.word	0x0000fffe
100019e4:	00003030 	.word	0x00003030
100019e8:	00000301 	.word	0x00000301
100019ec:	00000e4e 	.word	0x00000e4e
100019f0:	0000102c 	.word	0x0000102c
100019f4:	003fffc0 	.word	0x003fffc0
100019f8:	0000ffff 	.word	0x0000ffff

100019fc <clock_configure_int_divider>:
100019fc:	b5f8      	push	{r3, r4, r5, r6, r7, lr}
100019fe:	464e      	mov	r6, r9
10001a00:	4645      	mov	r5, r8
10001a02:	46de      	mov	lr, fp
10001a04:	4657      	mov	r7, sl
10001a06:	b5e0      	push	{r5, r6, r7, lr}
10001a08:	4688      	mov	r8, r1
10001a0a:	0005      	movs	r5, r0
10001a0c:	990a      	ldr	r1, [sp, #40]	; 0x28
10001a0e:	0018      	movs	r0, r3
10001a10:	0017      	movs	r7, r2
10001a12:	f000 fafd 	bl	10002010 <__wrap___aeabi_uidiv>
10001a16:	9b0a      	ldr	r3, [sp, #40]	; 0x28
10001a18:	006c      	lsls	r4, r5, #1
10001a1a:	021e      	lsls	r6, r3, #8
10001a1c:	4b31      	ldr	r3, [pc, #196]	; (10001ae4 <clock_configure_int_divider+0xe8>)
10001a1e:	1964      	adds	r4, r4, r5
10001a20:	469c      	mov	ip, r3
10001a22:	00a4      	lsls	r4, r4, #2
10001a24:	4464      	add	r4, ip
10001a26:	6863      	ldr	r3, [r4, #4]
10001a28:	4681      	mov	r9, r0
10001a2a:	429e      	cmp	r6, r3
10001a2c:	d900      	bls.n	10001a30 <clock_configure_int_divider+0x34>
10001a2e:	6066      	str	r6, [r4, #4]
10001a30:	1f2b      	subs	r3, r5, #4
10001a32:	b2db      	uxtb	r3, r3
10001a34:	469a      	mov	sl, r3
10001a36:	23c0      	movs	r3, #192	; 0xc0
10001a38:	4652      	mov	r2, sl
10001a3a:	019b      	lsls	r3, r3, #6
10001a3c:	18e3      	adds	r3, r4, r3
10001a3e:	2a01      	cmp	r2, #1
10001a40:	d92d      	bls.n	10001a9e <clock_configure_int_divider+0xa2>
10001a42:	2280      	movs	r2, #128	; 0x80
10001a44:	0112      	lsls	r2, r2, #4
10001a46:	601a      	str	r2, [r3, #0]
10001a48:	4b27      	ldr	r3, [pc, #156]	; (10001ae8 <clock_configure_int_divider+0xec>)
10001a4a:	00ad      	lsls	r5, r5, #2
10001a4c:	5959      	ldr	r1, [r3, r5]
10001a4e:	469b      	mov	fp, r3
10001a50:	2900      	cmp	r1, #0
10001a52:	d11b      	bne.n	10001a8c <clock_configure_int_divider+0x90>
10001a54:	6823      	ldr	r3, [r4, #0]
10001a56:	017f      	lsls	r7, r7, #5
10001a58:	407b      	eors	r3, r7
10001a5a:	27e0      	movs	r7, #224	; 0xe0
10001a5c:	401f      	ands	r7, r3
10001a5e:	2380      	movs	r3, #128	; 0x80
10001a60:	4652      	mov	r2, sl
10001a62:	015b      	lsls	r3, r3, #5
10001a64:	18e3      	adds	r3, r4, r3
10001a66:	601f      	str	r7, [r3, #0]
10001a68:	2a01      	cmp	r2, #1
10001a6a:	d92d      	bls.n	10001ac8 <clock_configure_int_divider+0xcc>
10001a6c:	2380      	movs	r3, #128	; 0x80
10001a6e:	2280      	movs	r2, #128	; 0x80
10001a70:	019b      	lsls	r3, r3, #6
10001a72:	18e3      	adds	r3, r4, r3
10001a74:	0112      	lsls	r2, r2, #4
10001a76:	601a      	str	r2, [r3, #0]
10001a78:	465b      	mov	r3, fp
10001a7a:	464a      	mov	r2, r9
10001a7c:	6066      	str	r6, [r4, #4]
10001a7e:	515a      	str	r2, [r3, r5]
10001a80:	bc3c      	pop	{r2, r3, r4, r5}
10001a82:	4690      	mov	r8, r2
10001a84:	4699      	mov	r9, r3
10001a86:	46a2      	mov	sl, r4
10001a88:	46ab      	mov	fp, r5
10001a8a:	bdf8      	pop	{r3, r4, r5, r6, r7, pc}
10001a8c:	6958      	ldr	r0, [r3, #20]
10001a8e:	f000 fabf 	bl	10002010 <__wrap___aeabi_uidiv>
10001a92:	1c43      	adds	r3, r0, #1
10001a94:	0058      	lsls	r0, r3, #1
10001a96:	18c0      	adds	r0, r0, r3
10001a98:	3803      	subs	r0, #3
10001a9a:	d2fd      	bcs.n	10001a98 <clock_configure_int_divider+0x9c>
10001a9c:	e7da      	b.n	10001a54 <clock_configure_int_divider+0x58>
10001a9e:	4642      	mov	r2, r8
10001aa0:	2a01      	cmp	r2, #1
10001aa2:	d1ce      	bne.n	10001a42 <clock_configure_int_divider+0x46>
10001aa4:	3202      	adds	r2, #2
10001aa6:	601a      	str	r2, [r3, #0]
10001aa8:	3a02      	subs	r2, #2
10001aaa:	68a3      	ldr	r3, [r4, #8]
10001aac:	421a      	tst	r2, r3
10001aae:	d0fc      	beq.n	10001aaa <clock_configure_int_divider+0xae>
10001ab0:	6823      	ldr	r3, [r4, #0]
10001ab2:	017f      	lsls	r7, r7, #5
10001ab4:	405f      	eors	r7, r3
10001ab6:	23e0      	movs	r3, #224	; 0xe0
10001ab8:	401f      	ands	r7, r3
10001aba:	2380      	movs	r3, #128	; 0x80
10001abc:	4a0a      	ldr	r2, [pc, #40]	; (10001ae8 <clock_configure_int_divider+0xec>)
10001abe:	015b      	lsls	r3, r3, #5
10001ac0:	4693      	mov	fp, r2
10001ac2:	18e3      	adds	r3, r4, r3
10001ac4:	601f      	str	r7, [r3, #0]
10001ac6:	00ad      	lsls	r5, r5, #2
10001ac8:	4642      	mov	r2, r8
10001aca:	6821      	ldr	r1, [r4, #0]
10001acc:	4051      	eors	r1, r2
10001ace:	2203      	movs	r2, #3
10001ad0:	400a      	ands	r2, r1
10001ad2:	601a      	str	r2, [r3, #0]
10001ad4:	2201      	movs	r2, #1
10001ad6:	4643      	mov	r3, r8
10001ad8:	409a      	lsls	r2, r3
10001ada:	68a3      	ldr	r3, [r4, #8]
10001adc:	421a      	tst	r2, r3
10001ade:	d0fc      	beq.n	10001ada <clock_configure_int_divider+0xde>
10001ae0:	e7c4      	b.n	10001a6c <clock_configure_int_divider+0x70>
10001ae2:	46c0      	nop			; (mov r8, r8)
10001ae4:	40008000 	.word	0x40008000
10001ae8:	20001994 	.word	0x20001994

10001aec <clock_configure_undivided>:
10001aec:	b5f0      	push	{r4, r5, r6, r7, lr}
10001aee:	464f      	mov	r7, r9
10001af0:	4646      	mov	r6, r8
10001af2:	46d6      	mov	lr, sl
10001af4:	b5c0      	push	{r6, r7, lr}
10001af6:	001e      	movs	r6, r3
10001af8:	4b34      	ldr	r3, [pc, #208]	; (10001bcc <clock_configure_undivided+0xe0>)
10001afa:	0044      	lsls	r4, r0, #1
10001afc:	469c      	mov	ip, r3
10001afe:	1824      	adds	r4, r4, r0
10001b00:	00a4      	lsls	r4, r4, #2
10001b02:	4464      	add	r4, ip
10001b04:	6863      	ldr	r3, [r4, #4]
10001b06:	000f      	movs	r7, r1
10001b08:	0015      	movs	r5, r2
10001b0a:	2bff      	cmp	r3, #255	; 0xff
10001b0c:	d802      	bhi.n	10001b14 <clock_configure_undivided+0x28>
10001b0e:	2380      	movs	r3, #128	; 0x80
10001b10:	005b      	lsls	r3, r3, #1
10001b12:	6063      	str	r3, [r4, #4]
10001b14:	1f03      	subs	r3, r0, #4
10001b16:	b2db      	uxtb	r3, r3
10001b18:	469a      	mov	sl, r3
10001b1a:	23c0      	movs	r3, #192	; 0xc0
10001b1c:	4652      	mov	r2, sl
10001b1e:	019b      	lsls	r3, r3, #6
10001b20:	18e3      	adds	r3, r4, r3
10001b22:	2a01      	cmp	r2, #1
10001b24:	d931      	bls.n	10001b8a <clock_configure_undivided+0x9e>
10001b26:	2280      	movs	r2, #128	; 0x80
10001b28:	0112      	lsls	r2, r2, #4
10001b2a:	601a      	str	r2, [r3, #0]
10001b2c:	4b28      	ldr	r3, [pc, #160]	; (10001bd0 <clock_configure_undivided+0xe4>)
10001b2e:	4699      	mov	r9, r3
10001b30:	0083      	lsls	r3, r0, #2
10001b32:	4698      	mov	r8, r3
10001b34:	464b      	mov	r3, r9
10001b36:	4642      	mov	r2, r8
10001b38:	5899      	ldr	r1, [r3, r2]
10001b3a:	2900      	cmp	r1, #0
10001b3c:	d11c      	bne.n	10001b78 <clock_configure_undivided+0x8c>
10001b3e:	6823      	ldr	r3, [r4, #0]
10001b40:	016d      	lsls	r5, r5, #5
10001b42:	406b      	eors	r3, r5
10001b44:	25e0      	movs	r5, #224	; 0xe0
10001b46:	401d      	ands	r5, r3
10001b48:	2380      	movs	r3, #128	; 0x80
10001b4a:	4652      	mov	r2, sl
10001b4c:	015b      	lsls	r3, r3, #5
10001b4e:	18e3      	adds	r3, r4, r3
10001b50:	601d      	str	r5, [r3, #0]
10001b52:	2a01      	cmp	r2, #1
10001b54:	d92e      	bls.n	10001bb4 <clock_configure_undivided+0xc8>
10001b56:	2380      	movs	r3, #128	; 0x80
10001b58:	2280      	movs	r2, #128	; 0x80
10001b5a:	019b      	lsls	r3, r3, #6
10001b5c:	18e3      	adds	r3, r4, r3
10001b5e:	0112      	lsls	r2, r2, #4
10001b60:	601a      	str	r2, [r3, #0]
10001b62:	2380      	movs	r3, #128	; 0x80
10001b64:	005b      	lsls	r3, r3, #1
10001b66:	4642      	mov	r2, r8
10001b68:	6063      	str	r3, [r4, #4]
10001b6a:	464b      	mov	r3, r9
10001b6c:	509e      	str	r6, [r3, r2]
10001b6e:	bc1c      	pop	{r2, r3, r4}
10001b70:	4690      	mov	r8, r2
10001b72:	4699      	mov	r9, r3
10001b74:	46a2      	mov	sl, r4
10001b76:	bdf0      	pop	{r4, r5, r6, r7, pc}
10001b78:	6958      	ldr	r0, [r3, #20]
10001b7a:	f000 fa49 	bl	10002010 <__wrap___aeabi_uidiv>
10001b7e:	1c43      	adds	r3, r0, #1
10001b80:	0058      	lsls	r0, r3, #1
10001b82:	18c0      	adds	r0, r0, r3
10001b84:	3803      	subs	r0, #3
10001b86:	d2fd      	bcs.n	10001b84 <clock_configure_undivided+0x98>
10001b88:	e7d9      	b.n	10001b3e <clock_configure_undivided+0x52>
10001b8a:	2f01      	cmp	r7, #1
10001b8c:	d1cb      	bne.n	10001b26 <clock_configure_undivided+0x3a>
10001b8e:	2203      	movs	r2, #3
10001b90:	601a      	str	r2, [r3, #0]
10001b92:	3a02      	subs	r2, #2
10001b94:	68a3      	ldr	r3, [r4, #8]
10001b96:	421a      	tst	r2, r3
10001b98:	d0fc      	beq.n	10001b94 <clock_configure_undivided+0xa8>
10001b9a:	6823      	ldr	r3, [r4, #0]
10001b9c:	016d      	lsls	r5, r5, #5
10001b9e:	405d      	eors	r5, r3
10001ba0:	23e0      	movs	r3, #224	; 0xe0
10001ba2:	4a0b      	ldr	r2, [pc, #44]	; (10001bd0 <clock_configure_undivided+0xe4>)
10001ba4:	401d      	ands	r5, r3
10001ba6:	2380      	movs	r3, #128	; 0x80
10001ba8:	4691      	mov	r9, r2
10001baa:	0082      	lsls	r2, r0, #2
10001bac:	4690      	mov	r8, r2
10001bae:	015b      	lsls	r3, r3, #5
10001bb0:	18e3      	adds	r3, r4, r3
10001bb2:	601d      	str	r5, [r3, #0]
10001bb4:	2203      	movs	r2, #3
10001bb6:	6821      	ldr	r1, [r4, #0]
10001bb8:	4079      	eors	r1, r7
10001bba:	400a      	ands	r2, r1
10001bbc:	601a      	str	r2, [r3, #0]
10001bbe:	2201      	movs	r2, #1
10001bc0:	40ba      	lsls	r2, r7
10001bc2:	68a3      	ldr	r3, [r4, #8]
10001bc4:	421a      	tst	r2, r3
10001bc6:	d0fc      	beq.n	10001bc2 <clock_configure_undivided+0xd6>
10001bc8:	e7c5      	b.n	10001b56 <clock_configure_undivided+0x6a>
10001bca:	46c0      	nop			; (mov r8, r8)
10001bcc:	40008000 	.word	0x40008000
10001bd0:	20001994 	.word	0x20001994

10001bd4 <clock_get_hz>:
10001bd4:	4b01      	ldr	r3, [pc, #4]	; (10001bdc <clock_get_hz+0x8>)
10001bd6:	0080      	lsls	r0, r0, #2
10001bd8:	58c0      	ldr	r0, [r0, r3]
10001bda:	4770      	bx	lr
10001bdc:	20001994 	.word	0x20001994

10001be0 <pll_init>:
10001be0:	b5f8      	push	{r3, r4, r5, r6, r7, lr}
10001be2:	0004      	movs	r4, r0
10001be4:	4820      	ldr	r0, [pc, #128]	; (10001c68 <pll_init+0x88>)
10001be6:	0017      	movs	r7, r2
10001be8:	001e      	movs	r6, r3
10001bea:	000d      	movs	r5, r1
10001bec:	f000 fa10 	bl	10002010 <__wrap___aeabi_uidiv>
10001bf0:	0001      	movs	r1, r0
10001bf2:	0038      	movs	r0, r7
10001bf4:	f000 fa0c 	bl	10002010 <__wrap___aeabi_uidiv>
10001bf8:	9a06      	ldr	r2, [sp, #24]
10001bfa:	0433      	lsls	r3, r6, #16
10001bfc:	0312      	lsls	r2, r2, #12
10001bfe:	4313      	orrs	r3, r2
10001c00:	6822      	ldr	r2, [r4, #0]
10001c02:	2a00      	cmp	r2, #0
10001c04:	db1f      	blt.n	10001c46 <pll_init+0x66>
10001c06:	4a19      	ldr	r2, [pc, #100]	; (10001c6c <pll_init+0x8c>)
10001c08:	4e19      	ldr	r6, [pc, #100]	; (10001c70 <pll_init+0x90>)
10001c0a:	18a2      	adds	r2, r4, r2
10001c0c:	1e51      	subs	r1, r2, #1
10001c0e:	418a      	sbcs	r2, r1
10001c10:	2180      	movs	r1, #128	; 0x80
10001c12:	0189      	lsls	r1, r1, #6
10001c14:	468c      	mov	ip, r1
10001c16:	4252      	negs	r2, r2
10001c18:	4916      	ldr	r1, [pc, #88]	; (10001c74 <pll_init+0x94>)
10001c1a:	0312      	lsls	r2, r2, #12
10001c1c:	4462      	add	r2, ip
10001c1e:	600a      	str	r2, [r1, #0]
10001c20:	4915      	ldr	r1, [pc, #84]	; (10001c78 <pll_init+0x98>)
10001c22:	600a      	str	r2, [r1, #0]
10001c24:	0017      	movs	r7, r2
10001c26:	6831      	ldr	r1, [r6, #0]
10001c28:	438f      	bics	r7, r1
10001c2a:	d1fb      	bne.n	10001c24 <pll_init+0x44>
10001c2c:	4a13      	ldr	r2, [pc, #76]	; (10001c7c <pll_init+0x9c>)
10001c2e:	6025      	str	r5, [r4, #0]
10001c30:	18a1      	adds	r1, r4, r2
10001c32:	2221      	movs	r2, #33	; 0x21
10001c34:	60a0      	str	r0, [r4, #8]
10001c36:	600a      	str	r2, [r1, #0]
10001c38:	6822      	ldr	r2, [r4, #0]
10001c3a:	2a00      	cmp	r2, #0
10001c3c:	dafc      	bge.n	10001c38 <pll_init+0x58>
10001c3e:	60e3      	str	r3, [r4, #12]
10001c40:	2308      	movs	r3, #8
10001c42:	600b      	str	r3, [r1, #0]
10001c44:	bdf8      	pop	{r3, r4, r5, r6, r7, pc}
10001c46:	223f      	movs	r2, #63	; 0x3f
10001c48:	6821      	ldr	r1, [r4, #0]
10001c4a:	400a      	ands	r2, r1
10001c4c:	42aa      	cmp	r2, r5
10001c4e:	d1da      	bne.n	10001c06 <pll_init+0x26>
10001c50:	68a2      	ldr	r2, [r4, #8]
10001c52:	0512      	lsls	r2, r2, #20
10001c54:	0d12      	lsrs	r2, r2, #20
10001c56:	4282      	cmp	r2, r0
10001c58:	d1d5      	bne.n	10001c06 <pll_init+0x26>
10001c5a:	21ee      	movs	r1, #238	; 0xee
10001c5c:	68e2      	ldr	r2, [r4, #12]
10001c5e:	02c9      	lsls	r1, r1, #11
10001c60:	400a      	ands	r2, r1
10001c62:	429a      	cmp	r2, r3
10001c64:	d1cf      	bne.n	10001c06 <pll_init+0x26>
10001c66:	e7ed      	b.n	10001c44 <pll_init+0x64>
10001c68:	00b71b00 	.word	0x00b71b00
10001c6c:	bffd4000 	.word	0xbffd4000
10001c70:	4000c008 	.word	0x4000c008
10001c74:	4000e000 	.word	0x4000e000
10001c78:	4000f000 	.word	0x4000f000
10001c7c:	00003004 	.word	0x00003004

10001c80 <watchdog_reboot>:
10001c80:	b510      	push	{r4, lr}
10001c82:	2480      	movs	r4, #128	; 0x80
10001c84:	4b1b      	ldr	r3, [pc, #108]	; (10001cf4 <watchdog_reboot+0x74>)
10001c86:	05e4      	lsls	r4, r4, #23
10001c88:	601c      	str	r4, [r3, #0]
10001c8a:	2800      	cmp	r0, #0
10001c8c:	d01a      	beq.n	10001cc4 <watchdog_reboot+0x44>
10001c8e:	2301      	movs	r3, #1
10001c90:	4c19      	ldr	r4, [pc, #100]	; (10001cf8 <watchdog_reboot+0x78>)
10001c92:	4318      	orrs	r0, r3
10001c94:	4b19      	ldr	r3, [pc, #100]	; (10001cfc <watchdog_reboot+0x7c>)
10001c96:	61dc      	str	r4, [r3, #28]
10001c98:	4c19      	ldr	r4, [pc, #100]	; (10001d00 <watchdog_reboot+0x80>)
10001c9a:	4044      	eors	r4, r0
10001c9c:	621c      	str	r4, [r3, #32]
10001c9e:	6259      	str	r1, [r3, #36]	; 0x24
10001ca0:	6298      	str	r0, [r3, #40]	; 0x28
10001ca2:	2180      	movs	r1, #128	; 0x80
10001ca4:	4b13      	ldr	r3, [pc, #76]	; (10001cf4 <watchdog_reboot+0x74>)
10001ca6:	05c9      	lsls	r1, r1, #23
10001ca8:	6019      	str	r1, [r3, #0]
10001caa:	4816      	ldr	r0, [pc, #88]	; (10001d04 <watchdog_reboot+0x84>)
10001cac:	4916      	ldr	r1, [pc, #88]	; (10001d08 <watchdog_reboot+0x88>)
10001cae:	6008      	str	r0, [r1, #0]
10001cb0:	21e0      	movs	r1, #224	; 0xe0
10001cb2:	04c9      	lsls	r1, r1, #19
10001cb4:	6019      	str	r1, [r3, #0]
10001cb6:	2a00      	cmp	r2, #0
10001cb8:	d107      	bne.n	10001cca <watchdog_reboot+0x4a>
10001cba:	2280      	movs	r2, #128	; 0x80
10001cbc:	4b13      	ldr	r3, [pc, #76]	; (10001d0c <watchdog_reboot+0x8c>)
10001cbe:	0612      	lsls	r2, r2, #24
10001cc0:	601a      	str	r2, [r3, #0]
10001cc2:	bd10      	pop	{r4, pc}
10001cc4:	4b0d      	ldr	r3, [pc, #52]	; (10001cfc <watchdog_reboot+0x7c>)
10001cc6:	61d8      	str	r0, [r3, #28]
10001cc8:	e7eb      	b.n	10001ca2 <watchdog_reboot+0x22>
10001cca:	0153      	lsls	r3, r2, #5
10001ccc:	1a9b      	subs	r3, r3, r2
10001cce:	009b      	lsls	r3, r3, #2
10001cd0:	189a      	adds	r2, r3, r2
10001cd2:	4b0f      	ldr	r3, [pc, #60]	; (10001d10 <watchdog_reboot+0x90>)
10001cd4:	0112      	lsls	r2, r2, #4
10001cd6:	429a      	cmp	r2, r3
10001cd8:	d808      	bhi.n	10001cec <watchdog_reboot+0x6c>
10001cda:	4b0e      	ldr	r3, [pc, #56]	; (10001d14 <watchdog_reboot+0x94>)
10001cdc:	601a      	str	r2, [r3, #0]
10001cde:	4b07      	ldr	r3, [pc, #28]	; (10001cfc <watchdog_reboot+0x7c>)
10001ce0:	605a      	str	r2, [r3, #4]
10001ce2:	2280      	movs	r2, #128	; 0x80
10001ce4:	4b09      	ldr	r3, [pc, #36]	; (10001d0c <watchdog_reboot+0x8c>)
10001ce6:	05d2      	lsls	r2, r2, #23
10001ce8:	601a      	str	r2, [r3, #0]
10001cea:	e7ea      	b.n	10001cc2 <watchdog_reboot+0x42>
10001cec:	4a09      	ldr	r2, [pc, #36]	; (10001d14 <watchdog_reboot+0x94>)
10001cee:	6013      	str	r3, [r2, #0]
10001cf0:	001a      	movs	r2, r3
10001cf2:	e7f4      	b.n	10001cde <watchdog_reboot+0x5e>
10001cf4:	4005b000 	.word	0x4005b000
10001cf8:	b007c0d3 	.word	0xb007c0d3
10001cfc:	40058000 	.word	0x40058000
10001d00:	4ff83f2d 	.word	0x4ff83f2d
10001d04:	0001fffc 	.word	0x0001fffc
10001d08:	40012008 	.word	0x40012008
10001d0c:	4005a000 	.word	0x4005a000
10001d10:	00ffffff 	.word	0x00ffffff
10001d14:	20001df4 	.word	0x20001df4

10001d18 <tick_start>:
10001d18:	2380      	movs	r3, #128	; 0x80
10001d1a:	009b      	lsls	r3, r3, #2
10001d1c:	4319      	orrs	r1, r3
10001d1e:	4b01      	ldr	r3, [pc, #4]	; (10001d24 <tick_start+0xc>)
10001d20:	62d9      	str	r1, [r3, #44]	; 0x2c
10001d22:	4770      	bx	lr
10001d24:	40058000 	.word	0x40058000

10001d28 <rom_func_lookup>:
10001d28:	2314      	movs	r3, #20
10001d2a:	b510      	push	{r4, lr}
10001d2c:	0001      	movs	r1, r0
10001d2e:	8818      	ldrh	r0, [r3, #0]
10001d30:	3304      	adds	r3, #4
10001d32:	881b      	ldrh	r3, [r3, #0]
10001d34:	4798      	blx	r3
10001d36:	bd10      	pop	{r4, pc}

10001d38 <rom_data_lookup>:
10001d38:	2316      	movs	r3, #22
10001d3a:	b510      	push	{r4, lr}
10001d3c:	0001      	movs	r1, r0
10001d3e:	8818      	ldrh	r0, [r3, #0]
10001d40:	3302      	adds	r3, #2
10001d42:	881b      	ldrh	r3, [r3, #0]
10001d44:	4798      	blx	r3
10001d46:	bd10      	pop	{r4, pc}

10001d48 <rom_funcs_lookup>:
10001d48:	b5f0      	push	{r4, r5, r6, r7, lr}
10001d4a:	46c6      	mov	lr, r8
10001d4c:	b500      	push	{lr}
10001d4e:	2900      	cmp	r1, #0
10001d50:	d016      	beq.n	10001d80 <rom_funcs_lookup+0x38>
10001d52:	2314      	movs	r3, #20
10001d54:	0004      	movs	r4, r0
10001d56:	2501      	movs	r5, #1
10001d58:	4698      	mov	r8, r3
10001d5a:	2718      	movs	r7, #24
10001d5c:	0089      	lsls	r1, r1, #2
10001d5e:	1846      	adds	r6, r0, r1
10001d60:	4643      	mov	r3, r8
10001d62:	6821      	ldr	r1, [r4, #0]
10001d64:	8818      	ldrh	r0, [r3, #0]
10001d66:	883b      	ldrh	r3, [r7, #0]
10001d68:	4798      	blx	r3
10001d6a:	c401      	stmia	r4!, {r0}
10001d6c:	1e43      	subs	r3, r0, #1
10001d6e:	4198      	sbcs	r0, r3
10001d70:	4240      	negs	r0, r0
10001d72:	4005      	ands	r5, r0
10001d74:	42a6      	cmp	r6, r4
10001d76:	d1f3      	bne.n	10001d60 <rom_funcs_lookup+0x18>
10001d78:	0028      	movs	r0, r5
10001d7a:	bc04      	pop	{r2}
10001d7c:	4690      	mov	r8, r2
10001d7e:	bdf0      	pop	{r4, r5, r6, r7, pc}
10001d80:	2501      	movs	r5, #1
10001d82:	e7f9      	b.n	10001d78 <rom_funcs_lookup+0x30>

10001d84 <rom_reset_usb_boot_extra>:
10001d84:	2314      	movs	r3, #20
10001d86:	b570      	push	{r4, r5, r6, lr}
10001d88:	0004      	movs	r4, r0
10001d8a:	8818      	ldrh	r0, [r3, #0]
10001d8c:	3304      	adds	r3, #4
10001d8e:	881b      	ldrh	r3, [r3, #0]
10001d90:	000d      	movs	r5, r1
10001d92:	4905      	ldr	r1, [pc, #20]	; (10001da8 <rom_reset_usb_boot_extra+0x24>)
10001d94:	4798      	blx	r3
10001d96:	0003      	movs	r3, r0
10001d98:	2c00      	cmp	r4, #0
10001d9a:	db03      	blt.n	10001da4 <rom_reset_usb_boot_extra+0x20>
10001d9c:	2001      	movs	r0, #1
10001d9e:	40a0      	lsls	r0, r4
10001da0:	0029      	movs	r1, r5
10001da2:	4798      	blx	r3
10001da4:	2000      	movs	r0, #0
10001da6:	e7fb      	b.n	10001da0 <rom_reset_usb_boot_extra+0x1c>
10001da8:	00004255 	.word	0x00004255

10001dac <xosc_init>:
10001dac:	23aa      	movs	r3, #170	; 0xaa
10001dae:	4a06      	ldr	r2, [pc, #24]	; (10001dc8 <xosc_init+0x1c>)
10001db0:	011b      	lsls	r3, r3, #4
10001db2:	6013      	str	r3, [r2, #0]
10001db4:	238d      	movs	r3, #141	; 0x8d
10001db6:	005b      	lsls	r3, r3, #1
10001db8:	60d3      	str	r3, [r2, #12]
10001dba:	4904      	ldr	r1, [pc, #16]	; (10001dcc <xosc_init+0x20>)
10001dbc:	4b04      	ldr	r3, [pc, #16]	; (10001dd0 <xosc_init+0x24>)
10001dbe:	6019      	str	r1, [r3, #0]
10001dc0:	6853      	ldr	r3, [r2, #4]
10001dc2:	2b00      	cmp	r3, #0
10001dc4:	dafc      	bge.n	10001dc0 <xosc_init+0x14>
10001dc6:	4770      	bx	lr
10001dc8:	40024000 	.word	0x40024000
10001dcc:	00fab000 	.word	0x00fab000
10001dd0:	40026000 	.word	0x40026000

10001dd4 <first_per_core_initializer>:
10001dd4:	4770      	bx	lr
10001dd6:	46c0      	nop			; (mov r8, r8)

10001dd8 <hard_assertion_failure>:
10001dd8:	b510      	push	{r4, lr}
10001dda:	4801      	ldr	r0, [pc, #4]	; (10001de0 <hard_assertion_failure+0x8>)
10001ddc:	f7fe fe50 	bl	10000a80 <panic>
10001de0:	10005104 	.word	0x10005104

10001de4 <runtime_run_initializers>:
10001de4:	b570      	push	{r4, r5, r6, lr}
10001de6:	4c07      	ldr	r4, [pc, #28]	; (10001e04 <runtime_run_initializers+0x20>)
10001de8:	4d07      	ldr	r5, [pc, #28]	; (10001e08 <runtime_run_initializers+0x24>)
10001dea:	42ac      	cmp	r4, r5
10001dec:	d209      	bcs.n	10001e02 <runtime_run_initializers+0x1e>
10001dee:	2203      	movs	r2, #3
10001df0:	1d23      	adds	r3, r4, #4
10001df2:	3503      	adds	r5, #3
10001df4:	1aed      	subs	r5, r5, r3
10001df6:	4395      	bics	r5, r2
10001df8:	18ed      	adds	r5, r5, r3
10001dfa:	cc08      	ldmia	r4!, {r3}
10001dfc:	4798      	blx	r3
10001dfe:	42ac      	cmp	r4, r5
10001e00:	d1fb      	bne.n	10001dfa <runtime_run_initializers+0x16>
10001e02:	bd70      	pop	{r4, r5, r6, pc}
10001e04:	10004ef8 	.word	0x10004ef8
10001e08:	10004f34 	.word	0x10004f34

10001e0c <runtime_init_early_resets>:
10001e0c:	4b05      	ldr	r3, [pc, #20]	; (10001e24 <runtime_init_early_resets+0x18>)
10001e0e:	4a06      	ldr	r2, [pc, #24]	; (10001e28 <runtime_init_early_resets+0x1c>)
10001e10:	4906      	ldr	r1, [pc, #24]	; (10001e2c <runtime_init_early_resets+0x20>)
10001e12:	601a      	str	r2, [r3, #0]
10001e14:	4a06      	ldr	r2, [pc, #24]	; (10001e30 <runtime_init_early_resets+0x24>)
10001e16:	4b07      	ldr	r3, [pc, #28]	; (10001e34 <runtime_init_early_resets+0x28>)
10001e18:	601a      	str	r2, [r3, #0]
10001e1a:	0010      	movs	r0, r2
10001e1c:	680b      	ldr	r3, [r1, #0]
10001e1e:	4398      	bics	r0, r3
10001e20:	d1fb      	bne.n	10001e1a <runtime_init_early_resets+0xe>
10001e22:	4770      	bx	lr
10001e24:	4000e000 	.word	0x4000e000
10001e28:	fefbcdbf 	.word	0xfefbcdbf
10001e2c:	4000c008 	.word	0x4000c008
10001e30:	003c7ffe 	.word	0x003c7ffe
10001e34:	4000f000 	.word	0x4000f000

10001e38 <runtime_init_usb_power_down>:
10001e38:	4b04      	ldr	r3, [pc, #16]	; (10001e4c <runtime_init_usb_power_down+0x14>)
10001e3a:	6cdb      	ldr	r3, [r3, #76]	; 0x4c
10001e3c:	2b00      	cmp	r3, #0
10001e3e:	d103      	bne.n	10001e48 <runtime_init_usb_power_down+0x10>
10001e40:	2280      	movs	r2, #128	; 0x80
10001e42:	4b03      	ldr	r3, [pc, #12]	; (10001e50 <runtime_init_usb_power_down+0x18>)
10001e44:	02d2      	lsls	r2, r2, #11
10001e46:	601a      	str	r2, [r3, #0]
10001e48:	4770      	bx	lr
10001e4a:	46c0      	nop			; (mov r8, r8)
10001e4c:	50110000 	.word	0x50110000
10001e50:	5011204c 	.word	0x5011204c

10001e54 <runtime_init_post_clock_resets>:
10001e54:	4a04      	ldr	r2, [pc, #16]	; (10001e68 <runtime_init_post_clock_resets+0x14>)
10001e56:	4b05      	ldr	r3, [pc, #20]	; (10001e6c <runtime_init_post_clock_resets+0x18>)
10001e58:	601a      	str	r2, [r3, #0]
10001e5a:	4a05      	ldr	r2, [pc, #20]	; (10001e70 <runtime_init_post_clock_resets+0x1c>)
10001e5c:	6813      	ldr	r3, [r2, #0]
10001e5e:	01db      	lsls	r3, r3, #7
10001e60:	3380      	adds	r3, #128	; 0x80
10001e62:	d1fb      	bne.n	10001e5c <runtime_init_post_clock_resets+0x8>
10001e64:	4770      	bx	lr
10001e66:	46c0      	nop			; (mov r8, r8)
10001e68:	01ffffff 	.word	0x01ffffff
10001e6c:	4000f000 	.word	0x4000f000
10001e70:	4000c008 	.word	0x4000c008

10001e74 <runtime_init_rp2040_gpio_ie_disable>:
10001e74:	2240      	movs	r2, #64	; 0x40
10001e76:	4b03      	ldr	r3, [pc, #12]	; (10001e84 <runtime_init_rp2040_gpio_ie_disable+0x10>)
10001e78:	679a      	str	r2, [r3, #120]	; 0x78
10001e7a:	675a      	str	r2, [r3, #116]	; 0x74
10001e7c:	671a      	str	r2, [r3, #112]	; 0x70
10001e7e:	66da      	str	r2, [r3, #108]	; 0x6c
10001e80:	4770      	bx	lr
10001e82:	46c0      	nop			; (mov r8, r8)
10001e84:	4001f000 	.word	0x4001f000

10001e88 <runtime_init_spin_locks_reset>:
10001e88:	b510      	push	{r4, lr}
10001e8a:	f7fe fe9d 	bl	10000bc8 <spin_locks_reset>
10001e8e:	bd10      	pop	{r4, pc}

10001e90 <runtime_init_install_ram_vector_table>:
10001e90:	b570      	push	{r4, r5, r6, lr}
10001e92:	490c      	ldr	r1, [pc, #48]	; (10001ec4 <runtime_init_install_ram_vector_table+0x34>)
10001e94:	4c0c      	ldr	r4, [pc, #48]	; (10001ec8 <runtime_init_install_ram_vector_table+0x38>)
10001e96:	4d0d      	ldr	r5, [pc, #52]	; (10001ecc <runtime_init_install_ram_vector_table+0x3c>)
10001e98:	1a64      	subs	r4, r4, r1
10001e9a:	10a6      	asrs	r6, r4, #2
10001e9c:	0032      	movs	r2, r6
10001e9e:	2e30      	cmp	r6, #48	; 0x30
10001ea0:	d900      	bls.n	10001ea4 <runtime_init_install_ram_vector_table+0x14>
10001ea2:	2230      	movs	r2, #48	; 0x30
10001ea4:	0092      	lsls	r2, r2, #2
10001ea6:	0028      	movs	r0, r5
10001ea8:	f000 f996 	bl	100021d8 <__wrap___aeabi_memcpy>
10001eac:	2e2f      	cmp	r6, #47	; 0x2f
10001eae:	d806      	bhi.n	10001ebe <runtime_init_install_ram_vector_table+0x2e>
10001eb0:	002a      	movs	r2, r5
10001eb2:	4907      	ldr	r1, [pc, #28]	; (10001ed0 <runtime_init_install_ram_vector_table+0x40>)
10001eb4:	192c      	adds	r4, r5, r4
10001eb6:	32c0      	adds	r2, #192	; 0xc0
10001eb8:	c402      	stmia	r4!, {r1}
10001eba:	4294      	cmp	r4, r2
10001ebc:	d1fc      	bne.n	10001eb8 <runtime_init_install_ram_vector_table+0x28>
10001ebe:	4b05      	ldr	r3, [pc, #20]	; (10001ed4 <runtime_init_install_ram_vector_table+0x44>)
10001ec0:	609d      	str	r5, [r3, #8]
10001ec2:	bd70      	pop	{r4, r5, r6, pc}
10001ec4:	10000100 	.word	0x10000100
10001ec8:	100001c0 	.word	0x100001c0
10001ecc:	20000000 	.word	0x20000000
10001ed0:	100001c1 	.word	0x100001c1
10001ed4:	e000ed00 	.word	0xe000ed00

10001ed8 <runtime_init_clocks>:
10001ed8:	2300      	movs	r3, #0
10001eda:	b510      	push	{r4, lr}
10001edc:	4c29      	ldr	r4, [pc, #164]	; (10001f84 <runtime_init_clocks+0xac>)
10001ede:	b082      	sub	sp, #8
10001ee0:	67a3      	str	r3, [r4, #120]	; 0x78
10001ee2:	f7ff ff63 	bl	10001dac <xosc_init>
10001ee6:	2201      	movs	r2, #1
10001ee8:	4b27      	ldr	r3, [pc, #156]	; (10001f88 <runtime_init_clocks+0xb0>)
10001eea:	601a      	str	r2, [r3, #0]
10001eec:	6c63      	ldr	r3, [r4, #68]	; 0x44
10001eee:	2b01      	cmp	r3, #1
10001ef0:	d1fc      	bne.n	10001eec <runtime_init_clocks+0x14>
10001ef2:	2203      	movs	r2, #3
10001ef4:	4b25      	ldr	r3, [pc, #148]	; (10001f8c <runtime_init_clocks+0xb4>)
10001ef6:	601a      	str	r2, [r3, #0]
10001ef8:	4a22      	ldr	r2, [pc, #136]	; (10001f84 <runtime_init_clocks+0xac>)
10001efa:	6b93      	ldr	r3, [r2, #56]	; 0x38
10001efc:	2b01      	cmp	r3, #1
10001efe:	d1fc      	bne.n	10001efa <runtime_init_clocks+0x22>
10001f00:	3301      	adds	r3, #1
10001f02:	9300      	str	r3, [sp, #0]
10001f04:	4a22      	ldr	r2, [pc, #136]	; (10001f90 <runtime_init_clocks+0xb8>)
10001f06:	3304      	adds	r3, #4
10001f08:	2101      	movs	r1, #1
10001f0a:	4822      	ldr	r0, [pc, #136]	; (10001f94 <runtime_init_clocks+0xbc>)
10001f0c:	f7ff fe68 	bl	10001be0 <pll_init>
10001f10:	2305      	movs	r3, #5
10001f12:	4a21      	ldr	r2, [pc, #132]	; (10001f98 <runtime_init_clocks+0xc0>)
10001f14:	9300      	str	r3, [sp, #0]
10001f16:	2101      	movs	r1, #1
10001f18:	4820      	ldr	r0, [pc, #128]	; (10001f9c <runtime_init_clocks+0xc4>)
10001f1a:	f7ff fe61 	bl	10001be0 <pll_init>
10001f1e:	4b20      	ldr	r3, [pc, #128]	; (10001fa0 <runtime_init_clocks+0xc8>)
10001f20:	2200      	movs	r2, #0
10001f22:	2102      	movs	r1, #2
10001f24:	2004      	movs	r0, #4
10001f26:	f7ff fde1 	bl	10001aec <clock_configure_undivided>
10001f2a:	4b1e      	ldr	r3, [pc, #120]	; (10001fa4 <runtime_init_clocks+0xcc>)
10001f2c:	2200      	movs	r2, #0
10001f2e:	2101      	movs	r1, #1
10001f30:	2005      	movs	r0, #5
10001f32:	f7ff fddb 	bl	10001aec <clock_configure_undivided>
10001f36:	4b1c      	ldr	r3, [pc, #112]	; (10001fa8 <runtime_init_clocks+0xd0>)
10001f38:	2200      	movs	r2, #0
10001f3a:	2100      	movs	r1, #0
10001f3c:	2007      	movs	r0, #7
10001f3e:	f7ff fdd5 	bl	10001aec <clock_configure_undivided>
10001f42:	4b19      	ldr	r3, [pc, #100]	; (10001fa8 <runtime_init_clocks+0xd0>)
10001f44:	2200      	movs	r2, #0
10001f46:	2100      	movs	r1, #0
10001f48:	2008      	movs	r0, #8
10001f4a:	f7ff fdcf 	bl	10001aec <clock_configure_undivided>
10001f4e:	2380      	movs	r3, #128	; 0x80
10001f50:	00db      	lsls	r3, r3, #3
10001f52:	9300      	str	r3, [sp, #0]
10001f54:	2200      	movs	r2, #0
10001f56:	4b14      	ldr	r3, [pc, #80]	; (10001fa8 <runtime_init_clocks+0xd0>)
10001f58:	2100      	movs	r1, #0
10001f5a:	2009      	movs	r0, #9
10001f5c:	f7ff fd4e 	bl	100019fc <clock_configure_int_divider>
10001f60:	4b10      	ldr	r3, [pc, #64]	; (10001fa4 <runtime_init_clocks+0xcc>)
10001f62:	2200      	movs	r2, #0
10001f64:	2100      	movs	r1, #0
10001f66:	2006      	movs	r0, #6
10001f68:	f7ff fdc0 	bl	10001aec <clock_configure_undivided>
10001f6c:	2004      	movs	r0, #4
10001f6e:	f7ff fe31 	bl	10001bd4 <clock_get_hz>
10001f72:	490e      	ldr	r1, [pc, #56]	; (10001fac <runtime_init_clocks+0xd4>)
10001f74:	f000 f84c 	bl	10002010 <__wrap___aeabi_uidiv>
10001f78:	0001      	movs	r1, r0
10001f7a:	2000      	movs	r0, #0
10001f7c:	f7ff fecc 	bl	10001d18 <tick_start>
10001f80:	b002      	add	sp, #8
10001f82:	bd10      	pop	{r4, pc}
10001f84:	40008000 	.word	0x40008000
10001f88:	4000b03c 	.word	0x4000b03c
10001f8c:	4000b030 	.word	0x4000b030
10001f90:	59682f00 	.word	0x59682f00
10001f94:	40028000 	.word	0x40028000
10001f98:	47868c00 	.word	0x47868c00
10001f9c:	4002c000 	.word	0x4002c000
10001fa0:	00b71b00 	.word	0x00b71b00
10001fa4:	07735940 	.word	0x07735940
10001fa8:	02dc6c00 	.word	0x02dc6c00
10001fac:	000f4240 	.word	0x000f4240

10001fb0 <__aeabi_bits_init>:
10001fb0:	4801      	ldr	r0, [pc, #4]	; (10001fb8 <__aeabi_bits_init+0x8>)
10001fb2:	2104      	movs	r1, #4
10001fb4:	4b01      	ldr	r3, [pc, #4]	; (10001fbc <__aeabi_bits_init+0xc>)
10001fb6:	4718      	bx	r3
10001fb8:	200010e0 	.word	0x200010e0
10001fbc:	10001d49 	.word	0x10001d49

10001fc0 <__wrap___aeabi_idiv>:
10001fc0:	4a12      	ldr	r2, [pc, #72]	; (1000200c <divmod_s32s32_savestate+0x18>)
10001fc2:	6f93      	ldr	r3, [r2, #120]	; 0x78
10001fc4:	089b      	lsrs	r3, r3, #2
10001fc6:	d215      	bcs.n	10001ff4 <divmod_s32s32_savestate>

10001fc8 <divmod_s32s32_unsafe>:
10001fc8:	6690      	str	r0, [r2, #104]	; 0x68
10001fca:	66d1      	str	r1, [r2, #108]	; 0x6c
10001fcc:	2900      	cmp	r1, #0
10001fce:	d005      	beq.n	10001fdc <divmod_s32s32_unsafe+0x14>
10001fd0:	e7ff      	b.n	10001fd2 <divmod_s32s32_unsafe+0xa>
10001fd2:	e7ff      	b.n	10001fd4 <divmod_s32s32_unsafe+0xc>
10001fd4:	e7ff      	b.n	10001fd6 <divmod_s32s32_unsafe+0xe>
10001fd6:	6f51      	ldr	r1, [r2, #116]	; 0x74
10001fd8:	6f10      	ldr	r0, [r2, #112]	; 0x70
10001fda:	4770      	bx	lr
10001fdc:	b504      	push	{r2, lr}
10001fde:	2180      	movs	r1, #128	; 0x80
10001fe0:	0609      	lsls	r1, r1, #24
10001fe2:	17c2      	asrs	r2, r0, #31
10001fe4:	4051      	eors	r1, r2
10001fe6:	2800      	cmp	r0, #0
10001fe8:	d000      	beq.n	10001fec <divmod_s32s32_unsafe+0x24>
10001fea:	43c8      	mvns	r0, r1
10001fec:	f002 ff3c 	bl	10004e68 <____aeabi_idiv0_veneer>
10001ff0:	2100      	movs	r1, #0
10001ff2:	bd04      	pop	{r2, pc}

10001ff4 <divmod_s32s32_savestate>:
10001ff4:	b5f0      	push	{r4, r5, r6, r7, lr}
10001ff6:	6e14      	ldr	r4, [r2, #96]	; 0x60
10001ff8:	6e55      	ldr	r5, [r2, #100]	; 0x64
10001ffa:	6f57      	ldr	r7, [r2, #116]	; 0x74
10001ffc:	6f16      	ldr	r6, [r2, #112]	; 0x70
10001ffe:	f7ff ffe3 	bl	10001fc8 <divmod_s32s32_unsafe>
10002002:	6614      	str	r4, [r2, #96]	; 0x60
10002004:	6655      	str	r5, [r2, #100]	; 0x64
10002006:	6757      	str	r7, [r2, #116]	; 0x74
10002008:	6716      	str	r6, [r2, #112]	; 0x70
1000200a:	bdf0      	pop	{r4, r5, r6, r7, pc}
1000200c:	d0000000 	.word	0xd0000000

10002010 <__wrap___aeabi_uidiv>:
10002010:	4a11      	ldr	r2, [pc, #68]	; (10002058 <divmod_u32u32_savestate+0x18>)
10002012:	6f93      	ldr	r3, [r2, #120]	; 0x78
10002014:	089b      	lsrs	r3, r3, #2
10002016:	d213      	bcs.n	10002040 <divmod_u32u32_savestate>

10002018 <divmod_u32u32_unsafe>:
10002018:	6610      	str	r0, [r2, #96]	; 0x60
1000201a:	6651      	str	r1, [r2, #100]	; 0x64
1000201c:	2900      	cmp	r1, #0
1000201e:	d005      	beq.n	1000202c <divmod_u32u32_unsafe+0x14>
10002020:	e7ff      	b.n	10002022 <divmod_u32u32_unsafe+0xa>
10002022:	e7ff      	b.n	10002024 <divmod_u32u32_unsafe+0xc>
10002024:	e7ff      	b.n	10002026 <divmod_u32u32_unsafe+0xe>
10002026:	6f51      	ldr	r1, [r2, #116]	; 0x74
10002028:	6f10      	ldr	r0, [r2, #112]	; 0x70
1000202a:	4770      	bx	lr
1000202c:	b504      	push	{r2, lr}
1000202e:	2800      	cmp	r0, #0
10002030:	d001      	beq.n	10002036 <divmod_u32u32_unsafe+0x1e>
10002032:	2000      	movs	r0, #0
10002034:	43c0      	mvns	r0, r0
10002036:	f002 ff17 	bl	10004e68 <____aeabi_idiv0_veneer>
1000203a:	2100      	movs	r1, #0
1000203c:	bd04      	pop	{r2, pc}
1000203e:	46c0      	nop			; (mov r8, r8)

10002040 <divmod_u32u32_savestate>:
10002040:	b5f0      	push	{r4, r5, r6, r7, lr}
10002042:	6e14      	ldr	r4, [r2, #96]	; 0x60
10002044:	6e55      	ldr	r5, [r2, #100]	; 0x64
10002046:	6f57      	ldr	r7, [r2, #116]	; 0x74
10002048:	6f16      	ldr	r6, [r2, #112]	; 0x70
1000204a:	f7ff ffe5 	bl	10002018 <divmod_u32u32_unsafe>
1000204e:	6614      	str	r4, [r2, #96]	; 0x60
10002050:	6655      	str	r5, [r2, #100]	; 0x64
10002052:	6757      	str	r7, [r2, #116]	; 0x74
10002054:	6716      	str	r6, [r2, #112]	; 0x70
10002056:	bdf0      	pop	{r4, r5, r6, r7, pc}
10002058:	d0000000 	.word	0xd0000000

1000205c <__aeabi_double_init>:
1000205c:	2313      	movs	r3, #19
1000205e:	b570      	push	{r4, r5, r6, lr}
10002060:	781c      	ldrb	r4, [r3, #0]
10002062:	2c01      	cmp	r4, #1
10002064:	d015      	beq.n	10002092 <__aeabi_double_init+0x36>
10002066:	dd1e      	ble.n	100020a6 <__aeabi_double_init+0x4a>
10002068:	4811      	ldr	r0, [pc, #68]	; (100020b0 <__aeabi_double_init+0x54>)
1000206a:	f7ff fe65 	bl	10001d38 <rom_data_lookup>
1000206e:	0006      	movs	r6, r0
10002070:	4810      	ldr	r0, [pc, #64]	; (100020b4 <__aeabi_double_init+0x58>)
10002072:	f7ff fe61 	bl	10001d38 <rom_data_lookup>
10002076:	4d10      	ldr	r5, [pc, #64]	; (100020b8 <__aeabi_double_init+0x5c>)
10002078:	2280      	movs	r2, #128	; 0x80
1000207a:	0031      	movs	r1, r6
1000207c:	0028      	movs	r0, r5
1000207e:	f000 f8ab 	bl	100021d8 <__wrap___aeabi_memcpy>
10002082:	2c02      	cmp	r4, #2
10002084:	d010      	beq.n	100020a8 <__aeabi_double_init+0x4c>
10002086:	480d      	ldr	r0, [pc, #52]	; (100020bc <__aeabi_double_init+0x60>)
10002088:	f7ff fe4e 	bl	10001d28 <rom_func_lookup>
1000208c:	4b0c      	ldr	r3, [pc, #48]	; (100020c0 <__aeabi_double_init+0x64>)
1000208e:	6018      	str	r0, [r3, #0]
10002090:	bd70      	pop	{r4, r5, r6, pc}
10002092:	4d09      	ldr	r5, [pc, #36]	; (100020b8 <__aeabi_double_init+0x5c>)
10002094:	4a0b      	ldr	r2, [pc, #44]	; (100020c4 <__aeabi_double_init+0x68>)
10002096:	0029      	movs	r1, r5
10002098:	002b      	movs	r3, r5
1000209a:	3180      	adds	r1, #128	; 0x80
1000209c:	c304      	stmia	r3!, {r2}
1000209e:	428b      	cmp	r3, r1
100020a0:	d1fc      	bne.n	1000209c <__aeabi_double_init+0x40>
100020a2:	64aa      	str	r2, [r5, #72]	; 0x48
100020a4:	e7ef      	b.n	10002086 <__aeabi_double_init+0x2a>
100020a6:	4d04      	ldr	r5, [pc, #16]	; (100020b8 <__aeabi_double_init+0x5c>)
100020a8:	4a06      	ldr	r2, [pc, #24]	; (100020c4 <__aeabi_double_init+0x68>)
100020aa:	64aa      	str	r2, [r5, #72]	; 0x48
100020ac:	e7eb      	b.n	10002086 <__aeabi_double_init+0x2a>
100020ae:	46c0      	nop			; (mov r8, r8)
100020b0:	00004453 	.word	0x00004453
100020b4:	00004653 	.word	0x00004653
100020b8:	20002228 	.word	0x20002228
100020bc:	0000334c 	.word	0x0000334c
100020c0:	20001e1c 	.word	0x20001e1c
100020c4:	100020c9 	.word	0x100020c9

100020c8 <double_table_shim_on_use_helper>:
100020c8:	b507      	push	{r0, r1, r2, lr}
100020ca:	4660      	mov	r0, ip
100020cc:	8801      	ldrh	r1, [r0, #0]
100020ce:	0a0a      	lsrs	r2, r1, #8
100020d0:	3002      	adds	r0, #2
100020d2:	2adf      	cmp	r2, #223	; 0xdf
100020d4:	d1fa      	bne.n	100020cc <double_table_shim_on_use_helper+0x4>
100020d6:	b2c9      	uxtb	r1, r1
100020d8:	0882      	lsrs	r2, r0, #2
100020da:	d304      	bcc.n	100020e6 <double_table_shim_on_use_helper+0x1e>
100020dc:	8802      	ldrh	r2, [r0, #0]
100020de:	8840      	ldrh	r0, [r0, #2]
100020e0:	0400      	lsls	r0, r0, #16
100020e2:	4310      	orrs	r0, r2
100020e4:	e000      	b.n	100020e8 <double_table_shim_on_use_helper+0x20>
100020e6:	6800      	ldr	r0, [r0, #0]
100020e8:	4a01      	ldr	r2, [pc, #4]	; (100020f0 <double_table_shim_on_use_helper+0x28>)
100020ea:	5050      	str	r0, [r2, r1]
100020ec:	9003      	str	r0, [sp, #12]
100020ee:	bd07      	pop	{r0, r1, r2, pc}
100020f0:	20002228 	.word	0x20002228

100020f4 <__wrap___aeabi_lmul>:
100020f4:	4351      	muls	r1, r2
100020f6:	4343      	muls	r3, r0
100020f8:	18c9      	adds	r1, r1, r3
100020fa:	468c      	mov	ip, r1
100020fc:	0c11      	lsrs	r1, r2, #16
100020fe:	b283      	uxth	r3, r0
10002100:	434b      	muls	r3, r1
10002102:	b410      	push	{r4}
10002104:	0c04      	lsrs	r4, r0, #16
10002106:	4361      	muls	r1, r4
10002108:	b292      	uxth	r2, r2
1000210a:	b280      	uxth	r0, r0
1000210c:	4350      	muls	r0, r2
1000210e:	4362      	muls	r2, r4
10002110:	041c      	lsls	r4, r3, #16
10002112:	0c1b      	lsrs	r3, r3, #16
10002114:	1900      	adds	r0, r0, r4
10002116:	bc10      	pop	{r4}
10002118:	4159      	adcs	r1, r3
1000211a:	0413      	lsls	r3, r2, #16
1000211c:	0c12      	lsrs	r2, r2, #16
1000211e:	18c0      	adds	r0, r0, r3
10002120:	4151      	adcs	r1, r2
10002122:	4461      	add	r1, ip
10002124:	4770      	bx	lr
	...

10002128 <__aeabi_float_init>:
10002128:	2313      	movs	r3, #19
1000212a:	b510      	push	{r4, lr}
1000212c:	781c      	ldrb	r4, [r3, #0]
1000212e:	4813      	ldr	r0, [pc, #76]	; (1000217c <__aeabi_float_init+0x54>)
10002130:	f7ff fe02 	bl	10001d38 <rom_data_lookup>
10002134:	2c01      	cmp	r4, #1
10002136:	d00b      	beq.n	10002150 <__aeabi_float_init+0x28>
10002138:	dd04      	ble.n	10002144 <__aeabi_float_init+0x1c>
1000213a:	0001      	movs	r1, r0
1000213c:	2280      	movs	r2, #128	; 0x80
1000213e:	4810      	ldr	r0, [pc, #64]	; (10002180 <__aeabi_float_init+0x58>)
10002140:	f000 f84a 	bl	100021d8 <__wrap___aeabi_memcpy>
10002144:	480f      	ldr	r0, [pc, #60]	; (10002184 <__aeabi_float_init+0x5c>)
10002146:	f7ff fdef 	bl	10001d28 <rom_func_lookup>
1000214a:	4b0f      	ldr	r3, [pc, #60]	; (10002188 <__aeabi_float_init+0x60>)
1000214c:	6018      	str	r0, [r3, #0]
1000214e:	bd10      	pop	{r4, pc}
10002150:	4c0b      	ldr	r4, [pc, #44]	; (10002180 <__aeabi_float_init+0x58>)
10002152:	0001      	movs	r1, r0
10002154:	2254      	movs	r2, #84	; 0x54
10002156:	0020      	movs	r0, r4
10002158:	f000 f83e 	bl	100021d8 <__wrap___aeabi_memcpy>
1000215c:	4b0b      	ldr	r3, [pc, #44]	; (1000218c <__aeabi_float_init+0x64>)
1000215e:	6563      	str	r3, [r4, #84]	; 0x54
10002160:	65a3      	str	r3, [r4, #88]	; 0x58
10002162:	65e3      	str	r3, [r4, #92]	; 0x5c
10002164:	6623      	str	r3, [r4, #96]	; 0x60
10002166:	6663      	str	r3, [r4, #100]	; 0x64
10002168:	66a3      	str	r3, [r4, #104]	; 0x68
1000216a:	66e3      	str	r3, [r4, #108]	; 0x6c
1000216c:	6723      	str	r3, [r4, #112]	; 0x70
1000216e:	6763      	str	r3, [r4, #116]	; 0x74
10002170:	67a3      	str	r3, [r4, #120]	; 0x78
10002172:	67e3      	str	r3, [r4, #124]	; 0x7c
10002174:	6223      	str	r3, [r4, #32]
10002176:	61e3      	str	r3, [r4, #28]
10002178:	e7e4      	b.n	10002144 <__aeabi_float_init+0x1c>
1000217a:	46c0      	nop			; (mov r8, r8)
1000217c:	00004653 	.word	0x00004653
10002180:	20002328 	.word	0x20002328
10002184:	0000334c 	.word	0x0000334c
10002188:	20001e1c 	.word	0x20001e1c
1000218c:	10002191 	.word	0x10002191

10002190 <float_table_shim_on_use_helper>:
10002190:	b507      	push	{r0, r1, r2, lr}
10002192:	4660      	mov	r0, ip
10002194:	8801      	ldrh	r1, [r0, #0]
10002196:	0a0a      	lsrs	r2, r1, #8
10002198:	3002      	adds	r0, #2
1000219a:	2adf      	cmp	r2, #223	; 0xdf
1000219c:	d1fa      	bne.n	10002194 <float_table_shim_on_use_helper+0x4>
1000219e:	b2c9      	uxtb	r1, r1
100021a0:	0882      	lsrs	r2, r0, #2
100021a2:	d304      	bcc.n	100021ae <float_table_shim_on_use_helper+0x1e>
100021a4:	8802      	ldrh	r2, [r0, #0]
100021a6:	8840      	ldrh	r0, [r0, #2]
100021a8:	0400      	lsls	r0, r0, #16
100021aa:	4310      	orrs	r0, r2
100021ac:	e000      	b.n	100021b0 <float_table_shim_on_use_helper+0x20>
100021ae:	6800      	ldr	r0, [r0, #0]
100021b0:	4a01      	ldr	r2, [pc, #4]	; (100021b8 <float_table_shim_on_use_helper+0x28>)
100021b2:	5050      	str	r0, [r2, r1]
100021b4:	9003      	str	r0, [sp, #12]
100021b6:	bd07      	pop	{r0, r1, r2, pc}
100021b8:	20002328 	.word	0x20002328

100021bc <__aeabi_mem_init>:
100021bc:	4801      	ldr	r0, [pc, #4]	; (100021c4 <__aeabi_mem_init+0x8>)
100021be:	2104      	movs	r1, #4
100021c0:	4b01      	ldr	r3, [pc, #4]	; (100021c8 <__aeabi_mem_init+0xc>)
100021c2:	4718      	bx	r3
100021c4:	200010f0 	.word	0x200010f0
100021c8:	10001d49 	.word	0x10001d49

100021cc <__wrap_memset>:
100021cc:	4b01      	ldr	r3, [pc, #4]	; (100021d4 <__wrap_memset+0x8>)
100021ce:	681b      	ldr	r3, [r3, #0]
100021d0:	4718      	bx	r3
100021d2:	0000      	.short	0x0000
100021d4:	200010f0 	.word	0x200010f0

100021d8 <__wrap___aeabi_memcpy>:
100021d8:	4b01      	ldr	r3, [pc, #4]	; (100021e0 <__wrap___aeabi_memcpy+0x8>)
100021da:	685b      	ldr	r3, [r3, #4]
100021dc:	4718      	bx	r3
100021de:	0000      	.short	0x0000
100021e0:	200010f0 	.word	0x200010f0

100021e4 <_out_char>:
100021e4:	b510      	push	{r4, lr}
100021e6:	2800      	cmp	r0, #0
100021e8:	d001      	beq.n	100021ee <_out_char+0xa>
100021ea:	f000 f925 	bl	10002438 <__wrap_putchar>
100021ee:	bd10      	pop	{r4, pc}

100021f0 <weak_raw_vprintf>:
100021f0:	b510      	push	{r4, lr}
100021f2:	4a09      	ldr	r2, [pc, #36]	; (10002218 <weak_raw_vprintf+0x28>)
100021f4:	b084      	sub	sp, #16
100021f6:	6814      	ldr	r4, [r2, #0]
100021f8:	2c00      	cmp	r4, #0
100021fa:	d009      	beq.n	10002210 <weak_raw_vprintf+0x20>
100021fc:	2201      	movs	r2, #1
100021fe:	9100      	str	r1, [sp, #0]
10002200:	0003      	movs	r3, r0
10002202:	4252      	negs	r2, r2
10002204:	a903      	add	r1, sp, #12
10002206:	4805      	ldr	r0, [pc, #20]	; (1000221c <weak_raw_vprintf+0x2c>)
10002208:	47a0      	blx	r4
1000220a:	2001      	movs	r0, #1
1000220c:	b004      	add	sp, #16
1000220e:	bd10      	pop	{r4, pc}
10002210:	f000 f95c 	bl	100024cc <__wrap_puts>
10002214:	2000      	movs	r0, #0
10002216:	e7f9      	b.n	1000220c <weak_raw_vprintf+0x1c>
10002218:	20001df0 	.word	0x20001df0
1000221c:	100021e5 	.word	0x100021e5

10002220 <_exit>:
10002220:	be00      	bkpt	0x0000
10002222:	e7fd      	b.n	10002220 <_exit>

10002224 <exit>:
10002224:	b510      	push	{r4, lr}
10002226:	f7ff fffb 	bl	10002220 <_exit>
1000222a:	46c0      	nop			; (mov r8, r8)

1000222c <runtime_init>:
1000222c:	b570      	push	{r4, r5, r6, lr}
1000222e:	f7ff fdd9 	bl	10001de4 <runtime_run_initializers>
10002232:	4c07      	ldr	r4, [pc, #28]	; (10002250 <runtime_init+0x24>)
10002234:	4d07      	ldr	r5, [pc, #28]	; (10002254 <runtime_init+0x28>)
10002236:	42ac      	cmp	r4, r5
10002238:	d209      	bcs.n	1000224e <runtime_init+0x22>
1000223a:	2203      	movs	r2, #3
1000223c:	1d23      	adds	r3, r4, #4
1000223e:	3503      	adds	r5, #3
10002240:	1aed      	subs	r5, r5, r3
10002242:	4395      	bics	r5, r2
10002244:	18ed      	adds	r5, r5, r3
10002246:	cc08      	ldmia	r4!, {r3}
10002248:	4798      	blx	r3
1000224a:	42ac      	cmp	r4, r5
1000224c:	d1fb      	bne.n	10002246 <runtime_init+0x1a>
1000224e:	bd70      	pop	{r4, r5, r6, pc}
10002250:	10004f34 	.word	0x10004f34
10002254:	10004f3c 	.word	0x10004f3c

10002258 <stdio_out_chars_no_crlf>:
10002258:	0003      	movs	r3, r0
1000225a:	b510      	push	{r4, lr}
1000225c:	0008      	movs	r0, r1
1000225e:	681b      	ldr	r3, [r3, #0]
10002260:	0011      	movs	r1, r2
10002262:	4798      	blx	r3
10002264:	bd10      	pop	{r4, pc}
10002266:	46c0      	nop			; (mov r8, r8)

10002268 <stdio_out_chars_crlf>:
10002268:	b5f0      	push	{r4, r5, r6, r7, lr}
1000226a:	46c6      	mov	lr, r8
1000226c:	b500      	push	{lr}
1000226e:	7d43      	ldrb	r3, [r0, #21]
10002270:	0006      	movs	r6, r0
10002272:	000c      	movs	r4, r1
10002274:	0015      	movs	r5, r2
10002276:	2b00      	cmp	r3, #0
10002278:	d106      	bne.n	10002288 <stdio_out_chars_crlf+0x20>
1000227a:	6803      	ldr	r3, [r0, #0]
1000227c:	0011      	movs	r1, r2
1000227e:	0020      	movs	r0, r4
10002280:	4798      	blx	r3
10002282:	bc04      	pop	{r2}
10002284:	4690      	mov	r8, r2
10002286:	bdf0      	pop	{r4, r5, r6, r7, pc}
10002288:	2a00      	cmp	r2, #0
1000228a:	ddfa      	ble.n	10002282 <stdio_out_chars_crlf+0x1a>
1000228c:	780a      	ldrb	r2, [r1, #0]
1000228e:	7d03      	ldrb	r3, [r0, #20]
10002290:	2000      	movs	r0, #0
10002292:	2a0a      	cmp	r2, #10
10002294:	d02c      	beq.n	100022f0 <stdio_out_chars_crlf+0x88>
10002296:	2101      	movs	r1, #1
10002298:	2d01      	cmp	r5, #1
1000229a:	d01b      	beq.n	100022d4 <stdio_out_chars_crlf+0x6c>
1000229c:	4b18      	ldr	r3, [pc, #96]	; (10002300 <stdio_out_chars_crlf+0x98>)
1000229e:	4698      	mov	r8, r3
100022a0:	e002      	b.n	100022a8 <stdio_out_chars_crlf+0x40>
100022a2:	0039      	movs	r1, r7
100022a4:	42bd      	cmp	r5, r7
100022a6:	d015      	beq.n	100022d4 <stdio_out_chars_crlf+0x6c>
100022a8:	1e4b      	subs	r3, r1, #1
100022aa:	5ce2      	ldrb	r2, [r4, r3]
100022ac:	5c63      	ldrb	r3, [r4, r1]
100022ae:	1c4f      	adds	r7, r1, #1
100022b0:	2b0a      	cmp	r3, #10
100022b2:	d1f6      	bne.n	100022a2 <stdio_out_chars_crlf+0x3a>
100022b4:	2a0d      	cmp	r2, #13
100022b6:	d0f4      	beq.n	100022a2 <stdio_out_chars_crlf+0x3a>
100022b8:	6833      	ldr	r3, [r6, #0]
100022ba:	4288      	cmp	r0, r1
100022bc:	da03      	bge.n	100022c6 <stdio_out_chars_crlf+0x5e>
100022be:	1a09      	subs	r1, r1, r0
100022c0:	1820      	adds	r0, r4, r0
100022c2:	4798      	blx	r3
100022c4:	6833      	ldr	r3, [r6, #0]
100022c6:	2102      	movs	r1, #2
100022c8:	4640      	mov	r0, r8
100022ca:	4798      	blx	r3
100022cc:	0038      	movs	r0, r7
100022ce:	0039      	movs	r1, r7
100022d0:	42bd      	cmp	r5, r7
100022d2:	d1e9      	bne.n	100022a8 <stdio_out_chars_crlf+0x40>
100022d4:	4285      	cmp	r5, r0
100022d6:	dd03      	ble.n	100022e0 <stdio_out_chars_crlf+0x78>
100022d8:	1a29      	subs	r1, r5, r0
100022da:	6833      	ldr	r3, [r6, #0]
100022dc:	1820      	adds	r0, r4, r0
100022de:	4798      	blx	r3
100022e0:	1964      	adds	r4, r4, r5
100022e2:	3c01      	subs	r4, #1
100022e4:	7823      	ldrb	r3, [r4, #0]
100022e6:	3b0d      	subs	r3, #13
100022e8:	425a      	negs	r2, r3
100022ea:	4153      	adcs	r3, r2
100022ec:	7533      	strb	r3, [r6, #20]
100022ee:	e7c8      	b.n	10002282 <stdio_out_chars_crlf+0x1a>
100022f0:	2b00      	cmp	r3, #0
100022f2:	d1d0      	bne.n	10002296 <stdio_out_chars_crlf+0x2e>
100022f4:	4802      	ldr	r0, [pc, #8]	; (10002300 <stdio_out_chars_crlf+0x98>)
100022f6:	2102      	movs	r1, #2
100022f8:	6833      	ldr	r3, [r6, #0]
100022fa:	4798      	blx	r3
100022fc:	2001      	movs	r0, #1
100022fe:	e7ca      	b.n	10002296 <stdio_out_chars_crlf+0x2e>
10002300:	100051a4 	.word	0x100051a4

10002304 <stdio_put_string>:
10002304:	b5f0      	push	{r4, r5, r6, r7, lr}
10002306:	46de      	mov	lr, fp
10002308:	4657      	mov	r7, sl
1000230a:	464e      	mov	r6, r9
1000230c:	4645      	mov	r5, r8
1000230e:	b5e0      	push	{r5, r6, r7, lr}
10002310:	b085      	sub	sp, #20
10002312:	0015      	movs	r5, r2
10002314:	001c      	movs	r4, r3
10002316:	0007      	movs	r7, r0
10002318:	000e      	movs	r6, r1
1000231a:	f7ff fa97 	bl	1000184c <time_us_64>
1000231e:	2300      	movs	r3, #0
10002320:	4a30      	ldr	r2, [pc, #192]	; (100023e4 <stdio_put_string+0xe0>)
10002322:	1812      	adds	r2, r2, r0
10002324:	414b      	adcs	r3, r1
10002326:	2b00      	cmp	r3, #0
10002328:	da02      	bge.n	10002330 <stdio_put_string+0x2c>
1000232a:	2201      	movs	r2, #1
1000232c:	4b2e      	ldr	r3, [pc, #184]	; (100023e8 <stdio_put_string+0xe4>)
1000232e:	4252      	negs	r2, r2
10002330:	492e      	ldr	r1, [pc, #184]	; (100023ec <stdio_put_string+0xe8>)
10002332:	0008      	movs	r0, r1
10002334:	468b      	mov	fp, r1
10002336:	f002 fdaf 	bl	10004e98 <__mutex_try_enter_block_until_veneer>
1000233a:	9001      	str	r0, [sp, #4]
1000233c:	1c73      	adds	r3, r6, #1
1000233e:	d103      	bne.n	10002348 <stdio_put_string+0x44>
10002340:	0038      	movs	r0, r7
10002342:	f002 fd43 	bl	10004dcc <strlen>
10002346:	0006      	movs	r6, r0
10002348:	2c00      	cmp	r4, #0
1000234a:	d135      	bne.n	100023b8 <stdio_put_string+0xb4>
1000234c:	4b28      	ldr	r3, [pc, #160]	; (100023f0 <stdio_put_string+0xec>)
1000234e:	4698      	mov	r8, r3
10002350:	4b28      	ldr	r3, [pc, #160]	; (100023f4 <stdio_put_string+0xf0>)
10002352:	681c      	ldr	r4, [r3, #0]
10002354:	2c00      	cmp	r4, #0
10002356:	d021      	beq.n	1000239c <stdio_put_string+0x98>
10002358:	2d00      	cmp	r5, #0
1000235a:	d030      	beq.n	100023be <stdio_put_string+0xba>
1000235c:	4b26      	ldr	r3, [pc, #152]	; (100023f8 <stdio_put_string+0xf4>)
1000235e:	4699      	mov	r9, r3
10002360:	ab02      	add	r3, sp, #8
10002362:	1ddd      	adds	r5, r3, #7
10002364:	230a      	movs	r3, #10
10002366:	469a      	mov	sl, r3
10002368:	e00c      	b.n	10002384 <stdio_put_string+0x80>
1000236a:	0032      	movs	r2, r6
1000236c:	0039      	movs	r1, r7
1000236e:	0020      	movs	r0, r4
10002370:	47c0      	blx	r8
10002372:	4653      	mov	r3, sl
10002374:	2201      	movs	r2, #1
10002376:	0029      	movs	r1, r5
10002378:	0020      	movs	r0, r4
1000237a:	702b      	strb	r3, [r5, #0]
1000237c:	47c0      	blx	r8
1000237e:	6924      	ldr	r4, [r4, #16]
10002380:	2c00      	cmp	r4, #0
10002382:	d00b      	beq.n	1000239c <stdio_put_string+0x98>
10002384:	6823      	ldr	r3, [r4, #0]
10002386:	2b00      	cmp	r3, #0
10002388:	d0f9      	beq.n	1000237e <stdio_put_string+0x7a>
1000238a:	464b      	mov	r3, r9
1000238c:	681b      	ldr	r3, [r3, #0]
1000238e:	2b00      	cmp	r3, #0
10002390:	d0eb      	beq.n	1000236a <stdio_put_string+0x66>
10002392:	42a3      	cmp	r3, r4
10002394:	d0e9      	beq.n	1000236a <stdio_put_string+0x66>
10002396:	6924      	ldr	r4, [r4, #16]
10002398:	2c00      	cmp	r4, #0
1000239a:	d1f3      	bne.n	10002384 <stdio_put_string+0x80>
1000239c:	9b01      	ldr	r3, [sp, #4]
1000239e:	2b00      	cmp	r3, #0
100023a0:	d002      	beq.n	100023a8 <stdio_put_string+0xa4>
100023a2:	4658      	mov	r0, fp
100023a4:	f002 fd50 	bl	10004e48 <__mutex_exit_veneer>
100023a8:	0030      	movs	r0, r6
100023aa:	b005      	add	sp, #20
100023ac:	bc3c      	pop	{r2, r3, r4, r5}
100023ae:	4690      	mov	r8, r2
100023b0:	4699      	mov	r9, r3
100023b2:	46a2      	mov	sl, r4
100023b4:	46ab      	mov	fp, r5
100023b6:	bdf0      	pop	{r4, r5, r6, r7, pc}
100023b8:	4b10      	ldr	r3, [pc, #64]	; (100023fc <stdio_put_string+0xf8>)
100023ba:	4698      	mov	r8, r3
100023bc:	e7c8      	b.n	10002350 <stdio_put_string+0x4c>
100023be:	4d0e      	ldr	r5, [pc, #56]	; (100023f8 <stdio_put_string+0xf4>)
100023c0:	e006      	b.n	100023d0 <stdio_put_string+0xcc>
100023c2:	0032      	movs	r2, r6
100023c4:	0039      	movs	r1, r7
100023c6:	0020      	movs	r0, r4
100023c8:	47c0      	blx	r8
100023ca:	6924      	ldr	r4, [r4, #16]
100023cc:	2c00      	cmp	r4, #0
100023ce:	d0e5      	beq.n	1000239c <stdio_put_string+0x98>
100023d0:	6823      	ldr	r3, [r4, #0]
100023d2:	2b00      	cmp	r3, #0
100023d4:	d0f9      	beq.n	100023ca <stdio_put_string+0xc6>
100023d6:	682b      	ldr	r3, [r5, #0]
100023d8:	2b00      	cmp	r3, #0
100023da:	d0f2      	beq.n	100023c2 <stdio_put_string+0xbe>
100023dc:	42a3      	cmp	r3, r4
100023de:	d1f4      	bne.n	100023ca <stdio_put_string+0xc6>
100023e0:	e7ef      	b.n	100023c2 <stdio_put_string+0xbe>
100023e2:	46c0      	nop			; (mov r8, r8)
100023e4:	000f4240 	.word	0x000f4240
100023e8:	7fffffff 	.word	0x7fffffff
100023ec:	20001138 	.word	0x20001138
100023f0:	10002259 	.word	0x10002259
100023f4:	200019e4 	.word	0x200019e4
100023f8:	200019ec 	.word	0x200019ec
100023fc:	10002269 	.word	0x10002269

10002400 <stdio_set_driver_enabled>:
10002400:	4a0a      	ldr	r2, [pc, #40]	; (1000242c <stdio_set_driver_enabled+0x2c>)
10002402:	6813      	ldr	r3, [r2, #0]
10002404:	2b00      	cmp	r3, #0
10002406:	d105      	bne.n	10002414 <stdio_set_driver_enabled+0x14>
10002408:	e00c      	b.n	10002424 <stdio_set_driver_enabled+0x24>
1000240a:	001a      	movs	r2, r3
1000240c:	691b      	ldr	r3, [r3, #16]
1000240e:	3210      	adds	r2, #16
10002410:	2b00      	cmp	r3, #0
10002412:	d007      	beq.n	10002424 <stdio_set_driver_enabled+0x24>
10002414:	4298      	cmp	r0, r3
10002416:	d1f8      	bne.n	1000240a <stdio_set_driver_enabled+0xa>
10002418:	2900      	cmp	r1, #0
1000241a:	d102      	bne.n	10002422 <stdio_set_driver_enabled+0x22>
1000241c:	6903      	ldr	r3, [r0, #16]
1000241e:	6013      	str	r3, [r2, #0]
10002420:	6101      	str	r1, [r0, #16]
10002422:	4770      	bx	lr
10002424:	2900      	cmp	r1, #0
10002426:	d0fc      	beq.n	10002422 <stdio_set_driver_enabled+0x22>
10002428:	6010      	str	r0, [r2, #0]
1000242a:	e7fa      	b.n	10002422 <stdio_set_driver_enabled+0x22>
1000242c:	200019e4 	.word	0x200019e4

10002430 <stdio_init_all>:
10002430:	b510      	push	{r4, lr}
10002432:	f000 fa85 	bl	10002940 <stdio_usb_init>
10002436:	bd10      	pop	{r4, pc}

10002438 <__wrap_putchar>:
10002438:	b5f0      	push	{r4, r5, r6, r7, lr}
1000243a:	46ce      	mov	lr, r9
1000243c:	4647      	mov	r7, r8
1000243e:	b580      	push	{r7, lr}
10002440:	b083      	sub	sp, #12
10002442:	466b      	mov	r3, sp
10002444:	1ddd      	adds	r5, r3, #7
10002446:	0006      	movs	r6, r0
10002448:	7028      	strb	r0, [r5, #0]
1000244a:	f7ff f9ff 	bl	1000184c <time_us_64>
1000244e:	2300      	movs	r3, #0
10002450:	4a19      	ldr	r2, [pc, #100]	; (100024b8 <__wrap_putchar+0x80>)
10002452:	1812      	adds	r2, r2, r0
10002454:	414b      	adcs	r3, r1
10002456:	2b00      	cmp	r3, #0
10002458:	da02      	bge.n	10002460 <__wrap_putchar+0x28>
1000245a:	2201      	movs	r2, #1
1000245c:	4b17      	ldr	r3, [pc, #92]	; (100024bc <__wrap_putchar+0x84>)
1000245e:	4252      	negs	r2, r2
10002460:	4917      	ldr	r1, [pc, #92]	; (100024c0 <__wrap_putchar+0x88>)
10002462:	0008      	movs	r0, r1
10002464:	4688      	mov	r8, r1
10002466:	f002 fd17 	bl	10004e98 <__mutex_try_enter_block_until_veneer>
1000246a:	4b16      	ldr	r3, [pc, #88]	; (100024c4 <__wrap_putchar+0x8c>)
1000246c:	4681      	mov	r9, r0
1000246e:	681c      	ldr	r4, [r3, #0]
10002470:	2c00      	cmp	r4, #0
10002472:	d014      	beq.n	1000249e <__wrap_putchar+0x66>
10002474:	4f14      	ldr	r7, [pc, #80]	; (100024c8 <__wrap_putchar+0x90>)
10002476:	e007      	b.n	10002488 <__wrap_putchar+0x50>
10002478:	2201      	movs	r2, #1
1000247a:	0029      	movs	r1, r5
1000247c:	0020      	movs	r0, r4
1000247e:	f7ff fef3 	bl	10002268 <stdio_out_chars_crlf>
10002482:	6924      	ldr	r4, [r4, #16]
10002484:	2c00      	cmp	r4, #0
10002486:	d00a      	beq.n	1000249e <__wrap_putchar+0x66>
10002488:	6823      	ldr	r3, [r4, #0]
1000248a:	2b00      	cmp	r3, #0
1000248c:	d0f9      	beq.n	10002482 <__wrap_putchar+0x4a>
1000248e:	683b      	ldr	r3, [r7, #0]
10002490:	2b00      	cmp	r3, #0
10002492:	d0f1      	beq.n	10002478 <__wrap_putchar+0x40>
10002494:	42a3      	cmp	r3, r4
10002496:	d0ef      	beq.n	10002478 <__wrap_putchar+0x40>
10002498:	6924      	ldr	r4, [r4, #16]
1000249a:	2c00      	cmp	r4, #0
1000249c:	d1f4      	bne.n	10002488 <__wrap_putchar+0x50>
1000249e:	464b      	mov	r3, r9
100024a0:	2b00      	cmp	r3, #0
100024a2:	d002      	beq.n	100024aa <__wrap_putchar+0x72>
100024a4:	4640      	mov	r0, r8
100024a6:	f002 fccf 	bl	10004e48 <__mutex_exit_veneer>
100024aa:	0030      	movs	r0, r6
100024ac:	b003      	add	sp, #12
100024ae:	bc0c      	pop	{r2, r3}
100024b0:	4690      	mov	r8, r2
100024b2:	4699      	mov	r9, r3
100024b4:	bdf0      	pop	{r4, r5, r6, r7, pc}
100024b6:	46c0      	nop			; (mov r8, r8)
100024b8:	000f4240 	.word	0x000f4240
100024bc:	7fffffff 	.word	0x7fffffff
100024c0:	20001138 	.word	0x20001138
100024c4:	200019e4 	.word	0x200019e4
100024c8:	200019ec 	.word	0x200019ec

100024cc <__wrap_puts>:
100024cc:	b570      	push	{r4, r5, r6, lr}
100024ce:	0004      	movs	r4, r0
100024d0:	f002 fc7c 	bl	10004dcc <strlen>
100024d4:	2301      	movs	r3, #1
100024d6:	0001      	movs	r1, r0
100024d8:	0005      	movs	r5, r0
100024da:	2201      	movs	r2, #1
100024dc:	0020      	movs	r0, r4
100024de:	f7ff ff11 	bl	10002304 <stdio_put_string>
100024e2:	4b08      	ldr	r3, [pc, #32]	; (10002504 <__wrap_puts+0x38>)
100024e4:	681c      	ldr	r4, [r3, #0]
100024e6:	2c00      	cmp	r4, #0
100024e8:	d006      	beq.n	100024f8 <__wrap_puts+0x2c>
100024ea:	6863      	ldr	r3, [r4, #4]
100024ec:	2b00      	cmp	r3, #0
100024ee:	d005      	beq.n	100024fc <__wrap_puts+0x30>
100024f0:	4798      	blx	r3
100024f2:	6924      	ldr	r4, [r4, #16]
100024f4:	2c00      	cmp	r4, #0
100024f6:	d1f8      	bne.n	100024ea <__wrap_puts+0x1e>
100024f8:	0028      	movs	r0, r5
100024fa:	bd70      	pop	{r4, r5, r6, pc}
100024fc:	6924      	ldr	r4, [r4, #16]
100024fe:	2c00      	cmp	r4, #0
10002500:	d1f3      	bne.n	100024ea <__wrap_puts+0x1e>
10002502:	e7f9      	b.n	100024f8 <__wrap_puts+0x2c>
10002504:	200019e4 	.word	0x200019e4

10002508 <resetd_init>:
10002508:	4770      	bx	lr
1000250a:	46c0      	nop			; (mov r8, r8)

1000250c <resetd_reset>:
1000250c:	2200      	movs	r2, #0
1000250e:	4b01      	ldr	r3, [pc, #4]	; (10002514 <resetd_reset+0x8>)
10002510:	701a      	strb	r2, [r3, #0]
10002512:	4770      	bx	lr
10002514:	20001e45 	.word	0x20001e45

10002518 <resetd_xfer_cb>:
10002518:	2001      	movs	r0, #1
1000251a:	4770      	bx	lr

1000251c <resetd_open>:
1000251c:	794b      	ldrb	r3, [r1, #5]
1000251e:	2000      	movs	r0, #0
10002520:	2bff      	cmp	r3, #255	; 0xff
10002522:	d000      	beq.n	10002526 <resetd_open+0xa>
10002524:	4770      	bx	lr
10002526:	798b      	ldrb	r3, [r1, #6]
10002528:	2b00      	cmp	r3, #0
1000252a:	d1fb      	bne.n	10002524 <resetd_open+0x8>
1000252c:	79cb      	ldrb	r3, [r1, #7]
1000252e:	2b01      	cmp	r3, #1
10002530:	d1f8      	bne.n	10002524 <resetd_open+0x8>
10002532:	2a08      	cmp	r2, #8
10002534:	d9f6      	bls.n	10002524 <resetd_open+0x8>
10002536:	788a      	ldrb	r2, [r1, #2]
10002538:	4b01      	ldr	r3, [pc, #4]	; (10002540 <resetd_open+0x24>)
1000253a:	3009      	adds	r0, #9
1000253c:	701a      	strb	r2, [r3, #0]
1000253e:	e7f1      	b.n	10002524 <resetd_open+0x8>
10002540:	20001e45 	.word	0x20001e45

10002544 <resetd_control_xfer_cb>:
10002544:	b510      	push	{r4, lr}
10002546:	2001      	movs	r0, #1
10002548:	2901      	cmp	r1, #1
1000254a:	d000      	beq.n	1000254e <resetd_control_xfer_cb+0xa>
1000254c:	bd10      	pop	{r4, pc}
1000254e:	4913      	ldr	r1, [pc, #76]	; (1000259c <resetd_control_xfer_cb+0x58>)
10002550:	7953      	ldrb	r3, [r2, #5]
10002552:	7910      	ldrb	r0, [r2, #4]
10002554:	7809      	ldrb	r1, [r1, #0]
10002556:	021b      	lsls	r3, r3, #8
10002558:	4303      	orrs	r3, r0
1000255a:	2000      	movs	r0, #0
1000255c:	4299      	cmp	r1, r3
1000255e:	d1f5      	bne.n	1000254c <resetd_control_xfer_cb+0x8>
10002560:	7853      	ldrb	r3, [r2, #1]
10002562:	2b01      	cmp	r3, #1
10002564:	d008      	beq.n	10002578 <resetd_control_xfer_cb+0x34>
10002566:	2b02      	cmp	r3, #2
10002568:	d1f0      	bne.n	1000254c <resetd_control_xfer_cb+0x8>
1000256a:	2000      	movs	r0, #0
1000256c:	2264      	movs	r2, #100	; 0x64
1000256e:	2100      	movs	r1, #0
10002570:	f7ff fb86 	bl	10001c80 <watchdog_reboot>
10002574:	2001      	movs	r0, #1
10002576:	e7e9      	b.n	1000254c <resetd_control_xfer_cb+0x8>
10002578:	78d1      	ldrb	r1, [r2, #3]
1000257a:	7893      	ldrb	r3, [r2, #2]
1000257c:	0209      	lsls	r1, r1, #8
1000257e:	4319      	orrs	r1, r3
10002580:	05cb      	lsls	r3, r1, #23
10002582:	d507      	bpl.n	10002594 <resetd_control_xfer_cb+0x50>
10002584:	0a4a      	lsrs	r2, r1, #9
10002586:	b290      	uxth	r0, r2
10002588:	2301      	movs	r3, #1
1000258a:	401a      	ands	r2, r3
1000258c:	337e      	adds	r3, #126	; 0x7e
1000258e:	4019      	ands	r1, r3
10002590:	f7ff fbf8 	bl	10001d84 <rom_reset_usb_boot_extra>
10002594:	2001      	movs	r0, #1
10002596:	0a4a      	lsrs	r2, r1, #9
10002598:	4240      	negs	r0, r0
1000259a:	e7f5      	b.n	10002588 <resetd_control_xfer_cb+0x44>
1000259c:	20001e45 	.word	0x20001e45

100025a0 <tud_descriptor_bos_cb>:
100025a0:	4800      	ldr	r0, [pc, #0]	; (100025a4 <tud_descriptor_bos_cb+0x4>)
100025a2:	4770      	bx	lr
100025a4:	100051c8 	.word	0x100051c8

100025a8 <tud_vendor_control_xfer_cb>:
100025a8:	b510      	push	{r4, lr}
100025aa:	2301      	movs	r3, #1
100025ac:	0014      	movs	r4, r2
100025ae:	2901      	cmp	r1, #1
100025b0:	d001      	beq.n	100025b6 <tud_vendor_control_xfer_cb+0xe>
100025b2:	0018      	movs	r0, r3
100025b4:	bd10      	pop	{r4, pc}
100025b6:	7852      	ldrb	r2, [r2, #1]
100025b8:	2300      	movs	r3, #0
100025ba:	2a01      	cmp	r2, #1
100025bc:	d1f9      	bne.n	100025b2 <tud_vendor_control_xfer_cb+0xa>
100025be:	7962      	ldrb	r2, [r4, #5]
100025c0:	7921      	ldrb	r1, [r4, #4]
100025c2:	0212      	lsls	r2, r2, #8
100025c4:	430a      	orrs	r2, r1
100025c6:	2a07      	cmp	r2, #7
100025c8:	d1f3      	bne.n	100025b2 <tud_vendor_control_xfer_cb+0xa>
100025ca:	33a6      	adds	r3, #166	; 0xa6
100025cc:	4a02      	ldr	r2, [pc, #8]	; (100025d8 <tud_vendor_control_xfer_cb+0x30>)
100025ce:	0021      	movs	r1, r4
100025d0:	f001 fa7a 	bl	10003ac8 <tud_control_xfer>
100025d4:	0003      	movs	r3, r0
100025d6:	e7ec      	b.n	100025b2 <tud_vendor_control_xfer_cb+0xa>
100025d8:	100051ec 	.word	0x100051ec

100025dc <usbd_app_driver_get_cb>:
100025dc:	2301      	movs	r3, #1
100025de:	7003      	strb	r3, [r0, #0]
100025e0:	4800      	ldr	r0, [pc, #0]	; (100025e4 <usbd_app_driver_get_cb+0x8>)
100025e2:	4770      	bx	lr
100025e4:	100051a8 	.word	0x100051a8

100025e8 <tud_cdc_line_coding_cb>:
100025e8:	784a      	ldrb	r2, [r1, #1]
100025ea:	780b      	ldrb	r3, [r1, #0]
100025ec:	0212      	lsls	r2, r2, #8
100025ee:	431a      	orrs	r2, r3
100025f0:	788b      	ldrb	r3, [r1, #2]
100025f2:	b510      	push	{r4, lr}
100025f4:	041b      	lsls	r3, r3, #16
100025f6:	431a      	orrs	r2, r3
100025f8:	78cb      	ldrb	r3, [r1, #3]
100025fa:	061b      	lsls	r3, r3, #24
100025fc:	4313      	orrs	r3, r2
100025fe:	2296      	movs	r2, #150	; 0x96
10002600:	00d2      	lsls	r2, r2, #3
10002602:	4293      	cmp	r3, r2
10002604:	d000      	beq.n	10002608 <tud_cdc_line_coding_cb+0x20>
10002606:	bd10      	pop	{r4, pc}
10002608:	2200      	movs	r2, #0
1000260a:	2001      	movs	r0, #1
1000260c:	0011      	movs	r1, r2
1000260e:	4240      	negs	r0, r0
10002610:	f7ff fbb8 	bl	10001d84 <rom_reset_usb_boot_extra>

10002614 <stdio_usb_set_chars_available_callback>:
10002614:	4b02      	ldr	r3, [pc, #8]	; (10002620 <stdio_usb_set_chars_available_callback+0xc>)
10002616:	6018      	str	r0, [r3, #0]
10002618:	4b02      	ldr	r3, [pc, #8]	; (10002624 <stdio_usb_set_chars_available_callback+0x10>)
1000261a:	6019      	str	r1, [r3, #0]
1000261c:	4770      	bx	lr
1000261e:	46c0      	nop			; (mov r8, r8)
10002620:	20001984 	.word	0x20001984
10002624:	20001988 	.word	0x20001988

10002628 <usb_irq>:
10002628:	b510      	push	{r4, lr}
1000262a:	4b02      	ldr	r3, [pc, #8]	; (10002634 <usb_irq+0xc>)
1000262c:	7818      	ldrb	r0, [r3, #0]
1000262e:	f7fe fb09 	bl	10000c44 <irq_set_pending>
10002632:	bd10      	pop	{r4, pc}
10002634:	20001e46 	.word	0x20001e46

10002638 <timer_task>:
10002638:	4b15      	ldr	r3, [pc, #84]	; (10002690 <timer_task+0x58>)
1000263a:	b570      	push	{r4, r5, r6, lr}
1000263c:	681a      	ldr	r2, [r3, #0]
1000263e:	2a00      	cmp	r2, #0
10002640:	d022      	beq.n	10002688 <timer_task+0x50>
10002642:	f3ef 8110 	mrs	r1, PRIMASK
10002646:	b672      	cpsid	i
10002648:	6810      	ldr	r0, [r2, #0]
1000264a:	2800      	cmp	r0, #0
1000264c:	d0fc      	beq.n	10002648 <timer_task+0x10>
1000264e:	f3bf 8f5f 	dmb	sy
10002652:	2200      	movs	r2, #0
10002654:	480f      	ldr	r0, [pc, #60]	; (10002694 <timer_task+0x5c>)
10002656:	6059      	str	r1, [r3, #4]
10002658:	7002      	strb	r2, [r0, #0]
1000265a:	681b      	ldr	r3, [r3, #0]
1000265c:	f3bf 8f5f 	dmb	sy
10002660:	601a      	str	r2, [r3, #0]
10002662:	f381 8810 	msr	PRIMASK, r1
10002666:	2400      	movs	r4, #0
10002668:	2500      	movs	r5, #0
1000266a:	4e0b      	ldr	r6, [pc, #44]	; (10002698 <timer_task+0x60>)
1000266c:	7830      	ldrb	r0, [r6, #0]
1000266e:	f7fe fadd 	bl	10000c2c <irq_is_enabled>
10002672:	2800      	cmp	r0, #0
10002674:	d104      	bne.n	10002680 <timer_task+0x48>
10002676:	2400      	movs	r4, #0
10002678:	2500      	movs	r5, #0
1000267a:	0029      	movs	r1, r5
1000267c:	0020      	movs	r0, r4
1000267e:	bd70      	pop	{r4, r5, r6, pc}
10002680:	7830      	ldrb	r0, [r6, #0]
10002682:	f7fe fadf 	bl	10000c44 <irq_set_pending>
10002686:	e7f8      	b.n	1000267a <timer_task+0x42>
10002688:	24fa      	movs	r4, #250	; 0xfa
1000268a:	2500      	movs	r5, #0
1000268c:	00a4      	lsls	r4, r4, #2
1000268e:	e7ec      	b.n	1000266a <timer_task+0x32>
10002690:	20001dfc 	.word	0x20001dfc
10002694:	20001e47 	.word	0x20001e47
10002698:	20001e46 	.word	0x20001e46

1000269c <stdio_usb_in_chars>:
1000269c:	b570      	push	{r4, r5, r6, lr}
1000269e:	0005      	movs	r5, r0
100026a0:	2000      	movs	r0, #0
100026a2:	000e      	movs	r6, r1
100026a4:	f001 fb02 	bl	10003cac <tud_cdc_n_connected>
100026a8:	2800      	cmp	r0, #0
100026aa:	d034      	beq.n	10002716 <stdio_usb_in_chars+0x7a>
100026ac:	2000      	movs	r0, #0
100026ae:	f001 fb13 	bl	10003cd8 <tud_cdc_n_available>
100026b2:	2800      	cmp	r0, #0
100026b4:	d02f      	beq.n	10002716 <stdio_usb_in_chars+0x7a>
100026b6:	f7ff f8c9 	bl	1000184c <time_us_64>
100026ba:	2300      	movs	r3, #0
100026bc:	4a17      	ldr	r2, [pc, #92]	; (1000271c <stdio_usb_in_chars+0x80>)
100026be:	1812      	adds	r2, r2, r0
100026c0:	414b      	adcs	r3, r1
100026c2:	2b00      	cmp	r3, #0
100026c4:	da02      	bge.n	100026cc <stdio_usb_in_chars+0x30>
100026c6:	2201      	movs	r2, #1
100026c8:	4b15      	ldr	r3, [pc, #84]	; (10002720 <stdio_usb_in_chars+0x84>)
100026ca:	4252      	negs	r2, r2
100026cc:	4c15      	ldr	r4, [pc, #84]	; (10002724 <stdio_usb_in_chars+0x88>)
100026ce:	0020      	movs	r0, r4
100026d0:	f002 fbe2 	bl	10004e98 <__mutex_try_enter_block_until_veneer>
100026d4:	2800      	cmp	r0, #0
100026d6:	d01e      	beq.n	10002716 <stdio_usb_in_chars+0x7a>
100026d8:	2000      	movs	r0, #0
100026da:	f001 fae7 	bl	10003cac <tud_cdc_n_connected>
100026de:	2800      	cmp	r0, #0
100026e0:	d10b      	bne.n	100026fa <stdio_usb_in_chars+0x5e>
100026e2:	2001      	movs	r0, #1
100026e4:	2100      	movs	r1, #0
100026e6:	4240      	negs	r0, r0
100026e8:	2503      	movs	r5, #3
100026ea:	f000 fd03 	bl	100030f4 <tud_task_ext>
100026ee:	426d      	negs	r5, r5
100026f0:	0020      	movs	r0, r4
100026f2:	f002 fba9 	bl	10004e48 <__mutex_exit_veneer>
100026f6:	0028      	movs	r0, r5
100026f8:	bd70      	pop	{r4, r5, r6, pc}
100026fa:	2000      	movs	r0, #0
100026fc:	f001 faec 	bl	10003cd8 <tud_cdc_n_available>
10002700:	2800      	cmp	r0, #0
10002702:	d0ee      	beq.n	100026e2 <stdio_usb_in_chars+0x46>
10002704:	0029      	movs	r1, r5
10002706:	0032      	movs	r2, r6
10002708:	2000      	movs	r0, #0
1000270a:	f001 faf1 	bl	10003cf0 <tud_cdc_n_read>
1000270e:	1e05      	subs	r5, r0, #0
10002710:	d1ee      	bne.n	100026f0 <stdio_usb_in_chars+0x54>
10002712:	3d03      	subs	r5, #3
10002714:	e7ec      	b.n	100026f0 <stdio_usb_in_chars+0x54>
10002716:	2503      	movs	r5, #3
10002718:	426d      	negs	r5, r5
1000271a:	e7ec      	b.n	100026f6 <stdio_usb_in_chars+0x5a>
1000271c:	000f4240 	.word	0x000f4240
10002720:	7fffffff 	.word	0x7fffffff
10002724:	20001e24 	.word	0x20001e24

10002728 <stdio_usb_out_flush>:
10002728:	b510      	push	{r4, lr}
1000272a:	f7ff f88f 	bl	1000184c <time_us_64>
1000272e:	2300      	movs	r3, #0
10002730:	4a0d      	ldr	r2, [pc, #52]	; (10002768 <stdio_usb_out_flush+0x40>)
10002732:	1812      	adds	r2, r2, r0
10002734:	414b      	adcs	r3, r1
10002736:	2b00      	cmp	r3, #0
10002738:	da02      	bge.n	10002740 <stdio_usb_out_flush+0x18>
1000273a:	2201      	movs	r2, #1
1000273c:	4b0b      	ldr	r3, [pc, #44]	; (1000276c <stdio_usb_out_flush+0x44>)
1000273e:	4252      	negs	r2, r2
10002740:	4c0b      	ldr	r4, [pc, #44]	; (10002770 <stdio_usb_out_flush+0x48>)
10002742:	0020      	movs	r0, r4
10002744:	f002 fba8 	bl	10004e98 <__mutex_try_enter_block_until_veneer>
10002748:	2800      	cmp	r0, #0
1000274a:	d00c      	beq.n	10002766 <stdio_usb_out_flush+0x3e>
1000274c:	2001      	movs	r0, #1
1000274e:	2100      	movs	r1, #0
10002750:	4240      	negs	r0, r0
10002752:	f000 fccf 	bl	100030f4 <tud_task_ext>
10002756:	2000      	movs	r0, #0
10002758:	f001 fb60 	bl	10003e1c <tud_cdc_n_write_flush>
1000275c:	2800      	cmp	r0, #0
1000275e:	d1f5      	bne.n	1000274c <stdio_usb_out_flush+0x24>
10002760:	0020      	movs	r0, r4
10002762:	f002 fb71 	bl	10004e48 <__mutex_exit_veneer>
10002766:	bd10      	pop	{r4, pc}
10002768:	000f4240 	.word	0x000f4240
1000276c:	7fffffff 	.word	0x7fffffff
10002770:	20001e24 	.word	0x20001e24

10002774 <stdio_usb_out_chars>:
10002774:	b5f0      	push	{r4, r5, r6, r7, lr}
10002776:	46d6      	mov	lr, sl
10002778:	464f      	mov	r7, r9
1000277a:	4646      	mov	r6, r8
1000277c:	b5c0      	push	{r6, r7, lr}
1000277e:	000d      	movs	r5, r1
10002780:	0007      	movs	r7, r0
10002782:	f7ff f863 	bl	1000184c <time_us_64>
10002786:	2300      	movs	r3, #0
10002788:	4a36      	ldr	r2, [pc, #216]	; (10002864 <stdio_usb_out_chars+0xf0>)
1000278a:	1812      	adds	r2, r2, r0
1000278c:	414b      	adcs	r3, r1
1000278e:	2b00      	cmp	r3, #0
10002790:	da02      	bge.n	10002798 <stdio_usb_out_chars+0x24>
10002792:	2201      	movs	r2, #1
10002794:	4b34      	ldr	r3, [pc, #208]	; (10002868 <stdio_usb_out_chars+0xf4>)
10002796:	4252      	negs	r2, r2
10002798:	4934      	ldr	r1, [pc, #208]	; (1000286c <stdio_usb_out_chars+0xf8>)
1000279a:	0008      	movs	r0, r1
1000279c:	4688      	mov	r8, r1
1000279e:	f002 fb7b 	bl	10004e98 <__mutex_try_enter_block_until_veneer>
100027a2:	2800      	cmp	r0, #0
100027a4:	d104      	bne.n	100027b0 <stdio_usb_out_chars+0x3c>
100027a6:	bc1c      	pop	{r2, r3, r4}
100027a8:	4690      	mov	r8, r2
100027aa:	4699      	mov	r9, r3
100027ac:	46a2      	mov	sl, r4
100027ae:	bdf0      	pop	{r4, r5, r6, r7, pc}
100027b0:	2000      	movs	r0, #0
100027b2:	f001 fa7b 	bl	10003cac <tud_cdc_n_connected>
100027b6:	2800      	cmp	r0, #0
100027b8:	d037      	beq.n	1000282a <stdio_usb_out_chars+0xb6>
100027ba:	2400      	movs	r4, #0
100027bc:	2d00      	cmp	r5, #0
100027be:	dd39      	ble.n	10002834 <stdio_usb_out_chars+0xc0>
100027c0:	4b2b      	ldr	r3, [pc, #172]	; (10002870 <stdio_usb_out_chars+0xfc>)
100027c2:	4699      	mov	r9, r3
100027c4:	469a      	mov	sl, r3
100027c6:	e015      	b.n	100027f4 <stdio_usb_out_chars+0x80>
100027c8:	2800      	cmp	r0, #0
100027ca:	d148      	bne.n	1000285e <stdio_usb_out_chars+0xea>
100027cc:	2001      	movs	r0, #1
100027ce:	2100      	movs	r1, #0
100027d0:	4240      	negs	r0, r0
100027d2:	f000 fc8f 	bl	100030f4 <tud_task_ext>
100027d6:	2000      	movs	r0, #0
100027d8:	f001 fb20 	bl	10003e1c <tud_cdc_n_write_flush>
100027dc:	2000      	movs	r0, #0
100027de:	f001 fa65 	bl	10003cac <tud_cdc_n_connected>
100027e2:	2800      	cmp	r0, #0
100027e4:	d026      	beq.n	10002834 <stdio_usb_out_chars+0xc0>
100027e6:	2000      	movs	r0, #0
100027e8:	f001 fb54 	bl	10003e94 <tud_cdc_n_write_available>
100027ec:	2800      	cmp	r0, #0
100027ee:	d025      	beq.n	1000283c <stdio_usb_out_chars+0xc8>
100027f0:	42a5      	cmp	r5, r4
100027f2:	dd1f      	ble.n	10002834 <stdio_usb_out_chars+0xc0>
100027f4:	2000      	movs	r0, #0
100027f6:	1b2e      	subs	r6, r5, r4
100027f8:	f001 fb4c 	bl	10003e94 <tud_cdc_n_write_available>
100027fc:	4286      	cmp	r6, r0
100027fe:	dce3      	bgt.n	100027c8 <stdio_usb_out_chars+0x54>
10002800:	0032      	movs	r2, r6
10002802:	1939      	adds	r1, r7, r4
10002804:	2000      	movs	r0, #0
10002806:	f001 fabd 	bl	10003d84 <tud_cdc_n_write>
1000280a:	0006      	movs	r6, r0
1000280c:	2001      	movs	r0, #1
1000280e:	2100      	movs	r1, #0
10002810:	4240      	negs	r0, r0
10002812:	f000 fc6f 	bl	100030f4 <tud_task_ext>
10002816:	2000      	movs	r0, #0
10002818:	f001 fb00 	bl	10003e1c <tud_cdc_n_write_flush>
1000281c:	f7ff f816 	bl	1000184c <time_us_64>
10002820:	464b      	mov	r3, r9
10002822:	19a4      	adds	r4, r4, r6
10002824:	6018      	str	r0, [r3, #0]
10002826:	6059      	str	r1, [r3, #4]
10002828:	e7e2      	b.n	100027f0 <stdio_usb_out_chars+0x7c>
1000282a:	2000      	movs	r0, #0
1000282c:	2100      	movs	r1, #0
1000282e:	4b10      	ldr	r3, [pc, #64]	; (10002870 <stdio_usb_out_chars+0xfc>)
10002830:	6018      	str	r0, [r3, #0]
10002832:	6059      	str	r1, [r3, #4]
10002834:	4640      	mov	r0, r8
10002836:	f002 fb07 	bl	10004e48 <__mutex_exit_veneer>
1000283a:	e7b4      	b.n	100027a6 <stdio_usb_out_chars+0x32>
1000283c:	f7ff f806 	bl	1000184c <time_us_64>
10002840:	2300      	movs	r3, #0
10002842:	000e      	movs	r6, r1
10002844:	4651      	mov	r1, sl
10002846:	4a0b      	ldr	r2, [pc, #44]	; (10002874 <stdio_usb_out_chars+0x100>)
10002848:	4684      	mov	ip, r0
1000284a:	6808      	ldr	r0, [r1, #0]
1000284c:	6849      	ldr	r1, [r1, #4]
1000284e:	1812      	adds	r2, r2, r0
10002850:	414b      	adcs	r3, r1
10002852:	429e      	cmp	r6, r3
10002854:	d8ee      	bhi.n	10002834 <stdio_usb_out_chars+0xc0>
10002856:	d1cb      	bne.n	100027f0 <stdio_usb_out_chars+0x7c>
10002858:	4594      	cmp	ip, r2
1000285a:	d9c9      	bls.n	100027f0 <stdio_usb_out_chars+0x7c>
1000285c:	e7ea      	b.n	10002834 <stdio_usb_out_chars+0xc0>
1000285e:	0006      	movs	r6, r0
10002860:	e7ce      	b.n	10002800 <stdio_usb_out_chars+0x8c>
10002862:	46c0      	nop			; (mov r8, r8)
10002864:	000f4240 	.word	0x000f4240
10002868:	7fffffff 	.word	0x7fffffff
1000286c:	20001e24 	.word	0x20001e24
10002870:	20001388 	.word	0x20001388
10002874:	0007a120 	.word	0x0007a120

10002878 <low_priority_worker_irq>:
10002878:	b530      	push	{r4, r5, lr}
1000287a:	4c2a      	ldr	r4, [pc, #168]	; (10002924 <low_priority_worker_irq+0xac>)
1000287c:	b085      	sub	sp, #20
1000287e:	2100      	movs	r1, #0
10002880:	0020      	movs	r0, r4
10002882:	f002 faf9 	bl	10004e78 <__mutex_try_enter_veneer>
10002886:	2800      	cmp	r0, #0
10002888:	d11c      	bne.n	100028c4 <low_priority_worker_irq+0x4c>
1000288a:	4b27      	ldr	r3, [pc, #156]	; (10002928 <low_priority_worker_irq+0xb0>)
1000288c:	681a      	ldr	r2, [r3, #0]
1000288e:	2a00      	cmp	r2, #0
10002890:	d016      	beq.n	100028c0 <low_priority_worker_irq+0x48>
10002892:	f3ef 8110 	mrs	r1, PRIMASK
10002896:	b672      	cpsid	i
10002898:	6810      	ldr	r0, [r2, #0]
1000289a:	2800      	cmp	r0, #0
1000289c:	d0fc      	beq.n	10002898 <low_priority_worker_irq+0x20>
1000289e:	f3bf 8f5f 	dmb	sy
100028a2:	2401      	movs	r4, #1
100028a4:	4821      	ldr	r0, [pc, #132]	; (1000292c <low_priority_worker_irq+0xb4>)
100028a6:	6059      	str	r1, [r3, #4]
100028a8:	7802      	ldrb	r2, [r0, #0]
100028aa:	681b      	ldr	r3, [r3, #0]
100028ac:	b2d2      	uxtb	r2, r2
100028ae:	7004      	strb	r4, [r0, #0]
100028b0:	f3bf 8f5f 	dmb	sy
100028b4:	2000      	movs	r0, #0
100028b6:	6018      	str	r0, [r3, #0]
100028b8:	f381 8810 	msr	PRIMASK, r1
100028bc:	2a00      	cmp	r2, #0
100028be:	d017      	beq.n	100028f0 <low_priority_worker_irq+0x78>
100028c0:	b005      	add	sp, #20
100028c2:	bd30      	pop	{r4, r5, pc}
100028c4:	2001      	movs	r0, #1
100028c6:	2100      	movs	r1, #0
100028c8:	4240      	negs	r0, r0
100028ca:	f000 fc13 	bl	100030f4 <tud_task_ext>
100028ce:	2000      	movs	r0, #0
100028d0:	f001 fa02 	bl	10003cd8 <tud_cdc_n_available>
100028d4:	0005      	movs	r5, r0
100028d6:	0020      	movs	r0, r4
100028d8:	f002 fab6 	bl	10004e48 <__mutex_exit_veneer>
100028dc:	2d00      	cmp	r5, #0
100028de:	d0ef      	beq.n	100028c0 <low_priority_worker_irq+0x48>
100028e0:	4b13      	ldr	r3, [pc, #76]	; (10002930 <low_priority_worker_irq+0xb8>)
100028e2:	681b      	ldr	r3, [r3, #0]
100028e4:	2b00      	cmp	r3, #0
100028e6:	d0eb      	beq.n	100028c0 <low_priority_worker_irq+0x48>
100028e8:	4a12      	ldr	r2, [pc, #72]	; (10002934 <low_priority_worker_irq+0xbc>)
100028ea:	6810      	ldr	r0, [r2, #0]
100028ec:	4798      	blx	r3
100028ee:	e7e7      	b.n	100028c0 <low_priority_worker_irq+0x48>
100028f0:	f7fe fdae 	bl	10001450 <alarm_pool_get_default>
100028f4:	0004      	movs	r4, r0
100028f6:	f7fe ffa9 	bl	1000184c <time_us_64>
100028fa:	22fa      	movs	r2, #250	; 0xfa
100028fc:	2300      	movs	r3, #0
100028fe:	0092      	lsls	r2, r2, #2
10002900:	1812      	adds	r2, r2, r0
10002902:	414b      	adcs	r3, r1
10002904:	2b00      	cmp	r3, #0
10002906:	da02      	bge.n	1000290e <low_priority_worker_irq+0x96>
10002908:	2201      	movs	r2, #1
1000290a:	4b0b      	ldr	r3, [pc, #44]	; (10002938 <low_priority_worker_irq+0xc0>)
1000290c:	4252      	negs	r2, r2
1000290e:	2101      	movs	r1, #1
10002910:	9102      	str	r1, [sp, #8]
10002912:	2100      	movs	r1, #0
10002914:	9101      	str	r1, [sp, #4]
10002916:	4909      	ldr	r1, [pc, #36]	; (1000293c <low_priority_worker_irq+0xc4>)
10002918:	0020      	movs	r0, r4
1000291a:	9100      	str	r1, [sp, #0]
1000291c:	f7fe fd9c 	bl	10001458 <alarm_pool_add_alarm_at>
10002920:	e7ce      	b.n	100028c0 <low_priority_worker_irq+0x48>
10002922:	46c0      	nop			; (mov r8, r8)
10002924:	20001e24 	.word	0x20001e24
10002928:	20001dfc 	.word	0x20001dfc
1000292c:	20001e47 	.word	0x20001e47
10002930:	20001984 	.word	0x20001984
10002934:	20001988 	.word	0x20001988
10002938:	7fffffff 	.word	0x7fffffff
1000293c:	10002639 	.word	0x10002639

10002940 <stdio_usb_init>:
10002940:	23d0      	movs	r3, #208	; 0xd0
10002942:	b510      	push	{r4, lr}
10002944:	061b      	lsls	r3, r3, #24
10002946:	b084      	sub	sp, #16
10002948:	681c      	ldr	r4, [r3, #0]
1000294a:	f7fe fd81 	bl	10001450 <alarm_pool_get_default>
1000294e:	f7fe fe3b 	bl	100015c8 <alarm_pool_core_num>
10002952:	42a0      	cmp	r0, r4
10002954:	d002      	beq.n	1000295c <stdio_usb_init+0x1c>
10002956:	2000      	movs	r0, #0
10002958:	b004      	add	sp, #16
1000295a:	bd10      	pop	{r4, pc}
1000295c:	4b28      	ldr	r3, [pc, #160]	; (10002a00 <stdio_usb_init+0xc0>)
1000295e:	2100      	movs	r1, #0
10002960:	2000      	movs	r0, #0
10002962:	781b      	ldrb	r3, [r3, #0]
10002964:	f001 fe08 	bl	10004578 <tusb_rhport_init>
10002968:	4826      	ldr	r0, [pc, #152]	; (10002a04 <stdio_usb_init+0xc4>)
1000296a:	6803      	ldr	r3, [r0, #0]
1000296c:	2b00      	cmp	r3, #0
1000296e:	d044      	beq.n	100029fa <stdio_usb_init+0xba>
10002970:	2001      	movs	r0, #1
10002972:	f7fe fae9 	bl	10000f48 <user_irq_claim_unused>
10002976:	23ff      	movs	r3, #255	; 0xff
10002978:	4c23      	ldr	r4, [pc, #140]	; (10002a08 <stdio_usb_init+0xc8>)
1000297a:	4924      	ldr	r1, [pc, #144]	; (10002a0c <stdio_usb_init+0xcc>)
1000297c:	7020      	strb	r0, [r4, #0]
1000297e:	4018      	ands	r0, r3
10002980:	f7fe f97a 	bl	10000c78 <irq_set_exclusive_handler>
10002984:	7820      	ldrb	r0, [r4, #0]
10002986:	2101      	movs	r1, #1
10002988:	f7fe f93e 	bl	10000c08 <irq_set_enabled>
1000298c:	2005      	movs	r0, #5
1000298e:	f7fe f961 	bl	10000c54 <irq_has_shared_handler>
10002992:	2800      	cmp	r0, #0
10002994:	d011      	beq.n	100029ba <stdio_usb_init+0x7a>
10002996:	2001      	movs	r0, #1
10002998:	f7fe f906 	bl	10000ba8 <spin_lock_claim_unused>
1000299c:	0001      	movs	r1, r0
1000299e:	481c      	ldr	r0, [pc, #112]	; (10002a10 <stdio_usb_init+0xd0>)
100029a0:	f7fe fb40 	bl	10001024 <critical_section_init_with_lock_num>
100029a4:	2200      	movs	r2, #0
100029a6:	491b      	ldr	r1, [pc, #108]	; (10002a14 <stdio_usb_init+0xd4>)
100029a8:	2005      	movs	r0, #5
100029aa:	f7fe f98f 	bl	10000ccc <irq_add_shared_handler>
100029ae:	481a      	ldr	r0, [pc, #104]	; (10002a18 <stdio_usb_init+0xd8>)
100029b0:	2101      	movs	r1, #1
100029b2:	f7ff fd25 	bl	10002400 <stdio_set_driver_enabled>
100029b6:	2001      	movs	r0, #1
100029b8:	e7ce      	b.n	10002958 <stdio_usb_init+0x18>
100029ba:	2208      	movs	r2, #8
100029bc:	2100      	movs	r1, #0
100029be:	4814      	ldr	r0, [pc, #80]	; (10002a10 <stdio_usb_init+0xd0>)
100029c0:	f7ff fc04 	bl	100021cc <__wrap_memset>
100029c4:	f7fe fd44 	bl	10001450 <alarm_pool_get_default>
100029c8:	0004      	movs	r4, r0
100029ca:	f7fe ff3f 	bl	1000184c <time_us_64>
100029ce:	22fa      	movs	r2, #250	; 0xfa
100029d0:	2300      	movs	r3, #0
100029d2:	0092      	lsls	r2, r2, #2
100029d4:	1812      	adds	r2, r2, r0
100029d6:	414b      	adcs	r3, r1
100029d8:	2b00      	cmp	r3, #0
100029da:	da02      	bge.n	100029e2 <stdio_usb_init+0xa2>
100029dc:	2201      	movs	r2, #1
100029de:	4b0f      	ldr	r3, [pc, #60]	; (10002a1c <stdio_usb_init+0xdc>)
100029e0:	4252      	negs	r2, r2
100029e2:	2101      	movs	r1, #1
100029e4:	9102      	str	r1, [sp, #8]
100029e6:	2100      	movs	r1, #0
100029e8:	9101      	str	r1, [sp, #4]
100029ea:	490d      	ldr	r1, [pc, #52]	; (10002a20 <stdio_usb_init+0xe0>)
100029ec:	0020      	movs	r0, r4
100029ee:	9100      	str	r1, [sp, #0]
100029f0:	f7fe fd32 	bl	10001458 <alarm_pool_add_alarm_at>
100029f4:	2800      	cmp	r0, #0
100029f6:	dada      	bge.n	100029ae <stdio_usb_init+0x6e>
100029f8:	e7ad      	b.n	10002956 <stdio_usb_init+0x16>
100029fa:	f7fe faf5 	bl	10000fe8 <mutex_init>
100029fe:	e7b7      	b.n	10002970 <stdio_usb_init+0x30>
10002a00:	100054e0 	.word	0x100054e0
10002a04:	20001e24 	.word	0x20001e24
10002a08:	20001e46 	.word	0x20001e46
10002a0c:	10002879 	.word	0x10002879
10002a10:	20001dfc 	.word	0x20001dfc
10002a14:	10002629 	.word	0x10002629
10002a18:	20001100 	.word	0x20001100
10002a1c:	7fffffff 	.word	0x7fffffff
10002a20:	10002639 	.word	0x10002639

10002a24 <tud_descriptor_device_cb>:
10002a24:	4800      	ldr	r0, [pc, #0]	; (10002a28 <tud_descriptor_device_cb+0x4>)
10002a26:	4770      	bx	lr
10002a28:	10005334 	.word	0x10005334

10002a2c <tud_descriptor_configuration_cb>:
10002a2c:	4800      	ldr	r0, [pc, #0]	; (10002a30 <tud_descriptor_configuration_cb+0x4>)
10002a2e:	4770      	bx	lr
10002a30:	100052e0 	.word	0x100052e0

10002a34 <tud_descriptor_string_cb>:
10002a34:	b570      	push	{r4, r5, r6, lr}
10002a36:	0004      	movs	r4, r0
10002a38:	4816      	ldr	r0, [pc, #88]	; (10002a94 <tud_descriptor_string_cb+0x60>)
10002a3a:	7803      	ldrb	r3, [r0, #0]
10002a3c:	2b00      	cmp	r3, #0
10002a3e:	d020      	beq.n	10002a82 <tud_descriptor_string_cb+0x4e>
10002a40:	2c00      	cmp	r4, #0
10002a42:	d106      	bne.n	10002a52 <tud_descriptor_string_cb+0x1e>
10002a44:	24c1      	movs	r4, #193	; 0xc1
10002a46:	4814      	ldr	r0, [pc, #80]	; (10002a98 <tud_descriptor_string_cb+0x64>)
10002a48:	4b14      	ldr	r3, [pc, #80]	; (10002a9c <tud_descriptor_string_cb+0x68>)
10002a4a:	00a4      	lsls	r4, r4, #2
10002a4c:	8043      	strh	r3, [r0, #2]
10002a4e:	8004      	strh	r4, [r0, #0]
10002a50:	bd70      	pop	{r4, r5, r6, pc}
10002a52:	2c05      	cmp	r4, #5
10002a54:	d81c      	bhi.n	10002a90 <tud_descriptor_string_cb+0x5c>
10002a56:	4b12      	ldr	r3, [pc, #72]	; (10002aa0 <tud_descriptor_string_cb+0x6c>)
10002a58:	480f      	ldr	r0, [pc, #60]	; (10002a98 <tud_descriptor_string_cb+0x64>)
10002a5a:	00a4      	lsls	r4, r4, #2
10002a5c:	58e5      	ldr	r5, [r4, r3]
10002a5e:	1c81      	adds	r1, r0, #2
10002a60:	2300      	movs	r3, #0
10002a62:	e004      	b.n	10002a6e <tud_descriptor_string_cb+0x3a>
10002a64:	3301      	adds	r3, #1
10002a66:	800a      	strh	r2, [r1, #0]
10002a68:	3102      	adds	r1, #2
10002a6a:	2b13      	cmp	r3, #19
10002a6c:	d00d      	beq.n	10002a8a <tud_descriptor_string_cb+0x56>
10002a6e:	5cea      	ldrb	r2, [r5, r3]
10002a70:	b2dc      	uxtb	r4, r3
10002a72:	2a00      	cmp	r2, #0
10002a74:	d1f6      	bne.n	10002a64 <tud_descriptor_string_cb+0x30>
10002a76:	23c0      	movs	r3, #192	; 0xc0
10002a78:	3401      	adds	r4, #1
10002a7a:	0064      	lsls	r4, r4, #1
10002a7c:	009b      	lsls	r3, r3, #2
10002a7e:	431c      	orrs	r4, r3
10002a80:	e7e5      	b.n	10002a4e <tud_descriptor_string_cb+0x1a>
10002a82:	2111      	movs	r1, #17
10002a84:	f000 f816 	bl	10002ab4 <pico_get_unique_board_id_string>
10002a88:	e7da      	b.n	10002a40 <tud_descriptor_string_cb+0xc>
10002a8a:	24ca      	movs	r4, #202	; 0xca
10002a8c:	00a4      	lsls	r4, r4, #2
10002a8e:	e7de      	b.n	10002a4e <tud_descriptor_string_cb+0x1a>
10002a90:	2000      	movs	r0, #0
10002a92:	e7dd      	b.n	10002a50 <tud_descriptor_string_cb+0x1c>
10002a94:	20001e2c 	.word	0x20001e2c
10002a98:	200019bc 	.word	0x200019bc
10002a9c:	00000409 	.word	0x00000409
10002aa0:	10005348 	.word	0x10005348

10002aa4 <_retrieve_unique_id_on_boot>:
10002aa4:	b510      	push	{r4, lr}
10002aa6:	4802      	ldr	r0, [pc, #8]	; (10002ab0 <_retrieve_unique_id_on_boot+0xc>)
10002aa8:	f000 f8ea 	bl	10002c80 <flash_get_unique_id>
10002aac:	bd10      	pop	{r4, pc}
10002aae:	46c0      	nop			; (mov r8, r8)
10002ab0:	20001e14 	.word	0x20001e14

10002ab4 <pico_get_unique_board_id_string>:
10002ab4:	3901      	subs	r1, #1
10002ab6:	b530      	push	{r4, r5, lr}
10002ab8:	2900      	cmp	r1, #0
10002aba:	d100      	bne.n	10002abe <pico_get_unique_board_id_string+0xa>
10002abc:	e0b4      	b.n	10002c28 <pico_get_unique_board_id_string+0x174>
10002abe:	4b6f      	ldr	r3, [pc, #444]	; (10002c7c <pico_get_unique_board_id_string+0x1c8>)
10002ac0:	781a      	ldrb	r2, [r3, #0]
10002ac2:	1112      	asrs	r2, r2, #4
10002ac4:	b2d5      	uxtb	r5, r2
10002ac6:	002c      	movs	r4, r5
10002ac8:	3430      	adds	r4, #48	; 0x30
10002aca:	2a09      	cmp	r2, #9
10002acc:	dd00      	ble.n	10002ad0 <pico_get_unique_board_id_string+0x1c>
10002ace:	e0ae      	b.n	10002c2e <pico_get_unique_board_id_string+0x17a>
10002ad0:	7004      	strb	r4, [r0, #0]
10002ad2:	2901      	cmp	r1, #1
10002ad4:	d100      	bne.n	10002ad8 <pico_get_unique_board_id_string+0x24>
10002ad6:	e0a6      	b.n	10002c26 <pico_get_unique_board_id_string+0x172>
10002ad8:	220f      	movs	r2, #15
10002ada:	781c      	ldrb	r4, [r3, #0]
10002adc:	4022      	ands	r2, r4
10002ade:	0014      	movs	r4, r2
10002ae0:	3430      	adds	r4, #48	; 0x30
10002ae2:	2a09      	cmp	r2, #9
10002ae4:	d900      	bls.n	10002ae8 <pico_get_unique_board_id_string+0x34>
10002ae6:	e0a4      	b.n	10002c32 <pico_get_unique_board_id_string+0x17e>
10002ae8:	7044      	strb	r4, [r0, #1]
10002aea:	2902      	cmp	r1, #2
10002aec:	d100      	bne.n	10002af0 <pico_get_unique_board_id_string+0x3c>
10002aee:	e09a      	b.n	10002c26 <pico_get_unique_board_id_string+0x172>
10002af0:	785a      	ldrb	r2, [r3, #1]
10002af2:	1112      	asrs	r2, r2, #4
10002af4:	b2d5      	uxtb	r5, r2
10002af6:	002c      	movs	r4, r5
10002af8:	3430      	adds	r4, #48	; 0x30
10002afa:	2a09      	cmp	r2, #9
10002afc:	dd00      	ble.n	10002b00 <pico_get_unique_board_id_string+0x4c>
10002afe:	e09b      	b.n	10002c38 <pico_get_unique_board_id_string+0x184>
10002b00:	7084      	strb	r4, [r0, #2]
10002b02:	2903      	cmp	r1, #3
10002b04:	d100      	bne.n	10002b08 <pico_get_unique_board_id_string+0x54>
10002b06:	e08e      	b.n	10002c26 <pico_get_unique_board_id_string+0x172>
10002b08:	220f      	movs	r2, #15
10002b0a:	785c      	ldrb	r4, [r3, #1]
10002b0c:	4022      	ands	r2, r4
10002b0e:	0014      	movs	r4, r2
10002b10:	3430      	adds	r4, #48	; 0x30
10002b12:	2a09      	cmp	r2, #9
10002b14:	d900      	bls.n	10002b18 <pico_get_unique_board_id_string+0x64>
10002b16:	e091      	b.n	10002c3c <pico_get_unique_board_id_string+0x188>
10002b18:	70c4      	strb	r4, [r0, #3]
10002b1a:	2904      	cmp	r1, #4
10002b1c:	d100      	bne.n	10002b20 <pico_get_unique_board_id_string+0x6c>
10002b1e:	e082      	b.n	10002c26 <pico_get_unique_board_id_string+0x172>
10002b20:	789a      	ldrb	r2, [r3, #2]
10002b22:	1112      	asrs	r2, r2, #4
10002b24:	b2d5      	uxtb	r5, r2
10002b26:	002c      	movs	r4, r5
10002b28:	3430      	adds	r4, #48	; 0x30
10002b2a:	2a09      	cmp	r2, #9
10002b2c:	dd00      	ble.n	10002b30 <pico_get_unique_board_id_string+0x7c>
10002b2e:	e088      	b.n	10002c42 <pico_get_unique_board_id_string+0x18e>
10002b30:	7104      	strb	r4, [r0, #4]
10002b32:	2905      	cmp	r1, #5
10002b34:	d077      	beq.n	10002c26 <pico_get_unique_board_id_string+0x172>
10002b36:	220f      	movs	r2, #15
10002b38:	789c      	ldrb	r4, [r3, #2]
10002b3a:	4022      	ands	r2, r4
10002b3c:	0014      	movs	r4, r2
10002b3e:	3430      	adds	r4, #48	; 0x30
10002b40:	2a09      	cmp	r2, #9
10002b42:	d900      	bls.n	10002b46 <pico_get_unique_board_id_string+0x92>
10002b44:	e07f      	b.n	10002c46 <pico_get_unique_board_id_string+0x192>
10002b46:	7144      	strb	r4, [r0, #5]
10002b48:	2906      	cmp	r1, #6
10002b4a:	d06c      	beq.n	10002c26 <pico_get_unique_board_id_string+0x172>
10002b4c:	78da      	ldrb	r2, [r3, #3]
10002b4e:	1112      	asrs	r2, r2, #4
10002b50:	b2d4      	uxtb	r4, r2
10002b52:	0025      	movs	r5, r4
10002b54:	3530      	adds	r5, #48	; 0x30
10002b56:	2a09      	cmp	r2, #9
10002b58:	dd00      	ble.n	10002b5c <pico_get_unique_board_id_string+0xa8>
10002b5a:	e077      	b.n	10002c4c <pico_get_unique_board_id_string+0x198>
10002b5c:	7185      	strb	r5, [r0, #6]
10002b5e:	2907      	cmp	r1, #7
10002b60:	d061      	beq.n	10002c26 <pico_get_unique_board_id_string+0x172>
10002b62:	220f      	movs	r2, #15
10002b64:	78dc      	ldrb	r4, [r3, #3]
10002b66:	4022      	ands	r2, r4
10002b68:	0014      	movs	r4, r2
10002b6a:	3430      	adds	r4, #48	; 0x30
10002b6c:	2a09      	cmp	r2, #9
10002b6e:	d900      	bls.n	10002b72 <pico_get_unique_board_id_string+0xbe>
10002b70:	e06f      	b.n	10002c52 <pico_get_unique_board_id_string+0x19e>
10002b72:	71c4      	strb	r4, [r0, #7]
10002b74:	2908      	cmp	r1, #8
10002b76:	d056      	beq.n	10002c26 <pico_get_unique_board_id_string+0x172>
10002b78:	791a      	ldrb	r2, [r3, #4]
10002b7a:	1112      	asrs	r2, r2, #4
10002b7c:	b2d5      	uxtb	r5, r2
10002b7e:	002c      	movs	r4, r5
10002b80:	3430      	adds	r4, #48	; 0x30
10002b82:	2a09      	cmp	r2, #9
10002b84:	dd00      	ble.n	10002b88 <pico_get_unique_board_id_string+0xd4>
10002b86:	3407      	adds	r4, #7
10002b88:	7204      	strb	r4, [r0, #8]
10002b8a:	2909      	cmp	r1, #9
10002b8c:	d04b      	beq.n	10002c26 <pico_get_unique_board_id_string+0x172>
10002b8e:	220f      	movs	r2, #15
10002b90:	791c      	ldrb	r4, [r3, #4]
10002b92:	4022      	ands	r2, r4
10002b94:	0014      	movs	r4, r2
10002b96:	3430      	adds	r4, #48	; 0x30
10002b98:	2a09      	cmp	r2, #9
10002b9a:	d901      	bls.n	10002ba0 <pico_get_unique_board_id_string+0xec>
10002b9c:	3237      	adds	r2, #55	; 0x37
10002b9e:	0014      	movs	r4, r2
10002ba0:	7244      	strb	r4, [r0, #9]
10002ba2:	290a      	cmp	r1, #10
10002ba4:	d03f      	beq.n	10002c26 <pico_get_unique_board_id_string+0x172>
10002ba6:	795a      	ldrb	r2, [r3, #5]
10002ba8:	1112      	asrs	r2, r2, #4
10002baa:	b2d4      	uxtb	r4, r2
10002bac:	0025      	movs	r5, r4
10002bae:	3530      	adds	r5, #48	; 0x30
10002bb0:	2a09      	cmp	r2, #9
10002bb2:	dd01      	ble.n	10002bb8 <pico_get_unique_board_id_string+0x104>
10002bb4:	3437      	adds	r4, #55	; 0x37
10002bb6:	0025      	movs	r5, r4
10002bb8:	7285      	strb	r5, [r0, #10]
10002bba:	290b      	cmp	r1, #11
10002bbc:	d033      	beq.n	10002c26 <pico_get_unique_board_id_string+0x172>
10002bbe:	220f      	movs	r2, #15
10002bc0:	795c      	ldrb	r4, [r3, #5]
10002bc2:	4022      	ands	r2, r4
10002bc4:	0014      	movs	r4, r2
10002bc6:	3430      	adds	r4, #48	; 0x30
10002bc8:	2a09      	cmp	r2, #9
10002bca:	d849      	bhi.n	10002c60 <pico_get_unique_board_id_string+0x1ac>
10002bcc:	72c4      	strb	r4, [r0, #11]
10002bce:	290c      	cmp	r1, #12
10002bd0:	d029      	beq.n	10002c26 <pico_get_unique_board_id_string+0x172>
10002bd2:	799a      	ldrb	r2, [r3, #6]
10002bd4:	1112      	asrs	r2, r2, #4
10002bd6:	b2d5      	uxtb	r5, r2
10002bd8:	002c      	movs	r4, r5
10002bda:	3430      	adds	r4, #48	; 0x30
10002bdc:	2a09      	cmp	r2, #9
10002bde:	dc42      	bgt.n	10002c66 <pico_get_unique_board_id_string+0x1b2>
10002be0:	7304      	strb	r4, [r0, #12]
10002be2:	290d      	cmp	r1, #13
10002be4:	d01f      	beq.n	10002c26 <pico_get_unique_board_id_string+0x172>
10002be6:	220f      	movs	r2, #15
10002be8:	799c      	ldrb	r4, [r3, #6]
10002bea:	4022      	ands	r2, r4
10002bec:	0014      	movs	r4, r2
10002bee:	3430      	adds	r4, #48	; 0x30
10002bf0:	2a09      	cmp	r2, #9
10002bf2:	d83a      	bhi.n	10002c6a <pico_get_unique_board_id_string+0x1b6>
10002bf4:	7344      	strb	r4, [r0, #13]
10002bf6:	290e      	cmp	r1, #14
10002bf8:	d015      	beq.n	10002c26 <pico_get_unique_board_id_string+0x172>
10002bfa:	79da      	ldrb	r2, [r3, #7]
10002bfc:	1112      	asrs	r2, r2, #4
10002bfe:	b2d5      	uxtb	r5, r2
10002c00:	002c      	movs	r4, r5
10002c02:	3430      	adds	r4, #48	; 0x30
10002c04:	2a09      	cmp	r2, #9
10002c06:	dc33      	bgt.n	10002c70 <pico_get_unique_board_id_string+0x1bc>
10002c08:	7384      	strb	r4, [r0, #14]
10002c0a:	290f      	cmp	r1, #15
10002c0c:	d00b      	beq.n	10002c26 <pico_get_unique_board_id_string+0x172>
10002c0e:	79da      	ldrb	r2, [r3, #7]
10002c10:	230f      	movs	r3, #15
10002c12:	4013      	ands	r3, r2
10002c14:	001a      	movs	r2, r3
10002c16:	3237      	adds	r2, #55	; 0x37
10002c18:	2b09      	cmp	r3, #9
10002c1a:	d92b      	bls.n	10002c74 <pico_get_unique_board_id_string+0x1c0>
10002c1c:	73c2      	strb	r2, [r0, #15]
10002c1e:	2910      	cmp	r1, #16
10002c20:	d001      	beq.n	10002c26 <pico_get_unique_board_id_string+0x172>
10002c22:	3010      	adds	r0, #16
10002c24:	e000      	b.n	10002c28 <pico_get_unique_board_id_string+0x174>
10002c26:	1840      	adds	r0, r0, r1
10002c28:	2300      	movs	r3, #0
10002c2a:	7003      	strb	r3, [r0, #0]
10002c2c:	bd30      	pop	{r4, r5, pc}
10002c2e:	3407      	adds	r4, #7
10002c30:	e74e      	b.n	10002ad0 <pico_get_unique_board_id_string+0x1c>
10002c32:	3237      	adds	r2, #55	; 0x37
10002c34:	0014      	movs	r4, r2
10002c36:	e757      	b.n	10002ae8 <pico_get_unique_board_id_string+0x34>
10002c38:	3407      	adds	r4, #7
10002c3a:	e761      	b.n	10002b00 <pico_get_unique_board_id_string+0x4c>
10002c3c:	3237      	adds	r2, #55	; 0x37
10002c3e:	0014      	movs	r4, r2
10002c40:	e76a      	b.n	10002b18 <pico_get_unique_board_id_string+0x64>
10002c42:	3407      	adds	r4, #7
10002c44:	e774      	b.n	10002b30 <pico_get_unique_board_id_string+0x7c>
10002c46:	3237      	adds	r2, #55	; 0x37
10002c48:	0014      	movs	r4, r2
10002c4a:	e77c      	b.n	10002b46 <pico_get_unique_board_id_string+0x92>
10002c4c:	3437      	adds	r4, #55	; 0x37
10002c4e:	0025      	movs	r5, r4
10002c50:	e784      	b.n	10002b5c <pico_get_unique_board_id_string+0xa8>
10002c52:	3237      	adds	r2, #55	; 0x37
10002c54:	0014      	movs	r4, r2
10002c56:	71c4      	strb	r4, [r0, #7]
10002c58:	2908      	cmp	r1, #8
10002c5a:	d000      	beq.n	10002c5e <pico_get_unique_board_id_string+0x1aa>
10002c5c:	e78c      	b.n	10002b78 <pico_get_unique_board_id_string+0xc4>
10002c5e:	e7e2      	b.n	10002c26 <pico_get_unique_board_id_string+0x172>
10002c60:	3237      	adds	r2, #55	; 0x37
10002c62:	0014      	movs	r4, r2
10002c64:	e7b2      	b.n	10002bcc <pico_get_unique_board_id_string+0x118>
10002c66:	3407      	adds	r4, #7
10002c68:	e7ba      	b.n	10002be0 <pico_get_unique_board_id_string+0x12c>
10002c6a:	3237      	adds	r2, #55	; 0x37
10002c6c:	0014      	movs	r4, r2
10002c6e:	e7c1      	b.n	10002bf4 <pico_get_unique_board_id_string+0x140>
10002c70:	3407      	adds	r4, #7
10002c72:	e7c9      	b.n	10002c08 <pico_get_unique_board_id_string+0x154>
10002c74:	3330      	adds	r3, #48	; 0x30
10002c76:	001a      	movs	r2, r3
10002c78:	e7d0      	b.n	10002c1c <pico_get_unique_board_id_string+0x168>
10002c7a:	46c0      	nop			; (mov r8, r8)
10002c7c:	20001e14 	.word	0x20001e14

10002c80 <flash_get_unique_id>:
10002c80:	b510      	push	{r4, lr}
10002c82:	b088      	sub	sp, #32
10002c84:	0004      	movs	r4, r0
10002c86:	220d      	movs	r2, #13
10002c88:	2100      	movs	r1, #0
10002c8a:	4668      	mov	r0, sp
10002c8c:	f7ff fa9e 	bl	100021cc <__wrap_memset>
10002c90:	220d      	movs	r2, #13
10002c92:	2100      	movs	r1, #0
10002c94:	a804      	add	r0, sp, #16
10002c96:	f7ff fa99 	bl	100021cc <__wrap_memset>
10002c9a:	234b      	movs	r3, #75	; 0x4b
10002c9c:	466a      	mov	r2, sp
10002c9e:	a904      	add	r1, sp, #16
10002ca0:	7013      	strb	r3, [r2, #0]
10002ca2:	4668      	mov	r0, sp
10002ca4:	220d      	movs	r2, #13
10002ca6:	f002 f8c7 	bl	10004e38 <__flash_do_cmd_veneer>
10002caa:	2115      	movs	r1, #21
10002cac:	2208      	movs	r2, #8
10002cae:	4469      	add	r1, sp
10002cb0:	0020      	movs	r0, r4
10002cb2:	f7ff fa91 	bl	100021d8 <__wrap___aeabi_memcpy>
10002cb6:	b008      	add	sp, #32
10002cb8:	bd10      	pop	{r4, pc}
10002cba:	46c0      	nop			; (mov r8, r8)

10002cbc <dcd_init>:
10002cbc:	b5f8      	push	{r3, r4, r5, r6, r7, lr}
10002cbe:	f000 f935 	bl	10002f2c <rp2040_usb_init>
10002cc2:	230c      	movs	r3, #12
10002cc4:	4d19      	ldr	r5, [pc, #100]	; (10002d2c <dcd_init+0x70>)
10002cc6:	22ff      	movs	r2, #255	; 0xff
10002cc8:	67ab      	str	r3, [r5, #120]	; 0x78
10002cca:	4919      	ldr	r1, [pc, #100]	; (10002d30 <dcd_init+0x74>)
10002ccc:	2005      	movs	r0, #5
10002cce:	f7fd fffd 	bl	10000ccc <irq_add_shared_handler>
10002cd2:	4c18      	ldr	r4, [pc, #96]	; (10002d34 <dcd_init+0x78>)
10002cd4:	2240      	movs	r2, #64	; 0x40
10002cd6:	2100      	movs	r1, #0
10002cd8:	0020      	movs	r0, r4
10002cda:	f7ff fa77 	bl	100021cc <__wrap_memset>
10002cde:	2740      	movs	r7, #64	; 0x40
10002ce0:	2300      	movs	r3, #0
10002ce2:	2601      	movs	r6, #1
10002ce4:	2121      	movs	r1, #33	; 0x21
10002ce6:	4a14      	ldr	r2, [pc, #80]	; (10002d38 <dcd_init+0x7c>)
10002ce8:	7066      	strb	r6, [r4, #1]
10002cea:	8327      	strh	r7, [r4, #24]
10002cec:	60a2      	str	r2, [r4, #8]
10002cee:	6013      	str	r3, [r2, #0]
10002cf0:	5463      	strb	r3, [r4, r1]
10002cf2:	315f      	adds	r1, #95	; 0x5f
10002cf4:	8461      	strh	r1, [r4, #34]	; 0x22
10002cf6:	3945      	subs	r1, #69	; 0x45
10002cf8:	5463      	strb	r3, [r4, r1]
10002cfa:	4a10      	ldr	r2, [pc, #64]	; (10002d3c <dcd_init+0x80>)
10002cfc:	4910      	ldr	r1, [pc, #64]	; (10002d40 <dcd_init+0x84>)
10002cfe:	6063      	str	r3, [r4, #4]
10002d00:	60e2      	str	r2, [r4, #12]
10002d02:	8727      	strh	r7, [r4, #56]	; 0x38
10002d04:	62a1      	str	r1, [r4, #40]	; 0x28
10002d06:	600b      	str	r3, [r1, #0]
10002d08:	6263      	str	r3, [r4, #36]	; 0x24
10002d0a:	62e2      	str	r2, [r4, #44]	; 0x2c
10002d0c:	f002 f8a4 	bl	10004e58 <__reset_non_control_endpoints_veneer>
10002d10:	2380      	movs	r3, #128	; 0x80
10002d12:	059b      	lsls	r3, r3, #22
10002d14:	642e      	str	r6, [r5, #64]	; 0x40
10002d16:	64eb      	str	r3, [r5, #76]	; 0x4c
10002d18:	2390      	movs	r3, #144	; 0x90
10002d1a:	4a0a      	ldr	r2, [pc, #40]	; (10002d44 <dcd_init+0x88>)
10002d1c:	2001      	movs	r0, #1
10002d1e:	50ea      	str	r2, [r5, r3]
10002d20:	2280      	movs	r2, #128	; 0x80
10002d22:	4b09      	ldr	r3, [pc, #36]	; (10002d48 <dcd_init+0x8c>)
10002d24:	0252      	lsls	r2, r2, #9
10002d26:	64da      	str	r2, [r3, #76]	; 0x4c
10002d28:	bdf8      	pop	{r3, r4, r5, r6, r7, pc}
10002d2a:	46c0      	nop			; (mov r8, r8)
10002d2c:	50110000 	.word	0x50110000
10002d30:	20000535 	.word	0x20000535
10002d34:	200019f0 	.word	0x200019f0
10002d38:	50100084 	.word	0x50100084
10002d3c:	50100100 	.word	0x50100100
10002d40:	50100080 	.word	0x50100080
10002d44:	0001d010 	.word	0x0001d010
10002d48:	50112000 	.word	0x50112000

10002d4c <dcd_int_enable>:
10002d4c:	b510      	push	{r4, lr}
10002d4e:	2101      	movs	r1, #1
10002d50:	2005      	movs	r0, #5
10002d52:	f7fd ff59 	bl	10000c08 <irq_set_enabled>
10002d56:	bd10      	pop	{r4, pc}

10002d58 <dcd_set_address>:
10002d58:	b510      	push	{r4, lr}
10002d5a:	2200      	movs	r2, #0
10002d5c:	2100      	movs	r1, #0
10002d5e:	4802      	ldr	r0, [pc, #8]	; (10002d68 <dcd_set_address+0x10>)
10002d60:	f000 f904 	bl	10002f6c <hw_endpoint_xfer_start>
10002d64:	bd10      	pop	{r4, pc}
10002d66:	46c0      	nop			; (mov r8, r8)
10002d68:	20001a10 	.word	0x20001a10

10002d6c <dcd_sof_enable>:
10002d6c:	4b04      	ldr	r3, [pc, #16]	; (10002d80 <dcd_sof_enable+0x14>)
10002d6e:	7019      	strb	r1, [r3, #0]
10002d70:	2900      	cmp	r1, #0
10002d72:	d004      	beq.n	10002d7e <dcd_sof_enable+0x12>
10002d74:	2180      	movs	r1, #128	; 0x80
10002d76:	2390      	movs	r3, #144	; 0x90
10002d78:	4a02      	ldr	r2, [pc, #8]	; (10002d84 <dcd_sof_enable+0x18>)
10002d7a:	0289      	lsls	r1, r1, #10
10002d7c:	50d1      	str	r1, [r2, r3]
10002d7e:	4770      	bx	lr
10002d80:	20001e41 	.word	0x20001e41
10002d84:	50112000 	.word	0x50112000

10002d88 <dcd_edpt0_status_complete>:
10002d88:	780b      	ldrb	r3, [r1, #0]
10002d8a:	065b      	lsls	r3, r3, #25
10002d8c:	d102      	bne.n	10002d94 <dcd_edpt0_status_complete+0xc>
10002d8e:	784b      	ldrb	r3, [r1, #1]
10002d90:	2b05      	cmp	r3, #5
10002d92:	d000      	beq.n	10002d96 <dcd_edpt0_status_complete+0xe>
10002d94:	4770      	bx	lr
10002d96:	788a      	ldrb	r2, [r1, #2]
10002d98:	4b01      	ldr	r3, [pc, #4]	; (10002da0 <dcd_edpt0_status_complete+0x18>)
10002d9a:	601a      	str	r2, [r3, #0]
10002d9c:	e7fa      	b.n	10002d94 <dcd_edpt0_status_complete+0xc>
10002d9e:	46c0      	nop			; (mov r8, r8)
10002da0:	50110000 	.word	0x50110000

10002da4 <dcd_edpt_open>:
10002da4:	b5f8      	push	{r3, r4, r5, r6, r7, lr}
10002da6:	78cb      	ldrb	r3, [r1, #3]
10002da8:	2000      	movs	r0, #0
10002daa:	079b      	lsls	r3, r3, #30
10002dac:	0f9b      	lsrs	r3, r3, #30
10002dae:	b2da      	uxtb	r2, r3
10002db0:	2a01      	cmp	r2, #1
10002db2:	d04b      	beq.n	10002e4c <dcd_edpt_open+0xa8>
10002db4:	788f      	ldrb	r7, [r1, #2]
10002db6:	790a      	ldrb	r2, [r1, #4]
10002db8:	7949      	ldrb	r1, [r1, #5]
10002dba:	09fc      	lsrs	r4, r7, #7
10002dbc:	0209      	lsls	r1, r1, #8
10002dbe:	4311      	orrs	r1, r2
10002dc0:	0549      	lsls	r1, r1, #21
10002dc2:	0d4a      	lsrs	r2, r1, #21
10002dc4:	217f      	movs	r1, #127	; 0x7f
10002dc6:	4039      	ands	r1, r7
10002dc8:	004e      	lsls	r6, r1, #1
10002dca:	4694      	mov	ip, r2
10002dcc:	4d2c      	ldr	r5, [pc, #176]	; (10002e80 <dcd_edpt_open+0xdc>)
10002dce:	1932      	adds	r2, r6, r4
10002dd0:	0152      	lsls	r2, r2, #5
10002dd2:	18aa      	adds	r2, r5, r2
10002dd4:	7097      	strb	r7, [r2, #2]
10002dd6:	2701      	movs	r7, #1
10002dd8:	4067      	eors	r7, r4
10002dda:	7057      	strb	r7, [r2, #1]
10002ddc:	4667      	mov	r7, ip
10002dde:	76d3      	strb	r3, [r2, #27]
10002de0:	70d0      	strb	r0, [r2, #3]
10002de2:	8317      	strh	r7, [r2, #24]
10002de4:	00cb      	lsls	r3, r1, #3
10002de6:	2c01      	cmp	r4, #1
10002de8:	d039      	beq.n	10002e5e <dcd_edpt_open+0xba>
10002dea:	4a26      	ldr	r2, [pc, #152]	; (10002e84 <dcd_edpt_open+0xe0>)
10002dec:	4694      	mov	ip, r2
10002dee:	018a      	lsls	r2, r1, #6
10002df0:	4463      	add	r3, ip
10002df2:	18aa      	adds	r2, r5, r2
10002df4:	6093      	str	r3, [r2, #8]
10002df6:	6018      	str	r0, [r3, #0]
10002df8:	2900      	cmp	r1, #0
10002dfa:	d028      	beq.n	10002e4e <dcd_edpt_open+0xaa>
10002dfc:	00cb      	lsls	r3, r1, #3
10002dfe:	4922      	ldr	r1, [pc, #136]	; (10002e88 <dcd_edpt_open+0xe4>)
10002e00:	468c      	mov	ip, r1
10002e02:	4463      	add	r3, ip
10002e04:	6053      	str	r3, [r2, #4]
10002e06:	213f      	movs	r1, #63	; 0x3f
10002e08:	1933      	adds	r3, r6, r4
10002e0a:	015b      	lsls	r3, r3, #5
10002e0c:	18eb      	adds	r3, r5, r3
10002e0e:	8b1a      	ldrh	r2, [r3, #24]
10002e10:	323f      	adds	r2, #63	; 0x3f
10002e12:	438a      	bics	r2, r1
10002e14:	7ed9      	ldrb	r1, [r3, #27]
10002e16:	2902      	cmp	r1, #2
10002e18:	d030      	beq.n	10002e7c <dcd_edpt_open+0xd8>
10002e1a:	481c      	ldr	r0, [pc, #112]	; (10002e8c <dcd_edpt_open+0xe8>)
10002e1c:	6801      	ldr	r1, [r0, #0]
10002e1e:	60d9      	str	r1, [r3, #12]
10002e20:	4b1b      	ldr	r3, [pc, #108]	; (10002e90 <dcd_edpt_open+0xec>)
10002e22:	188a      	adds	r2, r1, r2
10002e24:	6002      	str	r2, [r0, #0]
10002e26:	429a      	cmp	r2, r3
10002e28:	d901      	bls.n	10002e2e <dcd_edpt_open+0x8a>
10002e2a:	f7fe ffd5 	bl	10001dd8 <hard_assertion_failure>
10002e2e:	1934      	adds	r4, r6, r4
10002e30:	0164      	lsls	r4, r4, #5
10002e32:	192d      	adds	r5, r5, r4
10002e34:	7eeb      	ldrb	r3, [r5, #27]
10002e36:	68e9      	ldr	r1, [r5, #12]
10002e38:	4a16      	ldr	r2, [pc, #88]	; (10002e94 <dcd_edpt_open+0xf0>)
10002e3a:	069b      	lsls	r3, r3, #26
10002e3c:	404a      	eors	r2, r1
10002e3e:	4313      	orrs	r3, r2
10002e40:	2280      	movs	r2, #128	; 0x80
10002e42:	2001      	movs	r0, #1
10002e44:	0612      	lsls	r2, r2, #24
10002e46:	4313      	orrs	r3, r2
10002e48:	686a      	ldr	r2, [r5, #4]
10002e4a:	6013      	str	r3, [r2, #0]
10002e4c:	bdf8      	pop	{r3, r4, r5, r6, r7, pc}
10002e4e:	2300      	movs	r3, #0
10002e50:	0164      	lsls	r4, r4, #5
10002e52:	192d      	adds	r5, r5, r4
10002e54:	606b      	str	r3, [r5, #4]
10002e56:	4b10      	ldr	r3, [pc, #64]	; (10002e98 <dcd_edpt_open+0xf4>)
10002e58:	2001      	movs	r0, #1
10002e5a:	60eb      	str	r3, [r5, #12]
10002e5c:	e7f6      	b.n	10002e4c <dcd_edpt_open+0xa8>
10002e5e:	4a0f      	ldr	r2, [pc, #60]	; (10002e9c <dcd_edpt_open+0xf8>)
10002e60:	4694      	mov	ip, r2
10002e62:	018a      	lsls	r2, r1, #6
10002e64:	4463      	add	r3, ip
10002e66:	18aa      	adds	r2, r5, r2
10002e68:	6293      	str	r3, [r2, #40]	; 0x28
10002e6a:	6018      	str	r0, [r3, #0]
10002e6c:	2900      	cmp	r1, #0
10002e6e:	d0ee      	beq.n	10002e4e <dcd_edpt_open+0xaa>
10002e70:	00cb      	lsls	r3, r1, #3
10002e72:	4908      	ldr	r1, [pc, #32]	; (10002e94 <dcd_edpt_open+0xf0>)
10002e74:	468c      	mov	ip, r1
10002e76:	4463      	add	r3, ip
10002e78:	6253      	str	r3, [r2, #36]	; 0x24
10002e7a:	e7c4      	b.n	10002e06 <dcd_edpt_open+0x62>
10002e7c:	0052      	lsls	r2, r2, #1
10002e7e:	e7cc      	b.n	10002e1a <dcd_edpt_open+0x76>
10002e80:	200019f0 	.word	0x200019f0
10002e84:	50100084 	.word	0x50100084
10002e88:	50100004 	.word	0x50100004
10002e8c:	20001df8 	.word	0x20001df8
10002e90:	50100fff 	.word	0x50100fff
10002e94:	50100000 	.word	0x50100000
10002e98:	50100100 	.word	0x50100100
10002e9c:	50100080 	.word	0x50100080

10002ea0 <dcd_edpt_close_all>:
10002ea0:	b510      	push	{r4, lr}
10002ea2:	f001 ffd9 	bl	10004e58 <__reset_non_control_endpoints_veneer>
10002ea6:	bd10      	pop	{r4, pc}

10002ea8 <dcd_edpt_xfer>:
10002ea8:	207f      	movs	r0, #127	; 0x7f
10002eaa:	b520      	push	{r5, lr}
10002eac:	0015      	movs	r5, r2
10002eae:	4008      	ands	r0, r1
10002eb0:	0040      	lsls	r0, r0, #1
10002eb2:	09c9      	lsrs	r1, r1, #7
10002eb4:	1840      	adds	r0, r0, r1
10002eb6:	4904      	ldr	r1, [pc, #16]	; (10002ec8 <dcd_edpt_xfer+0x20>)
10002eb8:	0140      	lsls	r0, r0, #5
10002eba:	1840      	adds	r0, r0, r1
10002ebc:	001a      	movs	r2, r3
10002ebe:	0029      	movs	r1, r5
10002ec0:	f000 f854 	bl	10002f6c <hw_endpoint_xfer_start>
10002ec4:	2001      	movs	r0, #1
10002ec6:	bd20      	pop	{r5, pc}
10002ec8:	200019f0 	.word	0x200019f0

10002ecc <dcd_edpt_stall>:
10002ecc:	237f      	movs	r3, #127	; 0x7f
10002ece:	b510      	push	{r4, lr}
10002ed0:	400b      	ands	r3, r1
10002ed2:	09c9      	lsrs	r1, r1, #7
10002ed4:	2b00      	cmp	r3, #0
10002ed6:	d103      	bne.n	10002ee0 <dcd_edpt_stall+0x14>
10002ed8:	2202      	movs	r2, #2
10002eda:	4807      	ldr	r0, [pc, #28]	; (10002ef8 <dcd_edpt_stall+0x2c>)
10002edc:	1a52      	subs	r2, r2, r1
10002ede:	6682      	str	r2, [r0, #104]	; 0x68
10002ee0:	2280      	movs	r2, #128	; 0x80
10002ee2:	0058      	lsls	r0, r3, #1
10002ee4:	1840      	adds	r0, r0, r1
10002ee6:	4b05      	ldr	r3, [pc, #20]	; (10002efc <dcd_edpt_stall+0x30>)
10002ee8:	0140      	lsls	r0, r0, #5
10002eea:	18c0      	adds	r0, r0, r3
10002eec:	0112      	lsls	r2, r2, #4
10002eee:	2100      	movs	r1, #0
10002ef0:	f001 ffea 	bl	10004ec8 <___hw_endpoint_buffer_control_update32_veneer>
10002ef4:	bd10      	pop	{r4, pc}
10002ef6:	46c0      	nop			; (mov r8, r8)
10002ef8:	50112000 	.word	0x50112000
10002efc:	200019f0 	.word	0x200019f0

10002f00 <dcd_edpt_clear_stall>:
10002f00:	237f      	movs	r3, #127	; 0x7f
10002f02:	b510      	push	{r4, lr}
10002f04:	400b      	ands	r3, r1
10002f06:	d00b      	beq.n	10002f20 <dcd_edpt_clear_stall+0x20>
10002f08:	09c9      	lsrs	r1, r1, #7
10002f0a:	0058      	lsls	r0, r3, #1
10002f0c:	1840      	adds	r0, r0, r1
10002f0e:	4b05      	ldr	r3, [pc, #20]	; (10002f24 <dcd_edpt_clear_stall+0x24>)
10002f10:	0140      	lsls	r0, r0, #5
10002f12:	1818      	adds	r0, r3, r0
10002f14:	2300      	movs	r3, #0
10002f16:	2200      	movs	r2, #0
10002f18:	70c3      	strb	r3, [r0, #3]
10002f1a:	4903      	ldr	r1, [pc, #12]	; (10002f28 <dcd_edpt_clear_stall+0x28>)
10002f1c:	f001 ffd4 	bl	10004ec8 <___hw_endpoint_buffer_control_update32_veneer>
10002f20:	bd10      	pop	{r4, pc}
10002f22:	46c0      	nop			; (mov r8, r8)
10002f24:	200019f0 	.word	0x200019f0
10002f28:	fffff7ff 	.word	0xfffff7ff

10002f2c <rp2040_usb_init>:
10002f2c:	2280      	movs	r2, #128	; 0x80
10002f2e:	4b0a      	ldr	r3, [pc, #40]	; (10002f58 <rp2040_usb_init+0x2c>)
10002f30:	0452      	lsls	r2, r2, #17
10002f32:	b510      	push	{r4, lr}
10002f34:	601a      	str	r2, [r3, #0]
10002f36:	4b09      	ldr	r3, [pc, #36]	; (10002f5c <rp2040_usb_init+0x30>)
10002f38:	4909      	ldr	r1, [pc, #36]	; (10002f60 <rp2040_usb_init+0x34>)
10002f3a:	601a      	str	r2, [r3, #0]
10002f3c:	0010      	movs	r0, r2
10002f3e:	680b      	ldr	r3, [r1, #0]
10002f40:	4398      	bics	r0, r3
10002f42:	d1fb      	bne.n	10002f3c <rp2040_usb_init+0x10>
10002f44:	2280      	movs	r2, #128	; 0x80
10002f46:	2100      	movs	r1, #0
10002f48:	0152      	lsls	r2, r2, #5
10002f4a:	4806      	ldr	r0, [pc, #24]	; (10002f64 <rp2040_usb_init+0x38>)
10002f4c:	f7ff f93e 	bl	100021cc <__wrap_memset>
10002f50:	2209      	movs	r2, #9
10002f52:	4b05      	ldr	r3, [pc, #20]	; (10002f68 <rp2040_usb_init+0x3c>)
10002f54:	675a      	str	r2, [r3, #116]	; 0x74
10002f56:	bd10      	pop	{r4, pc}
10002f58:	4000e000 	.word	0x4000e000
10002f5c:	4000f000 	.word	0x4000f000
10002f60:	4000c008 	.word	0x4000c008
10002f64:	50100000 	.word	0x50100000
10002f68:	50110000 	.word	0x50110000

10002f6c <hw_endpoint_xfer_start>:
10002f6c:	b570      	push	{r4, r5, r6, lr}
10002f6e:	7e83      	ldrb	r3, [r0, #26]
10002f70:	0004      	movs	r4, r0
10002f72:	000d      	movs	r5, r1
10002f74:	0016      	movs	r6, r2
10002f76:	2b00      	cmp	r3, #0
10002f78:	d11d      	bne.n	10002fb6 <hw_endpoint_xfer_start+0x4a>
10002f7a:	2300      	movs	r3, #0
10002f7c:	0021      	movs	r1, r4
10002f7e:	82e3      	strh	r3, [r4, #22]
10002f80:	3301      	adds	r3, #1
10002f82:	82a6      	strh	r6, [r4, #20]
10002f84:	76a3      	strb	r3, [r4, #26]
10002f86:	6125      	str	r5, [r4, #16]
10002f88:	1ca0      	adds	r0, r4, #2
10002f8a:	311b      	adds	r1, #27
10002f8c:	f001 ffac 	bl	10004ee8 <__e15_is_bulkin_ep.isra.0_veneer>
10002f90:	2800      	cmp	r0, #0
10002f92:	d004      	beq.n	10002f9e <hw_endpoint_xfer_start+0x32>
10002f94:	2180      	movs	r1, #128	; 0x80
10002f96:	2390      	movs	r3, #144	; 0x90
10002f98:	4a08      	ldr	r2, [pc, #32]	; (10002fbc <hw_endpoint_xfer_start+0x50>)
10002f9a:	0289      	lsls	r1, r1, #10
10002f9c:	50d1      	str	r1, [r2, r3]
10002f9e:	0020      	movs	r0, r4
10002fa0:	f001 ff9a 	bl	10004ed8 <__e15_is_critical_frame_period_veneer>
10002fa4:	2800      	cmp	r0, #0
10002fa6:	d002      	beq.n	10002fae <hw_endpoint_xfer_start+0x42>
10002fa8:	2301      	movs	r3, #1
10002faa:	7723      	strb	r3, [r4, #28]
10002fac:	bd70      	pop	{r4, r5, r6, pc}
10002fae:	0020      	movs	r0, r4
10002fb0:	f001 ff7a 	bl	10004ea8 <__hw_endpoint_start_next_buffer_veneer>
10002fb4:	e7fa      	b.n	10002fac <hw_endpoint_xfer_start+0x40>
10002fb6:	f001 ff7f 	bl	10004eb8 <__hw_endpoint_reset_transfer_veneer>
10002fba:	e7de      	b.n	10002f7a <hw_endpoint_xfer_start+0xe>
10002fbc:	50112000 	.word	0x50112000

10002fc0 <tud_event_hook_cb>:
10002fc0:	4770      	bx	lr
10002fc2:	46c0      	nop			; (mov r8, r8)

10002fc4 <tud_sof_cb>:
10002fc4:	4770      	bx	lr
10002fc6:	46c0      	nop			; (mov r8, r8)

10002fc8 <tud_descriptor_device_qualifier_cb>:
10002fc8:	2000      	movs	r0, #0
10002fca:	4770      	bx	lr

10002fcc <tud_descriptor_other_speed_configuration_cb>:
10002fcc:	2000      	movs	r0, #0
10002fce:	4770      	bx	lr

10002fd0 <tud_mount_cb>:
10002fd0:	4770      	bx	lr
10002fd2:	46c0      	nop			; (mov r8, r8)

10002fd4 <tud_umount_cb>:
10002fd4:	4770      	bx	lr
10002fd6:	46c0      	nop			; (mov r8, r8)

10002fd8 <tud_suspend_cb>:
10002fd8:	4770      	bx	lr
10002fda:	46c0      	nop			; (mov r8, r8)

10002fdc <tud_resume_cb>:
10002fdc:	4770      	bx	lr
10002fde:	46c0      	nop			; (mov r8, r8)

10002fe0 <tud_mounted>:
10002fe0:	4b02      	ldr	r3, [pc, #8]	; (10002fec <tud_mounted+0xc>)
10002fe2:	7858      	ldrb	r0, [r3, #1]
10002fe4:	1e43      	subs	r3, r0, #1
10002fe6:	4198      	sbcs	r0, r3
10002fe8:	b2c0      	uxtb	r0, r0
10002fea:	4770      	bx	lr
10002fec:	2000155c 	.word	0x2000155c

10002ff0 <tud_suspended>:
10002ff0:	4b02      	ldr	r3, [pc, #8]	; (10002ffc <tud_suspended+0xc>)
10002ff2:	7818      	ldrb	r0, [r3, #0]
10002ff4:	0740      	lsls	r0, r0, #29
10002ff6:	0fc0      	lsrs	r0, r0, #31
10002ff8:	4770      	bx	lr
10002ffa:	46c0      	nop			; (mov r8, r8)
10002ffc:	2000155c 	.word	0x2000155c

10003000 <tud_rhport_init>:
10003000:	b5f0      	push	{r4, r5, r6, r7, lr}
10003002:	464f      	mov	r7, r9
10003004:	4646      	mov	r6, r8
10003006:	46d6      	mov	lr, sl
10003008:	b5c0      	push	{r6, r7, lr}
1000300a:	4d2f      	ldr	r5, [pc, #188]	; (100030c8 <tud_rhport_init+0xc8>)
1000300c:	4680      	mov	r8, r0
1000300e:	782b      	ldrb	r3, [r5, #0]
10003010:	000f      	movs	r7, r1
10003012:	2401      	movs	r4, #1
10003014:	2bff      	cmp	r3, #255	; 0xff
10003016:	d005      	beq.n	10003024 <tud_rhport_init+0x24>
10003018:	0020      	movs	r0, r4
1000301a:	bc1c      	pop	{r2, r3, r4}
1000301c:	4690      	mov	r8, r2
1000301e:	4699      	mov	r9, r3
10003020:	46a2      	mov	sl, r4
10003022:	bdf0      	pop	{r4, r5, r6, r7, pc}
10003024:	2900      	cmp	r1, #0
10003026:	d048      	beq.n	100030ba <tud_rhport_init+0xba>
10003028:	2100      	movs	r1, #0
1000302a:	2254      	movs	r2, #84	; 0x54
1000302c:	4827      	ldr	r0, [pc, #156]	; (100030cc <tud_rhport_init+0xcc>)
1000302e:	f7ff f8cd 	bl	100021cc <__wrap_memset>
10003032:	2200      	movs	r2, #0
10003034:	4c26      	ldr	r4, [pc, #152]	; (100030d0 <tud_rhport_init+0xd0>)
10003036:	4b27      	ldr	r3, [pc, #156]	; (100030d4 <tud_rhport_init+0xd4>)
10003038:	0020      	movs	r0, r4
1000303a:	701a      	strb	r2, [r3, #0]
1000303c:	f7fd ffd4 	bl	10000fe8 <mutex_init>
10003040:	4b25      	ldr	r3, [pc, #148]	; (100030d8 <tud_rhport_init+0xd8>)
10003042:	601c      	str	r4, [r3, #0]
10003044:	4c25      	ldr	r4, [pc, #148]	; (100030dc <tud_rhport_init+0xdc>)
10003046:	0020      	movs	r0, r4
10003048:	3014      	adds	r0, #20
1000304a:	f7fd ffdb 	bl	10001004 <critical_section_init>
1000304e:	0020      	movs	r0, r4
10003050:	f001 fe68 	bl	10004d24 <tu_fifo_clear>
10003054:	4b22      	ldr	r3, [pc, #136]	; (100030e0 <tud_rhport_init+0xe0>)
10003056:	4e23      	ldr	r6, [pc, #140]	; (100030e4 <tud_rhport_init+0xe4>)
10003058:	601c      	str	r4, [r3, #0]
1000305a:	4b23      	ldr	r3, [pc, #140]	; (100030e8 <tud_rhport_init+0xe8>)
1000305c:	2b00      	cmp	r3, #0
1000305e:	d004      	beq.n	1000306a <tud_rhport_init+0x6a>
10003060:	0030      	movs	r0, r6
10003062:	f7ff fabb 	bl	100025dc <usbd_app_driver_get_cb>
10003066:	4b21      	ldr	r3, [pc, #132]	; (100030ec <tud_rhport_init+0xec>)
10003068:	6018      	str	r0, [r3, #0]
1000306a:	4921      	ldr	r1, [pc, #132]	; (100030f0 <tud_rhport_init+0xf0>)
1000306c:	7832      	ldrb	r2, [r6, #0]
1000306e:	468a      	mov	sl, r1
10003070:	491e      	ldr	r1, [pc, #120]	; (100030ec <tud_rhport_init+0xec>)
10003072:	2400      	movs	r4, #0
10003074:	2300      	movs	r3, #0
10003076:	4689      	mov	r9, r1
10003078:	e011      	b.n	1000309e <tud_rhport_init+0x9e>
1000307a:	464a      	mov	r2, r9
1000307c:	6812      	ldr	r2, [r2, #0]
1000307e:	0163      	lsls	r3, r4, #5
10003080:	4694      	mov	ip, r2
10003082:	4463      	add	r3, ip
10003084:	2b00      	cmp	r3, #0
10003086:	d018      	beq.n	100030ba <tud_rhport_init+0xba>
10003088:	685b      	ldr	r3, [r3, #4]
1000308a:	2b00      	cmp	r3, #0
1000308c:	d015      	beq.n	100030ba <tud_rhport_init+0xba>
1000308e:	4798      	blx	r3
10003090:	7832      	ldrb	r2, [r6, #0]
10003092:	3401      	adds	r4, #1
10003094:	b2e4      	uxtb	r4, r4
10003096:	1c51      	adds	r1, r2, #1
10003098:	0023      	movs	r3, r4
1000309a:	42a1      	cmp	r1, r4
1000309c:	db05      	blt.n	100030aa <tud_rhport_init+0xaa>
1000309e:	42a2      	cmp	r2, r4
100030a0:	d8eb      	bhi.n	1000307a <tud_rhport_init+0x7a>
100030a2:	1a9b      	subs	r3, r3, r2
100030a4:	015b      	lsls	r3, r3, #5
100030a6:	4453      	add	r3, sl
100030a8:	e7ee      	b.n	10003088 <tud_rhport_init+0x88>
100030aa:	4643      	mov	r3, r8
100030ac:	0039      	movs	r1, r7
100030ae:	4640      	mov	r0, r8
100030b0:	702b      	strb	r3, [r5, #0]
100030b2:	f7ff fe03 	bl	10002cbc <dcd_init>
100030b6:	1e04      	subs	r4, r0, #0
100030b8:	d101      	bne.n	100030be <tud_rhport_init+0xbe>
100030ba:	2400      	movs	r4, #0
100030bc:	e7ac      	b.n	10003018 <tud_rhport_init+0x18>
100030be:	4640      	mov	r0, r8
100030c0:	f7ff fe44 	bl	10002d4c <dcd_int_enable>
100030c4:	e7a8      	b.n	10003018 <tud_rhport_init+0x18>
100030c6:	46c0      	nop			; (mov r8, r8)
100030c8:	20001134 	.word	0x20001134
100030cc:	2000155c 	.word	0x2000155c
100030d0:	20001554 	.word	0x20001554
100030d4:	20001e42 	.word	0x20001e42
100030d8:	200015b0 	.word	0x200015b0
100030dc:	20001118 	.word	0x20001118
100030e0:	200015b4 	.word	0x200015b4
100030e4:	20001e40 	.word	0x20001e40
100030e8:	100025dd 	.word	0x100025dd
100030ec:	200013ac 	.word	0x200013ac
100030f0:	10005464 	.word	0x10005464

100030f4 <tud_task_ext>:
100030f4:	b5f0      	push	{r4, r5, r6, r7, lr}
100030f6:	46de      	mov	lr, fp
100030f8:	4657      	mov	r7, sl
100030fa:	464e      	mov	r6, r9
100030fc:	4645      	mov	r5, r8
100030fe:	b5e0      	push	{r5, r6, r7, lr}
10003100:	4bcb      	ldr	r3, [pc, #812]	; (10003430 <tud_task_ext+0x33c>)
10003102:	b08d      	sub	sp, #52	; 0x34
10003104:	781b      	ldrb	r3, [r3, #0]
10003106:	2bff      	cmp	r3, #255	; 0xff
10003108:	d100      	bne.n	1000310c <tud_task_ext+0x18>
1000310a:	e12e      	b.n	1000336a <tud_task_ext+0x276>
1000310c:	2300      	movs	r3, #0
1000310e:	469a      	mov	sl, r3
10003110:	4bc8      	ldr	r3, [pc, #800]	; (10003434 <tud_task_ext+0x340>)
10003112:	4dc9      	ldr	r5, [pc, #804]	; (10003438 <tud_task_ext+0x344>)
10003114:	469b      	mov	fp, r3
10003116:	ac09      	add	r4, sp, #36	; 0x24
10003118:	682e      	ldr	r6, [r5, #0]
1000311a:	6972      	ldr	r2, [r6, #20]
1000311c:	f3ef 8110 	mrs	r1, PRIMASK
10003120:	b672      	cpsid	i
10003122:	6813      	ldr	r3, [r2, #0]
10003124:	2b00      	cmp	r3, #0
10003126:	d0fc      	beq.n	10003122 <tud_task_ext+0x2e>
10003128:	f3bf 8f5f 	dmb	sy
1000312c:	61b1      	str	r1, [r6, #24]
1000312e:	0030      	movs	r0, r6
10003130:	0021      	movs	r1, r4
10003132:	f001 fc51 	bl	100049d8 <tu_fifo_read>
10003136:	6972      	ldr	r2, [r6, #20]
10003138:	69b3      	ldr	r3, [r6, #24]
1000313a:	f3bf 8f5f 	dmb	sy
1000313e:	4651      	mov	r1, sl
10003140:	6011      	str	r1, [r2, #0]
10003142:	f383 8810 	msr	PRIMASK, r3
10003146:	2800      	cmp	r0, #0
10003148:	d100      	bne.n	1000314c <tud_task_ext+0x58>
1000314a:	e10e      	b.n	1000336a <tud_task_ext+0x276>
1000314c:	7863      	ldrb	r3, [r4, #1]
1000314e:	2b08      	cmp	r3, #8
10003150:	d8e2      	bhi.n	10003118 <tud_task_ext+0x24>
10003152:	465a      	mov	r2, fp
10003154:	009b      	lsls	r3, r3, #2
10003156:	58d3      	ldr	r3, [r2, r3]
10003158:	469f      	mov	pc, r3
1000315a:	6863      	ldr	r3, [r4, #4]
1000315c:	2b00      	cmp	r3, #0
1000315e:	d0db      	beq.n	10003118 <tud_task_ext+0x24>
10003160:	68a0      	ldr	r0, [r4, #8]
10003162:	4798      	blx	r3
10003164:	e7d8      	b.n	10003118 <tud_task_ext+0x24>
10003166:	227f      	movs	r2, #127	; 0x7f
10003168:	7921      	ldrb	r1, [r4, #4]
1000316a:	4eb4      	ldr	r6, [pc, #720]	; (1000343c <tud_task_ext+0x348>)
1000316c:	400a      	ands	r2, r1
1000316e:	0050      	lsls	r0, r2, #1
10003170:	09cb      	lsrs	r3, r1, #7
10003172:	1836      	adds	r6, r6, r0
10003174:	18f6      	adds	r6, r6, r3
10003176:	0030      	movs	r0, r6
10003178:	2701      	movs	r7, #1
1000317a:	3030      	adds	r0, #48	; 0x30
1000317c:	7903      	ldrb	r3, [r0, #4]
1000317e:	43bb      	bics	r3, r7
10003180:	7103      	strb	r3, [r0, #4]
10003182:	7903      	ldrb	r3, [r0, #4]
10003184:	3703      	adds	r7, #3
10003186:	43bb      	bics	r3, r7
10003188:	7103      	strb	r3, [r0, #4]
1000318a:	2a00      	cmp	r2, #0
1000318c:	d100      	bne.n	10003190 <tud_task_ext+0x9c>
1000318e:	e113      	b.n	100033b8 <tud_task_ext+0x2c4>
10003190:	4aab      	ldr	r2, [pc, #684]	; (10003440 <tud_task_ext+0x34c>)
10003192:	7d33      	ldrb	r3, [r6, #20]
10003194:	7812      	ldrb	r2, [r2, #0]
10003196:	4293      	cmp	r3, r2
10003198:	d300      	bcc.n	1000319c <tud_task_ext+0xa8>
1000319a:	e105      	b.n	100033a8 <tud_task_ext+0x2b4>
1000319c:	4aa9      	ldr	r2, [pc, #676]	; (10003444 <tud_task_ext+0x350>)
1000319e:	015b      	lsls	r3, r3, #5
100031a0:	6812      	ldr	r2, [r2, #0]
100031a2:	18d3      	adds	r3, r2, r3
100031a4:	2b00      	cmp	r3, #0
100031a6:	d100      	bne.n	100031aa <tud_task_ext+0xb6>
100031a8:	e0df      	b.n	1000336a <tud_task_ext+0x276>
100031aa:	699e      	ldr	r6, [r3, #24]
100031ac:	7962      	ldrb	r2, [r4, #5]
100031ae:	7820      	ldrb	r0, [r4, #0]
100031b0:	68a3      	ldr	r3, [r4, #8]
100031b2:	47b0      	blx	r6
100031b4:	e7b0      	b.n	10003118 <tud_task_ext+0x24>
100031b6:	4aa4      	ldr	r2, [pc, #656]	; (10003448 <tud_task_ext+0x354>)
100031b8:	7813      	ldrb	r3, [r2, #0]
100031ba:	2b00      	cmp	r3, #0
100031bc:	d100      	bne.n	100031c0 <tud_task_ext+0xcc>
100031be:	e0d4      	b.n	1000336a <tud_task_ext+0x276>
100031c0:	7813      	ldrb	r3, [r2, #0]
100031c2:	3b01      	subs	r3, #1
100031c4:	b2db      	uxtb	r3, r3
100031c6:	7013      	strb	r3, [r2, #0]
100031c8:	7813      	ldrb	r3, [r2, #0]
100031ca:	2b00      	cmp	r3, #0
100031cc:	d1a4      	bne.n	10003118 <tud_task_ext+0x24>
100031ce:	2201      	movs	r2, #1
100031d0:	4b9a      	ldr	r3, [pc, #616]	; (1000343c <tud_task_ext+0x348>)
100031d2:	2101      	movs	r1, #1
100031d4:	781b      	ldrb	r3, [r3, #0]
100031d6:	4899      	ldr	r0, [pc, #612]	; (1000343c <tud_task_ext+0x348>)
100031d8:	4313      	orrs	r3, r2
100031da:	4a98      	ldr	r2, [pc, #608]	; (1000343c <tud_task_ext+0x348>)
100031dc:	4e97      	ldr	r6, [pc, #604]	; (1000343c <tud_task_ext+0x348>)
100031de:	7013      	strb	r3, [r2, #0]
100031e0:	2334      	movs	r3, #52	; 0x34
100031e2:	5cd2      	ldrb	r2, [r2, r3]
100031e4:	438a      	bics	r2, r1
100031e6:	54c2      	strb	r2, [r0, r3]
100031e8:	5cc2      	ldrb	r2, [r0, r3]
100031ea:	2004      	movs	r0, #4
100031ec:	4382      	bics	r2, r0
100031ee:	54f2      	strb	r2, [r6, r3]
100031f0:	3301      	adds	r3, #1
100031f2:	5cf2      	ldrb	r2, [r6, r3]
100031f4:	438a      	bics	r2, r1
100031f6:	54f2      	strb	r2, [r6, r3]
100031f8:	5cf2      	ldrb	r2, [r6, r3]
100031fa:	4382      	bics	r2, r0
100031fc:	54f2      	strb	r2, [r6, r3]
100031fe:	7823      	ldrb	r3, [r4, #0]
10003200:	2000      	movs	r0, #0
10003202:	9301      	str	r3, [sp, #4]
10003204:	f000 fcc4 	bl	10003b90 <usbd_control_set_complete_callback>
10003208:	2260      	movs	r2, #96	; 0x60
1000320a:	7923      	ldrb	r3, [r4, #4]
1000320c:	401a      	ands	r2, r3
1000320e:	2a60      	cmp	r2, #96	; 0x60
10003210:	d100      	bne.n	10003214 <tud_task_ext+0x120>
10003212:	e0f7      	b.n	10003404 <tud_task_ext+0x310>
10003214:	2a40      	cmp	r2, #64	; 0x40
10003216:	d100      	bne.n	1000321a <tud_task_ext+0x126>
10003218:	e14c      	b.n	100034b4 <tud_task_ext+0x3c0>
1000321a:	06db      	lsls	r3, r3, #27
1000321c:	0edb      	lsrs	r3, r3, #27
1000321e:	2b01      	cmp	r3, #1
10003220:	d100      	bne.n	10003224 <tud_task_ext+0x130>
10003222:	e117      	b.n	10003454 <tud_task_ext+0x360>
10003224:	2b00      	cmp	r3, #0
10003226:	d100      	bne.n	1000322a <tud_task_ext+0x136>
10003228:	e0f5      	b.n	10003416 <tud_task_ext+0x322>
1000322a:	2b02      	cmp	r3, #2
1000322c:	d000      	beq.n	10003230 <tud_task_ext+0x13c>
1000322e:	e0e9      	b.n	10003404 <tud_task_ext+0x310>
10003230:	267f      	movs	r6, #127	; 0x7f
10003232:	7a21      	ldrb	r1, [r4, #8]
10003234:	400e      	ands	r6, r1
10003236:	2e0f      	cmp	r6, #15
10003238:	d900      	bls.n	1000323c <tud_task_ext+0x148>
1000323a:	e0e3      	b.n	10003404 <tud_task_ext+0x310>
1000323c:	09cb      	lsrs	r3, r1, #7
1000323e:	4698      	mov	r8, r3
10003240:	4b7e      	ldr	r3, [pc, #504]	; (1000343c <tud_task_ext+0x348>)
10003242:	0076      	lsls	r6, r6, #1
10003244:	199b      	adds	r3, r3, r6
10003246:	4443      	add	r3, r8
10003248:	7d1f      	ldrb	r7, [r3, #20]
1000324a:	4b7d      	ldr	r3, [pc, #500]	; (10003440 <tud_task_ext+0x34c>)
1000324c:	781b      	ldrb	r3, [r3, #0]
1000324e:	429f      	cmp	r7, r3
10003250:	d300      	bcc.n	10003254 <tud_task_ext+0x160>
10003252:	e1a7      	b.n	100035a4 <tud_task_ext+0x4b0>
10003254:	4b7b      	ldr	r3, [pc, #492]	; (10003444 <tud_task_ext+0x350>)
10003256:	017f      	lsls	r7, r7, #5
10003258:	681b      	ldr	r3, [r3, #0]
1000325a:	19df      	adds	r7, r3, r7
1000325c:	2a00      	cmp	r2, #0
1000325e:	d100      	bne.n	10003262 <tud_task_ext+0x16e>
10003260:	e1a7      	b.n	100035b2 <tud_task_ext+0x4be>
10003262:	2f00      	cmp	r7, #0
10003264:	d100      	bne.n	10003268 <tud_task_ext+0x174>
10003266:	e0cd      	b.n	10003404 <tud_task_ext+0x310>
10003268:	6978      	ldr	r0, [r7, #20]
1000326a:	f000 fc91 	bl	10003b90 <usbd_control_set_complete_callback>
1000326e:	697b      	ldr	r3, [r7, #20]
10003270:	aa0a      	add	r2, sp, #40	; 0x28
10003272:	2101      	movs	r1, #1
10003274:	9801      	ldr	r0, [sp, #4]
10003276:	4798      	blx	r3
10003278:	e124      	b.n	100034c4 <tud_task_ext+0x3d0>
1000327a:	4e70      	ldr	r6, [pc, #448]	; (1000343c <tud_task_ext+0x348>)
1000327c:	7833      	ldrb	r3, [r6, #0]
1000327e:	07db      	lsls	r3, r3, #31
10003280:	d400      	bmi.n	10003284 <tud_task_ext+0x190>
10003282:	e749      	b.n	10003118 <tud_task_ext+0x24>
10003284:	f7ff feaa 	bl	10002fdc <tud_resume_cb>
10003288:	e746      	b.n	10003118 <tud_task_ext+0x24>
1000328a:	4e6c      	ldr	r6, [pc, #432]	; (1000343c <tud_task_ext+0x348>)
1000328c:	78f3      	ldrb	r3, [r6, #3]
1000328e:	07db      	lsls	r3, r3, #31
10003290:	d400      	bmi.n	10003294 <tud_task_ext+0x1a0>
10003292:	e741      	b.n	10003118 <tud_task_ext+0x24>
10003294:	6860      	ldr	r0, [r4, #4]
10003296:	f7ff fe95 	bl	10002fc4 <tud_sof_cb>
1000329a:	e73d      	b.n	10003118 <tud_task_ext+0x24>
1000329c:	4e67      	ldr	r6, [pc, #412]	; (1000343c <tud_task_ext+0x348>)
1000329e:	7833      	ldrb	r3, [r6, #0]
100032a0:	07db      	lsls	r3, r3, #31
100032a2:	d400      	bmi.n	100032a6 <tud_task_ext+0x1b2>
100032a4:	e738      	b.n	10003118 <tud_task_ext+0x24>
100032a6:	7830      	ldrb	r0, [r6, #0]
100032a8:	0700      	lsls	r0, r0, #28
100032aa:	0fc0      	lsrs	r0, r0, #31
100032ac:	f7ff fe94 	bl	10002fd8 <tud_suspend_cb>
100032b0:	e732      	b.n	10003118 <tud_task_ext+0x24>
100032b2:	4b63      	ldr	r3, [pc, #396]	; (10003440 <tud_task_ext+0x34c>)
100032b4:	4963      	ldr	r1, [pc, #396]	; (10003444 <tud_task_ext+0x350>)
100032b6:	4699      	mov	r9, r3
100032b8:	781a      	ldrb	r2, [r3, #0]
100032ba:	7827      	ldrb	r7, [r4, #0]
100032bc:	2300      	movs	r3, #0
100032be:	2600      	movs	r6, #0
100032c0:	4688      	mov	r8, r1
100032c2:	e011      	b.n	100032e8 <tud_task_ext+0x1f4>
100032c4:	4642      	mov	r2, r8
100032c6:	6812      	ldr	r2, [r2, #0]
100032c8:	0173      	lsls	r3, r6, #5
100032ca:	4694      	mov	ip, r2
100032cc:	4463      	add	r3, ip
100032ce:	2b00      	cmp	r3, #0
100032d0:	d068      	beq.n	100033a4 <tud_task_ext+0x2b0>
100032d2:	68db      	ldr	r3, [r3, #12]
100032d4:	0038      	movs	r0, r7
100032d6:	4798      	blx	r3
100032d8:	464b      	mov	r3, r9
100032da:	781a      	ldrb	r2, [r3, #0]
100032dc:	3601      	adds	r6, #1
100032de:	b2f6      	uxtb	r6, r6
100032e0:	1c51      	adds	r1, r2, #1
100032e2:	0033      	movs	r3, r6
100032e4:	428e      	cmp	r6, r1
100032e6:	dc47      	bgt.n	10003378 <tud_task_ext+0x284>
100032e8:	4296      	cmp	r6, r2
100032ea:	d3eb      	bcc.n	100032c4 <tud_task_ext+0x1d0>
100032ec:	1a9b      	subs	r3, r3, r2
100032ee:	4a57      	ldr	r2, [pc, #348]	; (1000344c <tud_task_ext+0x358>)
100032f0:	015b      	lsls	r3, r3, #5
100032f2:	4694      	mov	ip, r2
100032f4:	4463      	add	r3, ip
100032f6:	e7ec      	b.n	100032d2 <tud_task_ext+0x1de>
100032f8:	4b51      	ldr	r3, [pc, #324]	; (10003440 <tud_task_ext+0x34c>)
100032fa:	4952      	ldr	r1, [pc, #328]	; (10003444 <tud_task_ext+0x350>)
100032fc:	4699      	mov	r9, r3
100032fe:	781a      	ldrb	r2, [r3, #0]
10003300:	7827      	ldrb	r7, [r4, #0]
10003302:	2300      	movs	r3, #0
10003304:	2600      	movs	r6, #0
10003306:	4688      	mov	r8, r1
10003308:	e011      	b.n	1000332e <tud_task_ext+0x23a>
1000330a:	4642      	mov	r2, r8
1000330c:	6812      	ldr	r2, [r2, #0]
1000330e:	0173      	lsls	r3, r6, #5
10003310:	4694      	mov	ip, r2
10003312:	4463      	add	r3, ip
10003314:	2b00      	cmp	r3, #0
10003316:	d023      	beq.n	10003360 <tud_task_ext+0x26c>
10003318:	68db      	ldr	r3, [r3, #12]
1000331a:	0038      	movs	r0, r7
1000331c:	4798      	blx	r3
1000331e:	464b      	mov	r3, r9
10003320:	781a      	ldrb	r2, [r3, #0]
10003322:	3601      	adds	r6, #1
10003324:	b2f6      	uxtb	r6, r6
10003326:	1c51      	adds	r1, r2, #1
10003328:	0033      	movs	r3, r6
1000332a:	428e      	cmp	r6, r1
1000332c:	dc07      	bgt.n	1000333e <tud_task_ext+0x24a>
1000332e:	4296      	cmp	r6, r2
10003330:	d3eb      	bcc.n	1000330a <tud_task_ext+0x216>
10003332:	1a9b      	subs	r3, r3, r2
10003334:	4a45      	ldr	r2, [pc, #276]	; (1000344c <tud_task_ext+0x358>)
10003336:	015b      	lsls	r3, r3, #5
10003338:	4694      	mov	ip, r2
1000333a:	4463      	add	r3, ip
1000333c:	e7ec      	b.n	10003318 <tud_task_ext+0x224>
1000333e:	4e3f      	ldr	r6, [pc, #252]	; (1000343c <tud_task_ext+0x348>)
10003340:	2254      	movs	r2, #84	; 0x54
10003342:	2100      	movs	r1, #0
10003344:	0030      	movs	r0, r6
10003346:	f7fe ff41 	bl	100021cc <__wrap_memset>
1000334a:	2210      	movs	r2, #16
1000334c:	21ff      	movs	r1, #255	; 0xff
1000334e:	1d30      	adds	r0, r6, #4
10003350:	f7fe ff3c 	bl	100021cc <__wrap_memset>
10003354:	0030      	movs	r0, r6
10003356:	2220      	movs	r2, #32
10003358:	3014      	adds	r0, #20
1000335a:	21ff      	movs	r1, #255	; 0xff
1000335c:	f7fe ff36 	bl	100021cc <__wrap_memset>
10003360:	f000 fc0c 	bl	10003b7c <usbd_control_reset>
10003364:	f7ff fe36 	bl	10002fd4 <tud_umount_cb>
10003368:	e6d6      	b.n	10003118 <tud_task_ext+0x24>
1000336a:	b00d      	add	sp, #52	; 0x34
1000336c:	bc3c      	pop	{r2, r3, r4, r5}
1000336e:	4690      	mov	r8, r2
10003370:	4699      	mov	r9, r3
10003372:	46a2      	mov	sl, r4
10003374:	46ab      	mov	fp, r5
10003376:	bdf0      	pop	{r4, r5, r6, r7, pc}
10003378:	4e30      	ldr	r6, [pc, #192]	; (1000343c <tud_task_ext+0x348>)
1000337a:	2254      	movs	r2, #84	; 0x54
1000337c:	2100      	movs	r1, #0
1000337e:	0030      	movs	r0, r6
10003380:	f7fe ff24 	bl	100021cc <__wrap_memset>
10003384:	2210      	movs	r2, #16
10003386:	21ff      	movs	r1, #255	; 0xff
10003388:	1d30      	adds	r0, r6, #4
1000338a:	f7fe ff1f 	bl	100021cc <__wrap_memset>
1000338e:	0030      	movs	r0, r6
10003390:	2220      	movs	r2, #32
10003392:	3014      	adds	r0, #20
10003394:	21ff      	movs	r1, #255	; 0xff
10003396:	f7fe ff19 	bl	100021cc <__wrap_memset>
1000339a:	f000 fbef 	bl	10003b7c <usbd_control_reset>
1000339e:	7923      	ldrb	r3, [r4, #4]
100033a0:	70b3      	strb	r3, [r6, #2]
100033a2:	e6b9      	b.n	10003118 <tud_task_ext+0x24>
100033a4:	4e25      	ldr	r6, [pc, #148]	; (1000343c <tud_task_ext+0x348>)
100033a6:	e7f8      	b.n	1000339a <tud_task_ext+0x2a6>
100033a8:	1c50      	adds	r0, r2, #1
100033aa:	4298      	cmp	r0, r3
100033ac:	dbdd      	blt.n	1000336a <tud_task_ext+0x276>
100033ae:	1a9b      	subs	r3, r3, r2
100033b0:	4a26      	ldr	r2, [pc, #152]	; (1000344c <tud_task_ext+0x358>)
100033b2:	015b      	lsls	r3, r3, #5
100033b4:	18d3      	adds	r3, r2, r3
100033b6:	e6f8      	b.n	100031aa <tud_task_ext+0xb6>
100033b8:	7962      	ldrb	r2, [r4, #5]
100033ba:	7820      	ldrb	r0, [r4, #0]
100033bc:	68a3      	ldr	r3, [r4, #8]
100033be:	f000 fbfb 	bl	10003bb8 <usbd_control_xfer_cb>
100033c2:	e6a9      	b.n	10003118 <tud_task_ext+0x24>
100033c4:	79a3      	ldrb	r3, [r4, #6]
100033c6:	4698      	mov	r8, r3
100033c8:	4b1c      	ldr	r3, [pc, #112]	; (1000343c <tud_task_ext+0x348>)
100033ca:	785b      	ldrb	r3, [r3, #1]
100033cc:	4598      	cmp	r8, r3
100033ce:	d06c      	beq.n	100034aa <tud_task_ext+0x3b6>
100033d0:	4b1a      	ldr	r3, [pc, #104]	; (1000343c <tud_task_ext+0x348>)
100033d2:	785b      	ldrb	r3, [r3, #1]
100033d4:	2b00      	cmp	r3, #0
100033d6:	d000      	beq.n	100033da <tud_task_ext+0x2e6>
100033d8:	e14c      	b.n	10003674 <tud_task_ext+0x580>
100033da:	4642      	mov	r2, r8
100033dc:	4b17      	ldr	r3, [pc, #92]	; (1000343c <tud_task_ext+0x348>)
100033de:	705a      	strb	r2, [r3, #1]
100033e0:	4643      	mov	r3, r8
100033e2:	2b00      	cmp	r3, #0
100033e4:	d100      	bne.n	100033e8 <tud_task_ext+0x2f4>
100033e6:	e142      	b.n	1000366e <tud_task_ext+0x57a>
100033e8:	4640      	mov	r0, r8
100033ea:	3801      	subs	r0, #1
100033ec:	b2c0      	uxtb	r0, r0
100033ee:	f7ff fb1d 	bl	10002a2c <tud_descriptor_configuration_cb>
100033f2:	2800      	cmp	r0, #0
100033f4:	d003      	beq.n	100033fe <tud_task_ext+0x30a>
100033f6:	7843      	ldrb	r3, [r0, #1]
100033f8:	2b02      	cmp	r3, #2
100033fa:	d100      	bne.n	100033fe <tud_task_ext+0x30a>
100033fc:	e191      	b.n	10003722 <tud_task_ext+0x62e>
100033fe:	4652      	mov	r2, sl
10003400:	4b0e      	ldr	r3, [pc, #56]	; (1000343c <tud_task_ext+0x348>)
10003402:	705a      	strb	r2, [r3, #1]
10003404:	7820      	ldrb	r0, [r4, #0]
10003406:	2100      	movs	r1, #0
10003408:	f7ff fd60 	bl	10002ecc <dcd_edpt_stall>
1000340c:	7820      	ldrb	r0, [r4, #0]
1000340e:	2180      	movs	r1, #128	; 0x80
10003410:	f7ff fd5c 	bl	10002ecc <dcd_edpt_stall>
10003414:	e680      	b.n	10003118 <tud_task_ext+0x24>
10003416:	2a20      	cmp	r2, #32
10003418:	d100      	bne.n	1000341c <tud_task_ext+0x328>
1000341a:	e09e      	b.n	1000355a <tud_task_ext+0x466>
1000341c:	2a00      	cmp	r2, #0
1000341e:	d1f1      	bne.n	10003404 <tud_task_ext+0x310>
10003420:	7963      	ldrb	r3, [r4, #5]
10003422:	2b09      	cmp	r3, #9
10003424:	d8ee      	bhi.n	10003404 <tud_task_ext+0x310>
10003426:	4a0a      	ldr	r2, [pc, #40]	; (10003450 <tud_task_ext+0x35c>)
10003428:	009b      	lsls	r3, r3, #2
1000342a:	58d3      	ldr	r3, [r2, r3]
1000342c:	469f      	mov	pc, r3
1000342e:	46c0      	nop			; (mov r8, r8)
10003430:	20001134 	.word	0x20001134
10003434:	100053bc 	.word	0x100053bc
10003438:	200015b4 	.word	0x200015b4
1000343c:	2000155c 	.word	0x2000155c
10003440:	20001e40 	.word	0x20001e40
10003444:	200013ac 	.word	0x200013ac
10003448:	20001e42 	.word	0x20001e42
1000344c:	10005464 	.word	0x10005464
10003450:	100053e0 	.word	0x100053e0
10003454:	7a23      	ldrb	r3, [r4, #8]
10003456:	2b0f      	cmp	r3, #15
10003458:	d8d4      	bhi.n	10003404 <tud_task_ext+0x310>
1000345a:	4ad0      	ldr	r2, [pc, #832]	; (1000379c <tud_task_ext+0x6a8>)
1000345c:	4694      	mov	ip, r2
1000345e:	4ad0      	ldr	r2, [pc, #832]	; (100037a0 <tud_task_ext+0x6ac>)
10003460:	4463      	add	r3, ip
10003462:	791b      	ldrb	r3, [r3, #4]
10003464:	7812      	ldrb	r2, [r2, #0]
10003466:	4293      	cmp	r3, r2
10003468:	d300      	bcc.n	1000346c <tud_task_ext+0x378>
1000346a:	e092      	b.n	10003592 <tud_task_ext+0x49e>
1000346c:	4acd      	ldr	r2, [pc, #820]	; (100037a4 <tud_task_ext+0x6b0>)
1000346e:	015b      	lsls	r3, r3, #5
10003470:	6816      	ldr	r6, [r2, #0]
10003472:	18f6      	adds	r6, r6, r3
10003474:	2e00      	cmp	r6, #0
10003476:	d0c5      	beq.n	10003404 <tud_task_ext+0x310>
10003478:	6970      	ldr	r0, [r6, #20]
1000347a:	f000 fb89 	bl	10003b90 <usbd_control_set_complete_callback>
1000347e:	6973      	ldr	r3, [r6, #20]
10003480:	aa0a      	add	r2, sp, #40	; 0x28
10003482:	2101      	movs	r1, #1
10003484:	9801      	ldr	r0, [sp, #4]
10003486:	4798      	blx	r3
10003488:	2800      	cmp	r0, #0
1000348a:	d000      	beq.n	1000348e <tud_task_ext+0x39a>
1000348c:	e644      	b.n	10003118 <tud_task_ext+0x24>
1000348e:	2660      	movs	r6, #96	; 0x60
10003490:	7923      	ldrb	r3, [r4, #4]
10003492:	401e      	ands	r6, r3
10003494:	d1b6      	bne.n	10003404 <tud_task_ext+0x310>
10003496:	7963      	ldrb	r3, [r4, #5]
10003498:	3b0a      	subs	r3, #10
1000349a:	2b01      	cmp	r3, #1
1000349c:	d8b2      	bhi.n	10003404 <tud_task_ext+0x310>
1000349e:	f000 fb77 	bl	10003b90 <usbd_control_set_complete_callback>
100034a2:	7963      	ldrb	r3, [r4, #5]
100034a4:	2b0a      	cmp	r3, #10
100034a6:	d100      	bne.n	100034aa <tud_task_ext+0x3b6>
100034a8:	e124      	b.n	100036f4 <tud_task_ext+0x600>
100034aa:	a90a      	add	r1, sp, #40	; 0x28
100034ac:	9801      	ldr	r0, [sp, #4]
100034ae:	f000 faf3 	bl	10003a98 <tud_control_status>
100034b2:	e631      	b.n	10003118 <tud_task_ext+0x24>
100034b4:	48bc      	ldr	r0, [pc, #752]	; (100037a8 <tud_task_ext+0x6b4>)
100034b6:	f000 fb6b 	bl	10003b90 <usbd_control_set_complete_callback>
100034ba:	aa0a      	add	r2, sp, #40	; 0x28
100034bc:	2101      	movs	r1, #1
100034be:	9801      	ldr	r0, [sp, #4]
100034c0:	f7ff f872 	bl	100025a8 <tud_vendor_control_xfer_cb>
100034c4:	2800      	cmp	r0, #0
100034c6:	d000      	beq.n	100034ca <tud_task_ext+0x3d6>
100034c8:	e626      	b.n	10003118 <tud_task_ext+0x24>
100034ca:	e79b      	b.n	10003404 <tud_task_ext+0x310>
100034cc:	88e0      	ldrh	r0, [r4, #6]
100034ce:	0a03      	lsrs	r3, r0, #8
100034d0:	b2c0      	uxtb	r0, r0
100034d2:	2b0f      	cmp	r3, #15
100034d4:	d896      	bhi.n	10003404 <tud_task_ext+0x310>
100034d6:	49b5      	ldr	r1, [pc, #724]	; (100037ac <tud_task_ext+0x6b8>)
100034d8:	009a      	lsls	r2, r3, #2
100034da:	588a      	ldr	r2, [r1, r2]
100034dc:	4697      	mov	pc, r2
100034de:	a80a      	add	r0, sp, #40	; 0x28
100034e0:	f000 fb5c 	bl	10003b9c <usbd_control_set_request>
100034e4:	79a1      	ldrb	r1, [r4, #6]
100034e6:	9801      	ldr	r0, [sp, #4]
100034e8:	f7ff fc36 	bl	10002d58 <dcd_set_address>
100034ec:	2202      	movs	r2, #2
100034ee:	4bab      	ldr	r3, [pc, #684]	; (1000379c <tud_task_ext+0x6a8>)
100034f0:	781b      	ldrb	r3, [r3, #0]
100034f2:	4313      	orrs	r3, r2
100034f4:	4aa9      	ldr	r2, [pc, #676]	; (1000379c <tud_task_ext+0x6a8>)
100034f6:	7013      	strb	r3, [r2, #0]
100034f8:	e60e      	b.n	10003118 <tud_task_ext+0x24>
100034fa:	4ba8      	ldr	r3, [pc, #672]	; (1000379c <tud_task_ext+0x6a8>)
100034fc:	aa08      	add	r2, sp, #32
100034fe:	785b      	ldrb	r3, [r3, #1]
10003500:	3202      	adds	r2, #2
10003502:	7013      	strb	r3, [r2, #0]
10003504:	a90a      	add	r1, sp, #40	; 0x28
10003506:	2301      	movs	r3, #1
10003508:	9801      	ldr	r0, [sp, #4]
1000350a:	f000 fadd 	bl	10003ac8 <tud_control_xfer>
1000350e:	e603      	b.n	10003118 <tud_task_ext+0x24>
10003510:	88e3      	ldrh	r3, [r4, #6]
10003512:	2b01      	cmp	r3, #1
10003514:	d000      	beq.n	10003518 <tud_task_ext+0x424>
10003516:	e775      	b.n	10003404 <tud_task_ext+0x310>
10003518:	2208      	movs	r2, #8
1000351a:	4ba0      	ldr	r3, [pc, #640]	; (1000379c <tud_task_ext+0x6a8>)
1000351c:	781b      	ldrb	r3, [r3, #0]
1000351e:	4313      	orrs	r3, r2
10003520:	4a9e      	ldr	r2, [pc, #632]	; (1000379c <tud_task_ext+0x6a8>)
10003522:	7013      	strb	r3, [r2, #0]
10003524:	e7c1      	b.n	100034aa <tud_task_ext+0x3b6>
10003526:	88e3      	ldrh	r3, [r4, #6]
10003528:	2b01      	cmp	r3, #1
1000352a:	d000      	beq.n	1000352e <tud_task_ext+0x43a>
1000352c:	e76a      	b.n	10003404 <tud_task_ext+0x310>
1000352e:	2208      	movs	r2, #8
10003530:	4b9a      	ldr	r3, [pc, #616]	; (1000379c <tud_task_ext+0x6a8>)
10003532:	781b      	ldrb	r3, [r3, #0]
10003534:	4393      	bics	r3, r2
10003536:	e7f3      	b.n	10003520 <tud_task_ext+0x42c>
10003538:	2002      	movs	r0, #2
1000353a:	4b98      	ldr	r3, [pc, #608]	; (1000379c <tud_task_ext+0x6a8>)
1000353c:	7819      	ldrb	r1, [r3, #0]
1000353e:	ab08      	add	r3, sp, #32
10003540:	1c9a      	adds	r2, r3, #2
10003542:	068b      	lsls	r3, r1, #26
10003544:	0889      	lsrs	r1, r1, #2
10003546:	0fdb      	lsrs	r3, r3, #31
10003548:	4001      	ands	r1, r0
1000354a:	430b      	orrs	r3, r1
1000354c:	8013      	strh	r3, [r2, #0]
1000354e:	a90a      	add	r1, sp, #40	; 0x28
10003550:	2302      	movs	r3, #2
10003552:	9801      	ldr	r0, [sp, #4]
10003554:	f000 fab8 	bl	10003ac8 <tud_control_xfer>
10003558:	e5de      	b.n	10003118 <tud_task_ext+0x24>
1000355a:	7a23      	ldrb	r3, [r4, #8]
1000355c:	2b0f      	cmp	r3, #15
1000355e:	d900      	bls.n	10003562 <tud_task_ext+0x46e>
10003560:	e750      	b.n	10003404 <tud_task_ext+0x310>
10003562:	4a8e      	ldr	r2, [pc, #568]	; (1000379c <tud_task_ext+0x6a8>)
10003564:	4694      	mov	ip, r2
10003566:	4a8e      	ldr	r2, [pc, #568]	; (100037a0 <tud_task_ext+0x6ac>)
10003568:	4463      	add	r3, ip
1000356a:	791b      	ldrb	r3, [r3, #4]
1000356c:	7812      	ldrb	r2, [r2, #0]
1000356e:	4293      	cmp	r3, r2
10003570:	d265      	bcs.n	1000363e <tud_task_ext+0x54a>
10003572:	4a8c      	ldr	r2, [pc, #560]	; (100037a4 <tud_task_ext+0x6b0>)
10003574:	015b      	lsls	r3, r3, #5
10003576:	6816      	ldr	r6, [r2, #0]
10003578:	18f6      	adds	r6, r6, r3
1000357a:	2e00      	cmp	r6, #0
1000357c:	d100      	bne.n	10003580 <tud_task_ext+0x48c>
1000357e:	e741      	b.n	10003404 <tud_task_ext+0x310>
10003580:	6970      	ldr	r0, [r6, #20]
10003582:	f000 fb05 	bl	10003b90 <usbd_control_set_complete_callback>
10003586:	6973      	ldr	r3, [r6, #20]
10003588:	aa0a      	add	r2, sp, #40	; 0x28
1000358a:	2101      	movs	r1, #1
1000358c:	9801      	ldr	r0, [sp, #4]
1000358e:	4798      	blx	r3
10003590:	e798      	b.n	100034c4 <tud_task_ext+0x3d0>
10003592:	1c51      	adds	r1, r2, #1
10003594:	4299      	cmp	r1, r3
10003596:	da00      	bge.n	1000359a <tud_task_ext+0x4a6>
10003598:	e734      	b.n	10003404 <tud_task_ext+0x310>
1000359a:	1a9b      	subs	r3, r3, r2
1000359c:	4e84      	ldr	r6, [pc, #528]	; (100037b0 <tud_task_ext+0x6bc>)
1000359e:	015b      	lsls	r3, r3, #5
100035a0:	18f6      	adds	r6, r6, r3
100035a2:	e769      	b.n	10003478 <tud_task_ext+0x384>
100035a4:	1c58      	adds	r0, r3, #1
100035a6:	42b8      	cmp	r0, r7
100035a8:	da37      	bge.n	1000361a <tud_task_ext+0x526>
100035aa:	2700      	movs	r7, #0
100035ac:	2a00      	cmp	r2, #0
100035ae:	d000      	beq.n	100035b2 <tud_task_ext+0x4be>
100035b0:	e728      	b.n	10003404 <tud_task_ext+0x310>
100035b2:	7963      	ldrb	r3, [r4, #5]
100035b4:	4699      	mov	r9, r3
100035b6:	2b01      	cmp	r3, #1
100035b8:	d004      	beq.n	100035c4 <tud_task_ext+0x4d0>
100035ba:	2b00      	cmp	r3, #0
100035bc:	d035      	beq.n	1000362a <tud_task_ext+0x536>
100035be:	2b03      	cmp	r3, #3
100035c0:	d000      	beq.n	100035c4 <tud_task_ext+0x4d0>
100035c2:	e71f      	b.n	10003404 <tud_task_ext+0x310>
100035c4:	88e3      	ldrh	r3, [r4, #6]
100035c6:	2b00      	cmp	r3, #0
100035c8:	d112      	bne.n	100035f0 <tud_task_ext+0x4fc>
100035ca:	4b7a      	ldr	r3, [pc, #488]	; (100037b4 <tud_task_ext+0x6c0>)
100035cc:	7818      	ldrb	r0, [r3, #0]
100035ce:	464b      	mov	r3, r9
100035d0:	2b01      	cmp	r3, #1
100035d2:	d03d      	beq.n	10003650 <tud_task_ext+0x55c>
100035d4:	f7ff fc7a 	bl	10002ecc <dcd_edpt_stall>
100035d8:	2102      	movs	r1, #2
100035da:	4b70      	ldr	r3, [pc, #448]	; (1000379c <tud_task_ext+0x6a8>)
100035dc:	199b      	adds	r3, r3, r6
100035de:	4443      	add	r3, r8
100035e0:	3330      	adds	r3, #48	; 0x30
100035e2:	791a      	ldrb	r2, [r3, #4]
100035e4:	430a      	orrs	r2, r1
100035e6:	2101      	movs	r1, #1
100035e8:	711a      	strb	r2, [r3, #4]
100035ea:	791a      	ldrb	r2, [r3, #4]
100035ec:	430a      	orrs	r2, r1
100035ee:	711a      	strb	r2, [r3, #4]
100035f0:	2f00      	cmp	r7, #0
100035f2:	d100      	bne.n	100035f6 <tud_task_ext+0x502>
100035f4:	e590      	b.n	10003118 <tud_task_ext+0x24>
100035f6:	6978      	ldr	r0, [r7, #20]
100035f8:	f000 faca 	bl	10003b90 <usbd_control_set_complete_callback>
100035fc:	697b      	ldr	r3, [r7, #20]
100035fe:	aa0a      	add	r2, sp, #40	; 0x28
10003600:	2101      	movs	r1, #1
10003602:	9801      	ldr	r0, [sp, #4]
10003604:	4798      	blx	r3
10003606:	2000      	movs	r0, #0
10003608:	f000 fac2 	bl	10003b90 <usbd_control_set_complete_callback>
1000360c:	2335      	movs	r3, #53	; 0x35
1000360e:	4a63      	ldr	r2, [pc, #396]	; (1000379c <tud_task_ext+0x6a8>)
10003610:	5cd3      	ldrb	r3, [r2, r3]
10003612:	07db      	lsls	r3, r3, #31
10003614:	d500      	bpl.n	10003618 <tud_task_ext+0x524>
10003616:	e57f      	b.n	10003118 <tud_task_ext+0x24>
10003618:	e747      	b.n	100034aa <tud_task_ext+0x3b6>
1000361a:	1aff      	subs	r7, r7, r3
1000361c:	4b64      	ldr	r3, [pc, #400]	; (100037b0 <tud_task_ext+0x6bc>)
1000361e:	017f      	lsls	r7, r7, #5
10003620:	19df      	adds	r7, r3, r7
10003622:	2a00      	cmp	r2, #0
10003624:	d000      	beq.n	10003628 <tud_task_ext+0x534>
10003626:	e61f      	b.n	10003268 <tud_task_ext+0x174>
10003628:	e7c3      	b.n	100035b2 <tud_task_ext+0x4be>
1000362a:	4b5c      	ldr	r3, [pc, #368]	; (1000379c <tud_task_ext+0x6a8>)
1000362c:	aa08      	add	r2, sp, #32
1000362e:	199b      	adds	r3, r3, r6
10003630:	4443      	add	r3, r8
10003632:	3330      	adds	r3, #48	; 0x30
10003634:	791b      	ldrb	r3, [r3, #4]
10003636:	3202      	adds	r2, #2
10003638:	079b      	lsls	r3, r3, #30
1000363a:	0fdb      	lsrs	r3, r3, #31
1000363c:	e786      	b.n	1000354c <tud_task_ext+0x458>
1000363e:	1c51      	adds	r1, r2, #1
10003640:	4299      	cmp	r1, r3
10003642:	da00      	bge.n	10003646 <tud_task_ext+0x552>
10003644:	e6de      	b.n	10003404 <tud_task_ext+0x310>
10003646:	1a9b      	subs	r3, r3, r2
10003648:	4e59      	ldr	r6, [pc, #356]	; (100037b0 <tud_task_ext+0x6bc>)
1000364a:	015b      	lsls	r3, r3, #5
1000364c:	18f6      	adds	r6, r6, r3
1000364e:	e797      	b.n	10003580 <tud_task_ext+0x48c>
10003650:	f7ff fc56 	bl	10002f00 <dcd_edpt_clear_stall>
10003654:	2102      	movs	r1, #2
10003656:	4b51      	ldr	r3, [pc, #324]	; (1000379c <tud_task_ext+0x6a8>)
10003658:	199b      	adds	r3, r3, r6
1000365a:	4443      	add	r3, r8
1000365c:	3330      	adds	r3, #48	; 0x30
1000365e:	791a      	ldrb	r2, [r3, #4]
10003660:	438a      	bics	r2, r1
10003662:	4649      	mov	r1, r9
10003664:	711a      	strb	r2, [r3, #4]
10003666:	791a      	ldrb	r2, [r3, #4]
10003668:	438a      	bics	r2, r1
1000366a:	711a      	strb	r2, [r3, #4]
1000366c:	e7c0      	b.n	100035f0 <tud_task_ext+0x4fc>
1000366e:	f7ff fcb1 	bl	10002fd4 <tud_umount_cb>
10003672:	e71a      	b.n	100034aa <tud_task_ext+0x3b6>
10003674:	9e01      	ldr	r6, [sp, #4]
10003676:	2100      	movs	r1, #0
10003678:	0030      	movs	r0, r6
1000367a:	f7ff fb77 	bl	10002d6c <dcd_sof_enable>
1000367e:	0030      	movs	r0, r6
10003680:	f7ff fc0e 	bl	10002ea0 <dcd_edpt_close_all>
10003684:	4b45      	ldr	r3, [pc, #276]	; (1000379c <tud_task_ext+0x6a8>)
10003686:	2600      	movs	r6, #0
10003688:	789b      	ldrb	r3, [r3, #2]
1000368a:	4f46      	ldr	r7, [pc, #280]	; (100037a4 <tud_task_ext+0x6b0>)
1000368c:	9302      	str	r3, [sp, #8]
1000368e:	4b44      	ldr	r3, [pc, #272]	; (100037a0 <tud_task_ext+0x6ac>)
10003690:	4699      	mov	r9, r3
10003692:	781a      	ldrb	r2, [r3, #0]
10003694:	2300      	movs	r3, #0
10003696:	e010      	b.n	100036ba <tud_task_ext+0x5c6>
10003698:	683a      	ldr	r2, [r7, #0]
1000369a:	0173      	lsls	r3, r6, #5
1000369c:	4694      	mov	ip, r2
1000369e:	4463      	add	r3, ip
100036a0:	2b00      	cmp	r3, #0
100036a2:	d022      	beq.n	100036ea <tud_task_ext+0x5f6>
100036a4:	68db      	ldr	r3, [r3, #12]
100036a6:	9801      	ldr	r0, [sp, #4]
100036a8:	4798      	blx	r3
100036aa:	464b      	mov	r3, r9
100036ac:	781a      	ldrb	r2, [r3, #0]
100036ae:	3601      	adds	r6, #1
100036b0:	b2f6      	uxtb	r6, r6
100036b2:	1c51      	adds	r1, r2, #1
100036b4:	0033      	movs	r3, r6
100036b6:	428e      	cmp	r6, r1
100036b8:	dc07      	bgt.n	100036ca <tud_task_ext+0x5d6>
100036ba:	4296      	cmp	r6, r2
100036bc:	d3ec      	bcc.n	10003698 <tud_task_ext+0x5a4>
100036be:	1a9b      	subs	r3, r3, r2
100036c0:	4a3b      	ldr	r2, [pc, #236]	; (100037b0 <tud_task_ext+0x6bc>)
100036c2:	015b      	lsls	r3, r3, #5
100036c4:	4694      	mov	ip, r2
100036c6:	4463      	add	r3, ip
100036c8:	e7ec      	b.n	100036a4 <tud_task_ext+0x5b0>
100036ca:	2254      	movs	r2, #84	; 0x54
100036cc:	2100      	movs	r1, #0
100036ce:	4833      	ldr	r0, [pc, #204]	; (1000379c <tud_task_ext+0x6a8>)
100036d0:	f7fe fd7c 	bl	100021cc <__wrap_memset>
100036d4:	4b31      	ldr	r3, [pc, #196]	; (1000379c <tud_task_ext+0x6a8>)
100036d6:	2210      	movs	r2, #16
100036d8:	21ff      	movs	r1, #255	; 0xff
100036da:	1d18      	adds	r0, r3, #4
100036dc:	f7fe fd76 	bl	100021cc <__wrap_memset>
100036e0:	2220      	movs	r2, #32
100036e2:	21ff      	movs	r1, #255	; 0xff
100036e4:	4834      	ldr	r0, [pc, #208]	; (100037b8 <tud_task_ext+0x6c4>)
100036e6:	f7fe fd71 	bl	100021cc <__wrap_memset>
100036ea:	466a      	mov	r2, sp
100036ec:	4b2b      	ldr	r3, [pc, #172]	; (1000379c <tud_task_ext+0x6a8>)
100036ee:	7a12      	ldrb	r2, [r2, #8]
100036f0:	709a      	strb	r2, [r3, #2]
100036f2:	e672      	b.n	100033da <tud_task_ext+0x2e6>
100036f4:	ab08      	add	r3, sp, #32
100036f6:	1c9a      	adds	r2, r3, #2
100036f8:	a90a      	add	r1, sp, #40	; 0x28
100036fa:	2301      	movs	r3, #1
100036fc:	9801      	ldr	r0, [sp, #4]
100036fe:	7016      	strb	r6, [r2, #0]
10003700:	f000 f9e2 	bl	10003ac8 <tud_control_xfer>
10003704:	e508      	b.n	10003118 <tud_task_ext+0x24>
10003706:	f7fe ff4b 	bl	100025a0 <tud_descriptor_bos_cb>
1000370a:	1e02      	subs	r2, r0, #0
1000370c:	d100      	bne.n	10003710 <tud_task_ext+0x61c>
1000370e:	e679      	b.n	10003404 <tud_task_ext+0x310>
10003710:	78c3      	ldrb	r3, [r0, #3]
10003712:	7881      	ldrb	r1, [r0, #2]
10003714:	021b      	lsls	r3, r3, #8
10003716:	430b      	orrs	r3, r1
10003718:	9801      	ldr	r0, [sp, #4]
1000371a:	a90a      	add	r1, sp, #40	; 0x28
1000371c:	f000 f9d4 	bl	10003ac8 <tud_control_xfer>
10003720:	e6d0      	b.n	100034c4 <tud_task_ext+0x3d0>
10003722:	2201      	movs	r2, #1
10003724:	2710      	movs	r7, #16
10003726:	79c1      	ldrb	r1, [r0, #7]
10003728:	114b      	asrs	r3, r1, #5
1000372a:	4013      	ands	r3, r2
1000372c:	011e      	lsls	r6, r3, #4
1000372e:	4b1b      	ldr	r3, [pc, #108]	; (1000379c <tud_task_ext+0x6a8>)
10003730:	1189      	asrs	r1, r1, #6
10003732:	781b      	ldrb	r3, [r3, #0]
10003734:	4011      	ands	r1, r2
10003736:	43bb      	bics	r3, r7
10003738:	4333      	orrs	r3, r6
1000373a:	2620      	movs	r6, #32
1000373c:	0149      	lsls	r1, r1, #5
1000373e:	43b3      	bics	r3, r6
10003740:	430b      	orrs	r3, r1
10003742:	4916      	ldr	r1, [pc, #88]	; (1000379c <tud_task_ext+0x6a8>)
10003744:	700b      	strb	r3, [r1, #0]
10003746:	2309      	movs	r3, #9
10003748:	4698      	mov	r8, r3
1000374a:	4480      	add	r8, r0
1000374c:	4647      	mov	r7, r8
1000374e:	78c3      	ldrb	r3, [r0, #3]
10003750:	7881      	ldrb	r1, [r0, #2]
10003752:	021b      	lsls	r3, r3, #8
10003754:	430b      	orrs	r3, r1
10003756:	18c3      	adds	r3, r0, r3
10003758:	9304      	str	r3, [sp, #16]
1000375a:	9207      	str	r2, [sp, #28]
1000375c:	9b04      	ldr	r3, [sp, #16]
1000375e:	42bb      	cmp	r3, r7
10003760:	d94f      	bls.n	10003802 <tud_task_ext+0x70e>
10003762:	9a07      	ldr	r2, [sp, #28]
10003764:	787b      	ldrb	r3, [r7, #1]
10003766:	9202      	str	r2, [sp, #8]
10003768:	2b0b      	cmp	r3, #11
1000376a:	d103      	bne.n	10003774 <tud_task_ext+0x680>
1000376c:	78fb      	ldrb	r3, [r7, #3]
1000376e:	9302      	str	r3, [sp, #8]
10003770:	783b      	ldrb	r3, [r7, #0]
10003772:	18ff      	adds	r7, r7, r3
10003774:	787b      	ldrb	r3, [r7, #1]
10003776:	2b04      	cmp	r3, #4
10003778:	d000      	beq.n	1000377c <tud_task_ext+0x688>
1000377a:	e640      	b.n	100033fe <tud_task_ext+0x30a>
1000377c:	9b04      	ldr	r3, [sp, #16]
1000377e:	1bdb      	subs	r3, r3, r7
10003780:	b29b      	uxth	r3, r3
10003782:	9305      	str	r3, [sp, #20]
10003784:	4b06      	ldr	r3, [pc, #24]	; (100037a0 <tud_task_ext+0x6ac>)
10003786:	9306      	str	r3, [sp, #24]
10003788:	781e      	ldrb	r6, [r3, #0]
1000378a:	2300      	movs	r3, #0
1000378c:	4698      	mov	r8, r3
1000378e:	9303      	str	r3, [sp, #12]
10003790:	4b04      	ldr	r3, [pc, #16]	; (100037a4 <tud_task_ext+0x6b0>)
10003792:	4699      	mov	r9, r3
10003794:	003b      	movs	r3, r7
10003796:	4647      	mov	r7, r8
10003798:	4698      	mov	r8, r3
1000379a:	e029      	b.n	100037f0 <tud_task_ext+0x6fc>
1000379c:	2000155c 	.word	0x2000155c
100037a0:	20001e40 	.word	0x20001e40
100037a4:	200013ac 	.word	0x200013ac
100037a8:	100025a9 	.word	0x100025a9
100037ac:	10005408 	.word	0x10005408
100037b0:	10005464 	.word	0x10005464
100037b4:	20001134 	.word	0x20001134
100037b8:	20001570 	.word	0x20001570
100037bc:	464a      	mov	r2, r9
100037be:	6812      	ldr	r2, [r2, #0]
100037c0:	017b      	lsls	r3, r7, #5
100037c2:	18d6      	adds	r6, r2, r3
100037c4:	2e00      	cmp	r6, #0
100037c6:	d100      	bne.n	100037ca <tud_task_ext+0x6d6>
100037c8:	e619      	b.n	100033fe <tud_task_ext+0x30a>
100037ca:	9a05      	ldr	r2, [sp, #20]
100037cc:	4641      	mov	r1, r8
100037ce:	9801      	ldr	r0, [sp, #4]
100037d0:	6933      	ldr	r3, [r6, #16]
100037d2:	4798      	blx	r3
100037d4:	2808      	cmp	r0, #8
100037d6:	d902      	bls.n	100037de <tud_task_ext+0x6ea>
100037d8:	9b05      	ldr	r3, [sp, #20]
100037da:	4283      	cmp	r3, r0
100037dc:	d214      	bcs.n	10003808 <tud_task_ext+0x714>
100037de:	9b06      	ldr	r3, [sp, #24]
100037e0:	3701      	adds	r7, #1
100037e2:	781e      	ldrb	r6, [r3, #0]
100037e4:	b2ff      	uxtb	r7, r7
100037e6:	1c73      	adds	r3, r6, #1
100037e8:	9703      	str	r7, [sp, #12]
100037ea:	429f      	cmp	r7, r3
100037ec:	dd00      	ble.n	100037f0 <tud_task_ext+0x6fc>
100037ee:	e606      	b.n	100033fe <tud_task_ext+0x30a>
100037f0:	42b7      	cmp	r7, r6
100037f2:	d3e3      	bcc.n	100037bc <tud_task_ext+0x6c8>
100037f4:	9b03      	ldr	r3, [sp, #12]
100037f6:	1b9e      	subs	r6, r3, r6
100037f8:	4b3f      	ldr	r3, [pc, #252]	; (100038f8 <tud_task_ext+0x804>)
100037fa:	0176      	lsls	r6, r6, #5
100037fc:	469c      	mov	ip, r3
100037fe:	4466      	add	r6, ip
10003800:	e7e3      	b.n	100037ca <tud_task_ext+0x6d6>
10003802:	f7ff fbe5 	bl	10002fd0 <tud_mount_cb>
10003806:	e650      	b.n	100034aa <tud_task_ext+0x3b6>
10003808:	4643      	mov	r3, r8
1000380a:	46b8      	mov	r8, r7
1000380c:	001f      	movs	r7, r3
1000380e:	9b02      	ldr	r3, [sp, #8]
10003810:	4681      	mov	r9, r0
10003812:	2b01      	cmp	r3, #1
10003814:	d05f      	beq.n	100038d6 <tud_task_ext+0x7e2>
10003816:	9b02      	ldr	r3, [sp, #8]
10003818:	2b00      	cmp	r3, #0
1000381a:	d04d      	beq.n	100038b8 <tud_task_ext+0x7c4>
1000381c:	78b9      	ldrb	r1, [r7, #2]
1000381e:	4a37      	ldr	r2, [pc, #220]	; (100038fc <tud_task_ext+0x808>)
10003820:	000b      	movs	r3, r1
10003822:	1852      	adds	r2, r2, r1
10003824:	7912      	ldrb	r2, [r2, #4]
10003826:	2aff      	cmp	r2, #255	; 0xff
10003828:	d000      	beq.n	1000382c <tud_task_ext+0x738>
1000382a:	e5e8      	b.n	100033fe <tud_task_ext+0x30a>
1000382c:	2200      	movs	r2, #0
1000382e:	4646      	mov	r6, r8
10003830:	4832      	ldr	r0, [pc, #200]	; (100038fc <tud_task_ext+0x808>)
10003832:	3201      	adds	r2, #1
10003834:	4684      	mov	ip, r0
10003836:	4463      	add	r3, ip
10003838:	711e      	strb	r6, [r3, #4]
1000383a:	9b02      	ldr	r3, [sp, #8]
1000383c:	b2d2      	uxtb	r2, r2
1000383e:	429a      	cmp	r2, r3
10003840:	d239      	bcs.n	100038b6 <tud_task_ext+0x7c2>
10003842:	188b      	adds	r3, r1, r2
10003844:	482d      	ldr	r0, [pc, #180]	; (100038fc <tud_task_ext+0x808>)
10003846:	b2db      	uxtb	r3, r3
10003848:	18c0      	adds	r0, r0, r3
1000384a:	7900      	ldrb	r0, [r0, #4]
1000384c:	28ff      	cmp	r0, #255	; 0xff
1000384e:	d0ef      	beq.n	10003830 <tud_task_ext+0x73c>
10003850:	e5d5      	b.n	100033fe <tud_task_ext+0x30a>
10003852:	f7ff fbb9 	bl	10002fc8 <tud_descriptor_device_qualifier_cb>
10003856:	1e02      	subs	r2, r0, #0
10003858:	d100      	bne.n	1000385c <tud_task_ext+0x768>
1000385a:	e5d3      	b.n	10003404 <tud_task_ext+0x310>
1000385c:	7813      	ldrb	r3, [r2, #0]
1000385e:	a90a      	add	r1, sp, #40	; 0x28
10003860:	9801      	ldr	r0, [sp, #4]
10003862:	f000 f931 	bl	10003ac8 <tud_control_xfer>
10003866:	e62d      	b.n	100034c4 <tud_task_ext+0x3d0>
10003868:	2b02      	cmp	r3, #2
1000386a:	d019      	beq.n	100038a0 <tud_task_ext+0x7ac>
1000386c:	f7ff fbae 	bl	10002fcc <tud_descriptor_other_speed_configuration_cb>
10003870:	2800      	cmp	r0, #0
10003872:	d100      	bne.n	10003876 <tud_task_ext+0x782>
10003874:	e5c6      	b.n	10003404 <tud_task_ext+0x310>
10003876:	78c3      	ldrb	r3, [r0, #3]
10003878:	7882      	ldrb	r2, [r0, #2]
1000387a:	021b      	lsls	r3, r3, #8
1000387c:	4313      	orrs	r3, r2
1000387e:	a90a      	add	r1, sp, #40	; 0x28
10003880:	0002      	movs	r2, r0
10003882:	9801      	ldr	r0, [sp, #4]
10003884:	f000 f920 	bl	10003ac8 <tud_control_xfer>
10003888:	e61c      	b.n	100034c4 <tud_task_ext+0x3d0>
1000388a:	f7ff f8cb 	bl	10002a24 <tud_descriptor_device_cb>
1000388e:	1e02      	subs	r2, r0, #0
10003890:	d100      	bne.n	10003894 <tud_task_ext+0x7a0>
10003892:	e5b7      	b.n	10003404 <tud_task_ext+0x310>
10003894:	2312      	movs	r3, #18
10003896:	a90a      	add	r1, sp, #40	; 0x28
10003898:	9801      	ldr	r0, [sp, #4]
1000389a:	f000 f915 	bl	10003ac8 <tud_control_xfer>
1000389e:	e611      	b.n	100034c4 <tud_task_ext+0x3d0>
100038a0:	f7ff f8c4 	bl	10002a2c <tud_descriptor_configuration_cb>
100038a4:	2800      	cmp	r0, #0
100038a6:	d1e6      	bne.n	10003876 <tud_task_ext+0x782>
100038a8:	e5ac      	b.n	10003404 <tud_task_ext+0x310>
100038aa:	8921      	ldrh	r1, [r4, #8]
100038ac:	f7ff f8c2 	bl	10002a34 <tud_descriptor_string_cb>
100038b0:	1e02      	subs	r2, r0, #0
100038b2:	d1d3      	bne.n	1000385c <tud_task_ext+0x768>
100038b4:	e5a6      	b.n	10003404 <tud_task_ext+0x310>
100038b6:	46b0      	mov	r8, r6
100038b8:	4643      	mov	r3, r8
100038ba:	464a      	mov	r2, r9
100038bc:	0039      	movs	r1, r7
100038be:	4810      	ldr	r0, [pc, #64]	; (10003900 <tud_task_ext+0x80c>)
100038c0:	f000 fef4 	bl	100046ac <tu_edpt_bind_driver>
100038c4:	9b06      	ldr	r3, [sp, #24]
100038c6:	9a03      	ldr	r2, [sp, #12]
100038c8:	781b      	ldrb	r3, [r3, #0]
100038ca:	444f      	add	r7, r9
100038cc:	3301      	adds	r3, #1
100038ce:	429a      	cmp	r2, r3
100038d0:	dc00      	bgt.n	100038d4 <tud_task_ext+0x7e0>
100038d2:	e743      	b.n	1000375c <tud_task_ext+0x668>
100038d4:	e593      	b.n	100033fe <tud_task_ext+0x30a>
100038d6:	78b9      	ldrb	r1, [r7, #2]
100038d8:	4b08      	ldr	r3, [pc, #32]	; (100038fc <tud_task_ext+0x808>)
100038da:	480a      	ldr	r0, [pc, #40]	; (10003904 <tud_task_ext+0x810>)
100038dc:	6936      	ldr	r6, [r6, #16]
100038de:	185b      	adds	r3, r3, r1
100038e0:	791a      	ldrb	r2, [r3, #4]
100038e2:	4286      	cmp	r6, r0
100038e4:	d005      	beq.n	100038f2 <tud_task_ext+0x7fe>
100038e6:	2aff      	cmp	r2, #255	; 0xff
100038e8:	d000      	beq.n	100038ec <tud_task_ext+0x7f8>
100038ea:	e588      	b.n	100033fe <tud_task_ext+0x30a>
100038ec:	4642      	mov	r2, r8
100038ee:	711a      	strb	r2, [r3, #4]
100038f0:	e7e2      	b.n	100038b8 <tud_task_ext+0x7c4>
100038f2:	2302      	movs	r3, #2
100038f4:	9302      	str	r3, [sp, #8]
100038f6:	e792      	b.n	1000381e <tud_task_ext+0x72a>
100038f8:	10005464 	.word	0x10005464
100038fc:	2000155c 	.word	0x2000155c
10003900:	20001570 	.word	0x20001570
10003904:	10003f8d 	.word	0x10003f8d

10003908 <usbd_open_edpt_pair>:
10003908:	b5f8      	push	{r3, r4, r5, r6, r7, lr}
1000390a:	46de      	mov	lr, fp
1000390c:	4657      	mov	r7, sl
1000390e:	464e      	mov	r6, r9
10003910:	4645      	mov	r5, r8
10003912:	000c      	movs	r4, r1
10003914:	b5e0      	push	{r5, r6, r7, lr}
10003916:	2a00      	cmp	r2, #0
10003918:	d04d      	beq.n	100039b6 <usbd_open_edpt_pair+0xae>
1000391a:	7849      	ldrb	r1, [r1, #1]
1000391c:	2905      	cmp	r1, #5
1000391e:	d109      	bne.n	10003934 <usbd_open_edpt_pair+0x2c>
10003920:	78e6      	ldrb	r6, [r4, #3]
10003922:	07b6      	lsls	r6, r6, #30
10003924:	0fb6      	lsrs	r6, r6, #30
10003926:	42b3      	cmp	r3, r6
10003928:	d104      	bne.n	10003934 <usbd_open_edpt_pair+0x2c>
1000392a:	237f      	movs	r3, #127	; 0x7f
1000392c:	78a1      	ldrb	r1, [r4, #2]
1000392e:	400b      	ands	r3, r1
10003930:	2b0f      	cmp	r3, #15
10003932:	d906      	bls.n	10003942 <usbd_open_edpt_pair+0x3a>
10003934:	2000      	movs	r0, #0
10003936:	bc3c      	pop	{r2, r3, r4, r5}
10003938:	4690      	mov	r8, r2
1000393a:	4699      	mov	r9, r3
1000393c:	46a2      	mov	sl, r4
1000393e:	46ab      	mov	fp, r5
10003940:	bdf8      	pop	{r3, r4, r5, r6, r7, pc}
10003942:	4b1e      	ldr	r3, [pc, #120]	; (100039bc <usbd_open_edpt_pair+0xb4>)
10003944:	1e57      	subs	r7, r2, #1
10003946:	469b      	mov	fp, r3
10003948:	781b      	ldrb	r3, [r3, #0]
1000394a:	2500      	movs	r5, #0
1000394c:	4699      	mov	r9, r3
1000394e:	4b1c      	ldr	r3, [pc, #112]	; (100039c0 <usbd_open_edpt_pair+0xb8>)
10003950:	469a      	mov	sl, r3
10003952:	237f      	movs	r3, #127	; 0x7f
10003954:	4698      	mov	r8, r3
10003956:	e002      	b.n	1000395e <usbd_open_edpt_pair+0x56>
10003958:	465b      	mov	r3, fp
1000395a:	781b      	ldrb	r3, [r3, #0]
1000395c:	4699      	mov	r9, r3
1000395e:	4653      	mov	r3, sl
10003960:	0020      	movs	r0, r4
10003962:	7899      	ldrb	r1, [r3, #2]
10003964:	f000 fe68 	bl	10004638 <tu_edpt_validate>
10003968:	2800      	cmp	r0, #0
1000396a:	d0e3      	beq.n	10003934 <usbd_open_edpt_pair+0x2c>
1000396c:	0021      	movs	r1, r4
1000396e:	4648      	mov	r0, r9
10003970:	f7ff fa18 	bl	10002da4 <dcd_edpt_open>
10003974:	2800      	cmp	r0, #0
10003976:	d0dd      	beq.n	10003934 <usbd_open_edpt_pair+0x2c>
10003978:	78a3      	ldrb	r3, [r4, #2]
1000397a:	09da      	lsrs	r2, r3, #7
1000397c:	2a01      	cmp	r2, #1
1000397e:	d014      	beq.n	100039aa <usbd_open_edpt_pair+0xa2>
10003980:	9a0a      	ldr	r2, [sp, #40]	; 0x28
10003982:	7013      	strb	r3, [r2, #0]
10003984:	7823      	ldrb	r3, [r4, #0]
10003986:	18e4      	adds	r4, r4, r3
10003988:	42bd      	cmp	r5, r7
1000398a:	d014      	beq.n	100039b6 <usbd_open_edpt_pair+0xae>
1000398c:	7863      	ldrb	r3, [r4, #1]
1000398e:	2b05      	cmp	r3, #5
10003990:	d1d0      	bne.n	10003934 <usbd_open_edpt_pair+0x2c>
10003992:	78e3      	ldrb	r3, [r4, #3]
10003994:	079b      	lsls	r3, r3, #30
10003996:	0f9b      	lsrs	r3, r3, #30
10003998:	42b3      	cmp	r3, r6
1000399a:	d1cb      	bne.n	10003934 <usbd_open_edpt_pair+0x2c>
1000399c:	4642      	mov	r2, r8
1000399e:	78a3      	ldrb	r3, [r4, #2]
100039a0:	3501      	adds	r5, #1
100039a2:	4013      	ands	r3, r2
100039a4:	2b0f      	cmp	r3, #15
100039a6:	d8c5      	bhi.n	10003934 <usbd_open_edpt_pair+0x2c>
100039a8:	e7d6      	b.n	10003958 <usbd_open_edpt_pair+0x50>
100039aa:	9a0b      	ldr	r2, [sp, #44]	; 0x2c
100039ac:	7013      	strb	r3, [r2, #0]
100039ae:	7823      	ldrb	r3, [r4, #0]
100039b0:	18e4      	adds	r4, r4, r3
100039b2:	42bd      	cmp	r5, r7
100039b4:	d1ea      	bne.n	1000398c <usbd_open_edpt_pair+0x84>
100039b6:	2001      	movs	r0, #1
100039b8:	e7bd      	b.n	10003936 <usbd_open_edpt_pair+0x2e>
100039ba:	46c0      	nop			; (mov r8, r8)
100039bc:	20001134 	.word	0x20001134
100039c0:	2000155c 	.word	0x2000155c

100039c4 <usbd_edpt_open>:
100039c4:	237f      	movs	r3, #127	; 0x7f
100039c6:	b570      	push	{r4, r5, r6, lr}
100039c8:	788a      	ldrb	r2, [r1, #2]
100039ca:	000c      	movs	r4, r1
100039cc:	4013      	ands	r3, r2
100039ce:	2b0f      	cmp	r3, #15
100039d0:	d901      	bls.n	100039d6 <usbd_edpt_open+0x12>
100039d2:	2000      	movs	r0, #0
100039d4:	bd70      	pop	{r4, r5, r6, pc}
100039d6:	4b07      	ldr	r3, [pc, #28]	; (100039f4 <usbd_edpt_open+0x30>)
100039d8:	0020      	movs	r0, r4
100039da:	781d      	ldrb	r5, [r3, #0]
100039dc:	4b06      	ldr	r3, [pc, #24]	; (100039f8 <usbd_edpt_open+0x34>)
100039de:	7899      	ldrb	r1, [r3, #2]
100039e0:	f000 fe2a 	bl	10004638 <tu_edpt_validate>
100039e4:	2800      	cmp	r0, #0
100039e6:	d0f4      	beq.n	100039d2 <usbd_edpt_open+0xe>
100039e8:	0021      	movs	r1, r4
100039ea:	0028      	movs	r0, r5
100039ec:	f7ff f9da 	bl	10002da4 <dcd_edpt_open>
100039f0:	e7f0      	b.n	100039d4 <usbd_edpt_open+0x10>
100039f2:	46c0      	nop			; (mov r8, r8)
100039f4:	20001134 	.word	0x20001134
100039f8:	2000155c 	.word	0x2000155c

100039fc <usbd_edpt_claim>:
100039fc:	207f      	movs	r0, #127	; 0x7f
100039fe:	4b07      	ldr	r3, [pc, #28]	; (10003a1c <usbd_edpt_claim+0x20>)
10003a00:	4008      	ands	r0, r1
10003a02:	09c9      	lsrs	r1, r1, #7
10003a04:	681a      	ldr	r2, [r3, #0]
10003a06:	000b      	movs	r3, r1
10003a08:	b510      	push	{r4, lr}
10003a0a:	3334      	adds	r3, #52	; 0x34
10003a0c:	0040      	lsls	r0, r0, #1
10003a0e:	18c0      	adds	r0, r0, r3
10003a10:	4b03      	ldr	r3, [pc, #12]	; (10003a20 <usbd_edpt_claim+0x24>)
10003a12:	0011      	movs	r1, r2
10003a14:	1818      	adds	r0, r3, r0
10003a16:	f000 fdd5 	bl	100045c4 <tu_edpt_claim>
10003a1a:	bd10      	pop	{r4, pc}
10003a1c:	200015b0 	.word	0x200015b0
10003a20:	2000155c 	.word	0x2000155c

10003a24 <usbd_edpt_release>:
10003a24:	207f      	movs	r0, #127	; 0x7f
10003a26:	4b07      	ldr	r3, [pc, #28]	; (10003a44 <usbd_edpt_release+0x20>)
10003a28:	4008      	ands	r0, r1
10003a2a:	09c9      	lsrs	r1, r1, #7
10003a2c:	681a      	ldr	r2, [r3, #0]
10003a2e:	000b      	movs	r3, r1
10003a30:	b510      	push	{r4, lr}
10003a32:	3334      	adds	r3, #52	; 0x34
10003a34:	0040      	lsls	r0, r0, #1
10003a36:	18c0      	adds	r0, r0, r3
10003a38:	4b03      	ldr	r3, [pc, #12]	; (10003a48 <usbd_edpt_release+0x24>)
10003a3a:	0011      	movs	r1, r2
10003a3c:	1818      	adds	r0, r3, r0
10003a3e:	f000 fde1 	bl	10004604 <tu_edpt_release>
10003a42:	bd10      	pop	{r4, pc}
10003a44:	200015b0 	.word	0x200015b0
10003a48:	2000155c 	.word	0x2000155c

10003a4c <usbd_edpt_xfer>:
10003a4c:	b570      	push	{r4, r5, r6, lr}
10003a4e:	247f      	movs	r4, #127	; 0x7f
10003a50:	400c      	ands	r4, r1
10003a52:	0060      	lsls	r0, r4, #1
10003a54:	4c0e      	ldr	r4, [pc, #56]	; (10003a90 <usbd_edpt_xfer+0x44>)
10003a56:	09cd      	lsrs	r5, r1, #7
10003a58:	1824      	adds	r4, r4, r0
10003a5a:	1964      	adds	r4, r4, r5
10003a5c:	3430      	adds	r4, #48	; 0x30
10003a5e:	7925      	ldrb	r5, [r4, #4]
10003a60:	2000      	movs	r0, #0
10003a62:	07ed      	lsls	r5, r5, #31
10003a64:	d500      	bpl.n	10003a68 <usbd_edpt_xfer+0x1c>
10003a66:	bd70      	pop	{r4, r5, r6, pc}
10003a68:	2601      	movs	r6, #1
10003a6a:	7925      	ldrb	r5, [r4, #4]
10003a6c:	4809      	ldr	r0, [pc, #36]	; (10003a94 <usbd_edpt_xfer+0x48>)
10003a6e:	4335      	orrs	r5, r6
10003a70:	7800      	ldrb	r0, [r0, #0]
10003a72:	7125      	strb	r5, [r4, #4]
10003a74:	f7ff fa18 	bl	10002ea8 <dcd_edpt_xfer>
10003a78:	2800      	cmp	r0, #0
10003a7a:	d1f4      	bne.n	10003a66 <usbd_edpt_xfer+0x1a>
10003a7c:	2201      	movs	r2, #1
10003a7e:	7923      	ldrb	r3, [r4, #4]
10003a80:	4393      	bics	r3, r2
10003a82:	7123      	strb	r3, [r4, #4]
10003a84:	7923      	ldrb	r3, [r4, #4]
10003a86:	3203      	adds	r2, #3
10003a88:	4393      	bics	r3, r2
10003a8a:	7123      	strb	r3, [r4, #4]
10003a8c:	e7eb      	b.n	10003a66 <usbd_edpt_xfer+0x1a>
10003a8e:	46c0      	nop			; (mov r8, r8)
10003a90:	2000155c 	.word	0x2000155c
10003a94:	20001134 	.word	0x20001134

10003a98 <tud_control_status>:
10003a98:	b570      	push	{r4, r5, r6, lr}
10003a9a:	4c0a      	ldr	r4, [pc, #40]	; (10003ac4 <tud_control_status+0x2c>)
10003a9c:	0006      	movs	r6, r0
10003a9e:	2208      	movs	r2, #8
10003aa0:	0020      	movs	r0, r4
10003aa2:	000d      	movs	r5, r1
10003aa4:	f7fe fb98 	bl	100021d8 <__wrap___aeabi_memcpy>
10003aa8:	2300      	movs	r3, #0
10003aaa:	2100      	movs	r1, #0
10003aac:	60a3      	str	r3, [r4, #8]
10003aae:	60e3      	str	r3, [r4, #12]
10003ab0:	5669      	ldrsb	r1, [r5, r1]
10003ab2:	0030      	movs	r0, r6
10003ab4:	43c9      	mvns	r1, r1
10003ab6:	0fc9      	lsrs	r1, r1, #31
10003ab8:	01c9      	lsls	r1, r1, #7
10003aba:	2200      	movs	r2, #0
10003abc:	f7ff ffc6 	bl	10003a4c <usbd_edpt_xfer>
10003ac0:	bd70      	pop	{r4, r5, r6, pc}
10003ac2:	46c0      	nop			; (mov r8, r8)
10003ac4:	2000153c 	.word	0x2000153c

10003ac8 <tud_control_xfer>:
10003ac8:	b5f0      	push	{r4, r5, r6, r7, lr}
10003aca:	46c6      	mov	lr, r8
10003acc:	4690      	mov	r8, r2
10003ace:	4c29      	ldr	r4, [pc, #164]	; (10003b74 <tud_control_xfer+0xac>)
10003ad0:	2208      	movs	r2, #8
10003ad2:	b500      	push	{lr}
10003ad4:	0006      	movs	r6, r0
10003ad6:	0020      	movs	r0, r4
10003ad8:	000d      	movs	r5, r1
10003ada:	001f      	movs	r7, r3
10003adc:	f7fe fb7c 	bl	100021d8 <__wrap___aeabi_memcpy>
10003ae0:	4643      	mov	r3, r8
10003ae2:	60a3      	str	r3, [r4, #8]
10003ae4:	2300      	movs	r3, #0
10003ae6:	81e3      	strh	r3, [r4, #14]
10003ae8:	79eb      	ldrb	r3, [r5, #7]
10003aea:	79aa      	ldrb	r2, [r5, #6]
10003aec:	021b      	lsls	r3, r3, #8
10003aee:	4313      	orrs	r3, r2
10003af0:	1c1a      	adds	r2, r3, #0
10003af2:	42bb      	cmp	r3, r7
10003af4:	d900      	bls.n	10003af8 <tud_control_xfer+0x30>
10003af6:	1c3a      	adds	r2, r7, #0
10003af8:	b297      	uxth	r7, r2
10003afa:	81a2      	strh	r2, [r4, #12]
10003afc:	2b00      	cmp	r3, #0
10003afe:	d012      	beq.n	10003b26 <tud_control_xfer+0x5e>
10003b00:	2f00      	cmp	r7, #0
10003b02:	d01d      	beq.n	10003b40 <tud_control_xfer+0x78>
10003b04:	4643      	mov	r3, r8
10003b06:	2b00      	cmp	r3, #0
10003b08:	d02e      	beq.n	10003b68 <tud_control_xfer+0xa0>
10003b0a:	1c3b      	adds	r3, r7, #0
10003b0c:	2f40      	cmp	r7, #64	; 0x40
10003b0e:	d81d      	bhi.n	10003b4c <tud_control_xfer+0x84>
10003b10:	b29f      	uxth	r7, r3
10003b12:	7823      	ldrb	r3, [r4, #0]
10003b14:	2b7f      	cmp	r3, #127	; 0x7f
10003b16:	d81e      	bhi.n	10003b56 <tud_control_xfer+0x8e>
10003b18:	2100      	movs	r1, #0
10003b1a:	4a17      	ldr	r2, [pc, #92]	; (10003b78 <tud_control_xfer+0xb0>)
10003b1c:	003b      	movs	r3, r7
10003b1e:	0030      	movs	r0, r6
10003b20:	f7ff ff94 	bl	10003a4c <usbd_edpt_xfer>
10003b24:	e009      	b.n	10003b3a <tud_control_xfer+0x72>
10003b26:	2100      	movs	r1, #0
10003b28:	5669      	ldrsb	r1, [r5, r1]
10003b2a:	2300      	movs	r3, #0
10003b2c:	43c9      	mvns	r1, r1
10003b2e:	0fc9      	lsrs	r1, r1, #31
10003b30:	01c9      	lsls	r1, r1, #7
10003b32:	2200      	movs	r2, #0
10003b34:	0030      	movs	r0, r6
10003b36:	f7ff ff89 	bl	10003a4c <usbd_edpt_xfer>
10003b3a:	bc04      	pop	{r2}
10003b3c:	4690      	mov	r8, r2
10003b3e:	bdf0      	pop	{r4, r5, r6, r7, pc}
10003b40:	7823      	ldrb	r3, [r4, #0]
10003b42:	2b7f      	cmp	r3, #127	; 0x7f
10003b44:	d812      	bhi.n	10003b6c <tud_control_xfer+0xa4>
10003b46:	2100      	movs	r1, #0
10003b48:	2200      	movs	r2, #0
10003b4a:	e7e7      	b.n	10003b1c <tud_control_xfer+0x54>
10003b4c:	2340      	movs	r3, #64	; 0x40
10003b4e:	b29f      	uxth	r7, r3
10003b50:	7823      	ldrb	r3, [r4, #0]
10003b52:	2b7f      	cmp	r3, #127	; 0x7f
10003b54:	d9e0      	bls.n	10003b18 <tud_control_xfer+0x50>
10003b56:	4c08      	ldr	r4, [pc, #32]	; (10003b78 <tud_control_xfer+0xb0>)
10003b58:	003a      	movs	r2, r7
10003b5a:	4641      	mov	r1, r8
10003b5c:	0020      	movs	r0, r4
10003b5e:	f7fe fb3b 	bl	100021d8 <__wrap___aeabi_memcpy>
10003b62:	2180      	movs	r1, #128	; 0x80
10003b64:	0022      	movs	r2, r4
10003b66:	e7d9      	b.n	10003b1c <tud_control_xfer+0x54>
10003b68:	2000      	movs	r0, #0
10003b6a:	e7e6      	b.n	10003b3a <tud_control_xfer+0x72>
10003b6c:	2180      	movs	r1, #128	; 0x80
10003b6e:	2200      	movs	r2, #0
10003b70:	e7d4      	b.n	10003b1c <tud_control_xfer+0x54>
10003b72:	46c0      	nop			; (mov r8, r8)
10003b74:	2000153c 	.word	0x2000153c
10003b78:	200014fc 	.word	0x200014fc

10003b7c <usbd_control_reset>:
10003b7c:	b510      	push	{r4, lr}
10003b7e:	2214      	movs	r2, #20
10003b80:	2100      	movs	r1, #0
10003b82:	4802      	ldr	r0, [pc, #8]	; (10003b8c <usbd_control_reset+0x10>)
10003b84:	f7fe fb22 	bl	100021cc <__wrap_memset>
10003b88:	bd10      	pop	{r4, pc}
10003b8a:	46c0      	nop			; (mov r8, r8)
10003b8c:	2000153c 	.word	0x2000153c

10003b90 <usbd_control_set_complete_callback>:
10003b90:	4b01      	ldr	r3, [pc, #4]	; (10003b98 <usbd_control_set_complete_callback+0x8>)
10003b92:	6118      	str	r0, [r3, #16]
10003b94:	4770      	bx	lr
10003b96:	46c0      	nop			; (mov r8, r8)
10003b98:	2000153c 	.word	0x2000153c

10003b9c <usbd_control_set_request>:
10003b9c:	b510      	push	{r4, lr}
10003b9e:	4c05      	ldr	r4, [pc, #20]	; (10003bb4 <usbd_control_set_request+0x18>)
10003ba0:	0001      	movs	r1, r0
10003ba2:	2208      	movs	r2, #8
10003ba4:	0020      	movs	r0, r4
10003ba6:	f7fe fb17 	bl	100021d8 <__wrap___aeabi_memcpy>
10003baa:	2300      	movs	r3, #0
10003bac:	60a3      	str	r3, [r4, #8]
10003bae:	60e3      	str	r3, [r4, #12]
10003bb0:	bd10      	pop	{r4, pc}
10003bb2:	46c0      	nop			; (mov r8, r8)
10003bb4:	2000153c 	.word	0x2000153c

10003bb8 <usbd_control_xfer_cb>:
10003bb8:	b5f8      	push	{r3, r4, r5, r6, r7, lr}
10003bba:	4c3a      	ldr	r4, [pc, #232]	; (10003ca4 <usbd_control_xfer_cb+0xec>)
10003bbc:	001d      	movs	r5, r3
10003bbe:	7823      	ldrb	r3, [r4, #0]
10003bc0:	0006      	movs	r6, r0
10003bc2:	09da      	lsrs	r2, r3, #7
10003bc4:	09c9      	lsrs	r1, r1, #7
10003bc6:	428a      	cmp	r2, r1
10003bc8:	d010      	beq.n	10003bec <usbd_control_xfer_cb+0x34>
10003bca:	2000      	movs	r0, #0
10003bcc:	2d00      	cmp	r5, #0
10003bce:	d000      	beq.n	10003bd2 <usbd_control_xfer_cb+0x1a>
10003bd0:	bdf8      	pop	{r3, r4, r5, r6, r7, pc}
10003bd2:	0021      	movs	r1, r4
10003bd4:	0030      	movs	r0, r6
10003bd6:	f7ff f8d7 	bl	10002d88 <dcd_edpt0_status_complete>
10003bda:	6923      	ldr	r3, [r4, #16]
10003bdc:	2b00      	cmp	r3, #0
10003bde:	d05a      	beq.n	10003c96 <usbd_control_xfer_cb+0xde>
10003be0:	0022      	movs	r2, r4
10003be2:	2103      	movs	r1, #3
10003be4:	0030      	movs	r0, r6
10003be6:	4798      	blx	r3
10003be8:	2001      	movs	r0, #1
10003bea:	e7f1      	b.n	10003bd0 <usbd_control_xfer_cb+0x18>
10003bec:	68a7      	ldr	r7, [r4, #8]
10003bee:	2b7f      	cmp	r3, #127	; 0x7f
10003bf0:	d808      	bhi.n	10003c04 <usbd_control_xfer_cb+0x4c>
10003bf2:	2000      	movs	r0, #0
10003bf4:	2f00      	cmp	r7, #0
10003bf6:	d0eb      	beq.n	10003bd0 <usbd_control_xfer_cb+0x18>
10003bf8:	0038      	movs	r0, r7
10003bfa:	002a      	movs	r2, r5
10003bfc:	492a      	ldr	r1, [pc, #168]	; (10003ca8 <usbd_control_xfer_cb+0xf0>)
10003bfe:	f7fe faeb 	bl	100021d8 <__wrap___aeabi_memcpy>
10003c02:	68a7      	ldr	r7, [r4, #8]
10003c04:	89e2      	ldrh	r2, [r4, #14]
10003c06:	88e3      	ldrh	r3, [r4, #6]
10003c08:	1952      	adds	r2, r2, r5
10003c0a:	b292      	uxth	r2, r2
10003c0c:	197f      	adds	r7, r7, r5
10003c0e:	81e2      	strh	r2, [r4, #14]
10003c10:	60a7      	str	r7, [r4, #8]
10003c12:	4293      	cmp	r3, r2
10003c14:	d001      	beq.n	10003c1a <usbd_control_xfer_cb+0x62>
10003c16:	2d3f      	cmp	r5, #63	; 0x3f
10003c18:	d813      	bhi.n	10003c42 <usbd_control_xfer_cb+0x8a>
10003c1a:	6923      	ldr	r3, [r4, #16]
10003c1c:	2b00      	cmp	r3, #0
10003c1e:	d005      	beq.n	10003c2c <usbd_control_xfer_cb+0x74>
10003c20:	0022      	movs	r2, r4
10003c22:	2102      	movs	r1, #2
10003c24:	0030      	movs	r0, r6
10003c26:	4798      	blx	r3
10003c28:	2800      	cmp	r0, #0
10003c2a:	d01d      	beq.n	10003c68 <usbd_control_xfer_cb+0xb0>
10003c2c:	2100      	movs	r1, #0
10003c2e:	5661      	ldrsb	r1, [r4, r1]
10003c30:	2300      	movs	r3, #0
10003c32:	43c9      	mvns	r1, r1
10003c34:	0fc9      	lsrs	r1, r1, #31
10003c36:	01c9      	lsls	r1, r1, #7
10003c38:	2200      	movs	r2, #0
10003c3a:	0030      	movs	r0, r6
10003c3c:	f7ff ff06 	bl	10003a4c <usbd_edpt_xfer>
10003c40:	e7c6      	b.n	10003bd0 <usbd_control_xfer_cb+0x18>
10003c42:	89a0      	ldrh	r0, [r4, #12]
10003c44:	1a81      	subs	r1, r0, r2
10003c46:	1c0d      	adds	r5, r1, #0
10003c48:	b289      	uxth	r1, r1
10003c4a:	2940      	cmp	r1, #64	; 0x40
10003c4c:	d816      	bhi.n	10003c7c <usbd_control_xfer_cb+0xc4>
10003c4e:	7823      	ldrb	r3, [r4, #0]
10003c50:	b2ad      	uxth	r5, r5
10003c52:	2b7f      	cmp	r3, #127	; 0x7f
10003c54:	d814      	bhi.n	10003c80 <usbd_control_xfer_cb+0xc8>
10003c56:	2100      	movs	r1, #0
10003c58:	4282      	cmp	r2, r0
10003c5a:	d01e      	beq.n	10003c9a <usbd_control_xfer_cb+0xe2>
10003c5c:	4a12      	ldr	r2, [pc, #72]	; (10003ca8 <usbd_control_xfer_cb+0xf0>)
10003c5e:	002b      	movs	r3, r5
10003c60:	0030      	movs	r0, r6
10003c62:	f7ff fef3 	bl	10003a4c <usbd_edpt_xfer>
10003c66:	e7b3      	b.n	10003bd0 <usbd_control_xfer_cb+0x18>
10003c68:	2100      	movs	r1, #0
10003c6a:	0030      	movs	r0, r6
10003c6c:	f7ff f92e 	bl	10002ecc <dcd_edpt_stall>
10003c70:	0030      	movs	r0, r6
10003c72:	2180      	movs	r1, #128	; 0x80
10003c74:	f7ff f92a 	bl	10002ecc <dcd_edpt_stall>
10003c78:	2001      	movs	r0, #1
10003c7a:	e7a9      	b.n	10003bd0 <usbd_control_xfer_cb+0x18>
10003c7c:	2540      	movs	r5, #64	; 0x40
10003c7e:	e7e6      	b.n	10003c4e <usbd_control_xfer_cb+0x96>
10003c80:	4282      	cmp	r2, r0
10003c82:	d00c      	beq.n	10003c9e <usbd_control_xfer_cb+0xe6>
10003c84:	4c08      	ldr	r4, [pc, #32]	; (10003ca8 <usbd_control_xfer_cb+0xf0>)
10003c86:	002a      	movs	r2, r5
10003c88:	0039      	movs	r1, r7
10003c8a:	0020      	movs	r0, r4
10003c8c:	f7fe faa4 	bl	100021d8 <__wrap___aeabi_memcpy>
10003c90:	2180      	movs	r1, #128	; 0x80
10003c92:	0022      	movs	r2, r4
10003c94:	e7e3      	b.n	10003c5e <usbd_control_xfer_cb+0xa6>
10003c96:	2001      	movs	r0, #1
10003c98:	e79a      	b.n	10003bd0 <usbd_control_xfer_cb+0x18>
10003c9a:	2200      	movs	r2, #0
10003c9c:	e7df      	b.n	10003c5e <usbd_control_xfer_cb+0xa6>
10003c9e:	2180      	movs	r1, #128	; 0x80
10003ca0:	2200      	movs	r2, #0
10003ca2:	e7dc      	b.n	10003c5e <usbd_control_xfer_cb+0xa6>
10003ca4:	2000153c 	.word	0x2000153c
10003ca8:	200014fc 	.word	0x200014fc

10003cac <tud_cdc_n_connected>:
10003cac:	b510      	push	{r4, lr}
10003cae:	0004      	movs	r4, r0
10003cb0:	f7ff f996 	bl	10002fe0 <tud_mounted>
10003cb4:	2800      	cmp	r0, #0
10003cb6:	d101      	bne.n	10003cbc <tud_cdc_n_connected+0x10>
10003cb8:	2000      	movs	r0, #0
10003cba:	bd10      	pop	{r4, pc}
10003cbc:	f7ff f998 	bl	10002ff0 <tud_suspended>
10003cc0:	2800      	cmp	r0, #0
10003cc2:	d1f9      	bne.n	10003cb8 <tud_cdc_n_connected+0xc>
10003cc4:	30c8      	adds	r0, #200	; 0xc8
10003cc6:	4344      	muls	r4, r0
10003cc8:	4802      	ldr	r0, [pc, #8]	; (10003cd4 <tud_cdc_n_connected+0x28>)
10003cca:	1900      	adds	r0, r0, r4
10003ccc:	7903      	ldrb	r3, [r0, #4]
10003cce:	2001      	movs	r0, #1
10003cd0:	4018      	ands	r0, r3
10003cd2:	e7f2      	b.n	10003cba <tud_cdc_n_connected+0xe>
10003cd4:	20001434 	.word	0x20001434

10003cd8 <tud_cdc_n_available>:
10003cd8:	0003      	movs	r3, r0
10003cda:	20c8      	movs	r0, #200	; 0xc8
10003cdc:	4358      	muls	r0, r3
10003cde:	b510      	push	{r4, lr}
10003ce0:	4b02      	ldr	r3, [pc, #8]	; (10003cec <tud_cdc_n_available+0x14>)
10003ce2:	3010      	adds	r0, #16
10003ce4:	18c0      	adds	r0, r0, r3
10003ce6:	f000 fe47 	bl	10004978 <tu_fifo_count>
10003cea:	bd10      	pop	{r4, pc}
10003cec:	20001434 	.word	0x20001434

10003cf0 <tud_cdc_n_read>:
10003cf0:	b5f0      	push	{r4, r5, r6, r7, lr}
10003cf2:	24c8      	movs	r4, #200	; 0xc8
10003cf4:	46c6      	mov	lr, r8
10003cf6:	4344      	muls	r4, r0
10003cf8:	4f1e      	ldr	r7, [pc, #120]	; (10003d74 <tud_cdc_n_read+0x84>)
10003cfa:	4b1f      	ldr	r3, [pc, #124]	; (10003d78 <tud_cdc_n_read+0x88>)
10003cfc:	3410      	adds	r4, #16
10003cfe:	b500      	push	{lr}
10003d00:	0006      	movs	r6, r0
10003d02:	193c      	adds	r4, r7, r4
10003d04:	429a      	cmp	r2, r3
10003d06:	d900      	bls.n	10003d0a <tud_cdc_n_read+0x1a>
10003d08:	4a1c      	ldr	r2, [pc, #112]	; (10003d7c <tud_cdc_n_read+0x8c>)
10003d0a:	b292      	uxth	r2, r2
10003d0c:	0020      	movs	r0, r4
10003d0e:	f000 feb3 	bl	10004a78 <tu_fifo_read_n>
10003d12:	4680      	mov	r8, r0
10003d14:	f7ff f964 	bl	10002fe0 <tud_mounted>
10003d18:	2800      	cmp	r0, #0
10003d1a:	d103      	bne.n	10003d24 <tud_cdc_n_read+0x34>
10003d1c:	4640      	mov	r0, r8
10003d1e:	bc04      	pop	{r2}
10003d20:	4690      	mov	r8, r2
10003d22:	bdf0      	pop	{r4, r5, r6, r7, pc}
10003d24:	f7ff f964 	bl	10002ff0 <tud_suspended>
10003d28:	2800      	cmp	r0, #0
10003d2a:	d1f7      	bne.n	10003d1c <tud_cdc_n_read+0x2c>
10003d2c:	25c8      	movs	r5, #200	; 0xc8
10003d2e:	4375      	muls	r5, r6
10003d30:	197d      	adds	r5, r7, r5
10003d32:	78eb      	ldrb	r3, [r5, #3]
10003d34:	2b00      	cmp	r3, #0
10003d36:	d0f1      	beq.n	10003d1c <tud_cdc_n_read+0x2c>
10003d38:	0020      	movs	r0, r4
10003d3a:	f000 fe39 	bl	100049b0 <tu_fifo_remaining>
10003d3e:	283f      	cmp	r0, #63	; 0x3f
10003d40:	d9ec      	bls.n	10003d1c <tud_cdc_n_read+0x2c>
10003d42:	78e9      	ldrb	r1, [r5, #3]
10003d44:	2000      	movs	r0, #0
10003d46:	f7ff fe59 	bl	100039fc <usbd_edpt_claim>
10003d4a:	2800      	cmp	r0, #0
10003d4c:	d0e6      	beq.n	10003d1c <tud_cdc_n_read+0x2c>
10003d4e:	0020      	movs	r0, r4
10003d50:	f000 fe2e 	bl	100049b0 <tu_fifo_remaining>
10003d54:	283f      	cmp	r0, #63	; 0x3f
10003d56:	d804      	bhi.n	10003d62 <tud_cdc_n_read+0x72>
10003d58:	78e9      	ldrb	r1, [r5, #3]
10003d5a:	2000      	movs	r0, #0
10003d5c:	f7ff fe62 	bl	10003a24 <usbd_edpt_release>
10003d60:	e7dc      	b.n	10003d1c <tud_cdc_n_read+0x2c>
10003d62:	4a07      	ldr	r2, [pc, #28]	; (10003d80 <tud_cdc_n_read+0x90>)
10003d64:	01f6      	lsls	r6, r6, #7
10003d66:	18b2      	adds	r2, r6, r2
10003d68:	78e9      	ldrb	r1, [r5, #3]
10003d6a:	2340      	movs	r3, #64	; 0x40
10003d6c:	2000      	movs	r0, #0
10003d6e:	f7ff fe6d 	bl	10003a4c <usbd_edpt_xfer>
10003d72:	e7d3      	b.n	10003d1c <tud_cdc_n_read+0x2c>
10003d74:	20001434 	.word	0x20001434
10003d78:	0000fffe 	.word	0x0000fffe
10003d7c:	0000ffff 	.word	0x0000ffff
10003d80:	200013b0 	.word	0x200013b0

10003d84 <tud_cdc_n_write>:
10003d84:	b5f8      	push	{r3, r4, r5, r6, r7, lr}
10003d86:	24c8      	movs	r4, #200	; 0xc8
10003d88:	4344      	muls	r4, r0
10003d8a:	4e20      	ldr	r6, [pc, #128]	; (10003e0c <tud_cdc_n_write+0x88>)
10003d8c:	4b20      	ldr	r3, [pc, #128]	; (10003e10 <tud_cdc_n_write+0x8c>)
10003d8e:	3424      	adds	r4, #36	; 0x24
10003d90:	0005      	movs	r5, r0
10003d92:	1934      	adds	r4, r6, r4
10003d94:	429a      	cmp	r2, r3
10003d96:	d900      	bls.n	10003d9a <tud_cdc_n_write+0x16>
10003d98:	4a1e      	ldr	r2, [pc, #120]	; (10003e14 <tud_cdc_n_write+0x90>)
10003d9a:	b292      	uxth	r2, r2
10003d9c:	0020      	movs	r0, r4
10003d9e:	f000 ff29 	bl	10004bf4 <tu_fifo_write_n>
10003da2:	0007      	movs	r7, r0
10003da4:	0020      	movs	r0, r4
10003da6:	f000 fde7 	bl	10004978 <tu_fifo_count>
10003daa:	283f      	cmp	r0, #63	; 0x3f
10003dac:	d801      	bhi.n	10003db2 <tud_cdc_n_write+0x2e>
10003dae:	0038      	movs	r0, r7
10003db0:	bdf8      	pop	{r3, r4, r5, r6, r7, pc}
10003db2:	f7ff f915 	bl	10002fe0 <tud_mounted>
10003db6:	2800      	cmp	r0, #0
10003db8:	d0f9      	beq.n	10003dae <tud_cdc_n_write+0x2a>
10003dba:	f7ff f919 	bl	10002ff0 <tud_suspended>
10003dbe:	2800      	cmp	r0, #0
10003dc0:	d1f5      	bne.n	10003dae <tud_cdc_n_write+0x2a>
10003dc2:	0020      	movs	r0, r4
10003dc4:	f000 fdd8 	bl	10004978 <tu_fifo_count>
10003dc8:	2800      	cmp	r0, #0
10003dca:	d0f0      	beq.n	10003dae <tud_cdc_n_write+0x2a>
10003dcc:	23c8      	movs	r3, #200	; 0xc8
10003dce:	436b      	muls	r3, r5
10003dd0:	18f6      	adds	r6, r6, r3
10003dd2:	78b1      	ldrb	r1, [r6, #2]
10003dd4:	2000      	movs	r0, #0
10003dd6:	f7ff fe11 	bl	100039fc <usbd_edpt_claim>
10003dda:	2800      	cmp	r0, #0
10003ddc:	d0e7      	beq.n	10003dae <tud_cdc_n_write+0x2a>
10003dde:	4b0e      	ldr	r3, [pc, #56]	; (10003e18 <tud_cdc_n_write+0x94>)
10003de0:	01ed      	lsls	r5, r5, #7
10003de2:	3540      	adds	r5, #64	; 0x40
10003de4:	18ed      	adds	r5, r5, r3
10003de6:	0029      	movs	r1, r5
10003de8:	2240      	movs	r2, #64	; 0x40
10003dea:	0020      	movs	r0, r4
10003dec:	f000 fe44 	bl	10004a78 <tu_fifo_read_n>
10003df0:	78b1      	ldrb	r1, [r6, #2]
10003df2:	2800      	cmp	r0, #0
10003df4:	d005      	beq.n	10003e02 <tud_cdc_n_write+0x7e>
10003df6:	0003      	movs	r3, r0
10003df8:	002a      	movs	r2, r5
10003dfa:	2000      	movs	r0, #0
10003dfc:	f7ff fe26 	bl	10003a4c <usbd_edpt_xfer>
10003e00:	e7d5      	b.n	10003dae <tud_cdc_n_write+0x2a>
10003e02:	2000      	movs	r0, #0
10003e04:	f7ff fe0e 	bl	10003a24 <usbd_edpt_release>
10003e08:	e7d1      	b.n	10003dae <tud_cdc_n_write+0x2a>
10003e0a:	46c0      	nop			; (mov r8, r8)
10003e0c:	20001434 	.word	0x20001434
10003e10:	0000fffe 	.word	0x0000fffe
10003e14:	0000ffff 	.word	0x0000ffff
10003e18:	200013b0 	.word	0x200013b0

10003e1c <tud_cdc_n_write_flush>:
10003e1c:	b5f8      	push	{r3, r4, r5, r6, r7, lr}
10003e1e:	0004      	movs	r4, r0
10003e20:	f7ff f8de 	bl	10002fe0 <tud_mounted>
10003e24:	2800      	cmp	r0, #0
10003e26:	d101      	bne.n	10003e2c <tud_cdc_n_write_flush+0x10>
10003e28:	2000      	movs	r0, #0
10003e2a:	bdf8      	pop	{r3, r4, r5, r6, r7, pc}
10003e2c:	f7ff f8e0 	bl	10002ff0 <tud_suspended>
10003e30:	2800      	cmp	r0, #0
10003e32:	d1f9      	bne.n	10003e28 <tud_cdc_n_write_flush+0xc>
10003e34:	25c8      	movs	r5, #200	; 0xc8
10003e36:	4365      	muls	r5, r4
10003e38:	002e      	movs	r6, r5
10003e3a:	4f14      	ldr	r7, [pc, #80]	; (10003e8c <tud_cdc_n_write_flush+0x70>)
10003e3c:	3624      	adds	r6, #36	; 0x24
10003e3e:	19f6      	adds	r6, r6, r7
10003e40:	0030      	movs	r0, r6
10003e42:	f000 fd99 	bl	10004978 <tu_fifo_count>
10003e46:	2800      	cmp	r0, #0
10003e48:	d0ee      	beq.n	10003e28 <tud_cdc_n_write_flush+0xc>
10003e4a:	197d      	adds	r5, r7, r5
10003e4c:	78a9      	ldrb	r1, [r5, #2]
10003e4e:	2000      	movs	r0, #0
10003e50:	f7ff fdd4 	bl	100039fc <usbd_edpt_claim>
10003e54:	2800      	cmp	r0, #0
10003e56:	d0e7      	beq.n	10003e28 <tud_cdc_n_write_flush+0xc>
10003e58:	01e4      	lsls	r4, r4, #7
10003e5a:	3440      	adds	r4, #64	; 0x40
10003e5c:	0027      	movs	r7, r4
10003e5e:	4c0c      	ldr	r4, [pc, #48]	; (10003e90 <tud_cdc_n_write_flush+0x74>)
10003e60:	2240      	movs	r2, #64	; 0x40
10003e62:	193f      	adds	r7, r7, r4
10003e64:	0039      	movs	r1, r7
10003e66:	0030      	movs	r0, r6
10003e68:	f000 fe06 	bl	10004a78 <tu_fifo_read_n>
10003e6c:	78a9      	ldrb	r1, [r5, #2]
10003e6e:	1e04      	subs	r4, r0, #0
10003e70:	d008      	beq.n	10003e84 <tud_cdc_n_write_flush+0x68>
10003e72:	0003      	movs	r3, r0
10003e74:	003a      	movs	r2, r7
10003e76:	2000      	movs	r0, #0
10003e78:	f7ff fde8 	bl	10003a4c <usbd_edpt_xfer>
10003e7c:	2800      	cmp	r0, #0
10003e7e:	d0d3      	beq.n	10003e28 <tud_cdc_n_write_flush+0xc>
10003e80:	0020      	movs	r0, r4
10003e82:	e7d2      	b.n	10003e2a <tud_cdc_n_write_flush+0xe>
10003e84:	2000      	movs	r0, #0
10003e86:	f7ff fdcd 	bl	10003a24 <usbd_edpt_release>
10003e8a:	e7cd      	b.n	10003e28 <tud_cdc_n_write_flush+0xc>
10003e8c:	20001434 	.word	0x20001434
10003e90:	200013b0 	.word	0x200013b0

10003e94 <tud_cdc_n_write_available>:
10003e94:	0003      	movs	r3, r0
10003e96:	20c8      	movs	r0, #200	; 0xc8
10003e98:	4358      	muls	r0, r3
10003e9a:	b510      	push	{r4, lr}
10003e9c:	4b02      	ldr	r3, [pc, #8]	; (10003ea8 <tud_cdc_n_write_available+0x14>)
10003e9e:	3024      	adds	r0, #36	; 0x24
10003ea0:	18c0      	adds	r0, r0, r3
10003ea2:	f000 fd85 	bl	100049b0 <tu_fifo_remaining>
10003ea6:	bd10      	pop	{r4, pc}
10003ea8:	20001434 	.word	0x20001434

10003eac <cdcd_init>:
10003eac:	b5f0      	push	{r4, r5, r6, r7, lr}
10003eae:	2500      	movs	r5, #0
10003eb0:	4c18      	ldr	r4, [pc, #96]	; (10003f14 <cdcd_init+0x68>)
10003eb2:	b083      	sub	sp, #12
10003eb4:	22c8      	movs	r2, #200	; 0xc8
10003eb6:	2100      	movs	r1, #0
10003eb8:	0020      	movs	r0, r4
10003eba:	f7fe f987 	bl	100021cc <__wrap_memset>
10003ebe:	4b16      	ldr	r3, [pc, #88]	; (10003f18 <cdcd_init+0x6c>)
10003ec0:	0021      	movs	r1, r4
10003ec2:	701d      	strb	r5, [r3, #0]
10003ec4:	23ff      	movs	r3, #255	; 0xff
10003ec6:	7163      	strb	r3, [r4, #5]
10003ec8:	23e1      	movs	r3, #225	; 0xe1
10003eca:	025b      	lsls	r3, r3, #9
10003ecc:	60a3      	str	r3, [r4, #8]
10003ece:	0020      	movs	r0, r4
10003ed0:	2308      	movs	r3, #8
10003ed2:	3138      	adds	r1, #56	; 0x38
10003ed4:	73a3      	strb	r3, [r4, #14]
10003ed6:	2240      	movs	r2, #64	; 0x40
10003ed8:	9500      	str	r5, [sp, #0]
10003eda:	3b07      	subs	r3, #7
10003edc:	3010      	adds	r0, #16
10003ede:	f000 fd0b 	bl	100048f8 <tu_fifo_config>
10003ee2:	0027      	movs	r7, r4
10003ee4:	2301      	movs	r3, #1
10003ee6:	0021      	movs	r1, r4
10003ee8:	0020      	movs	r0, r4
10003eea:	0026      	movs	r6, r4
10003eec:	3178      	adds	r1, #120	; 0x78
10003eee:	9300      	str	r3, [sp, #0]
10003ef0:	2240      	movs	r2, #64	; 0x40
10003ef2:	37b8      	adds	r7, #184	; 0xb8
10003ef4:	3024      	adds	r0, #36	; 0x24
10003ef6:	f000 fcff 	bl	100048f8 <tu_fifo_config>
10003efa:	36c0      	adds	r6, #192	; 0xc0
10003efc:	0038      	movs	r0, r7
10003efe:	f7fd f873 	bl	10000fe8 <mutex_init>
10003f02:	0030      	movs	r0, r6
10003f04:	f7fd f870 	bl	10000fe8 <mutex_init>
10003f08:	61e5      	str	r5, [r4, #28]
10003f0a:	6227      	str	r7, [r4, #32]
10003f0c:	6326      	str	r6, [r4, #48]	; 0x30
10003f0e:	6365      	str	r5, [r4, #52]	; 0x34
10003f10:	b003      	add	sp, #12
10003f12:	bdf0      	pop	{r4, r5, r6, r7, pc}
10003f14:	20001434 	.word	0x20001434
10003f18:	20001430 	.word	0x20001430

10003f1c <cdcd_deinit>:
10003f1c:	4b07      	ldr	r3, [pc, #28]	; (10003f3c <cdcd_deinit+0x20>)
10003f1e:	6a1a      	ldr	r2, [r3, #32]
10003f20:	6b19      	ldr	r1, [r3, #48]	; 0x30
10003f22:	2a00      	cmp	r2, #0
10003f24:	d002      	beq.n	10003f2c <cdcd_deinit+0x10>
10003f26:	2200      	movs	r2, #0
10003f28:	61da      	str	r2, [r3, #28]
10003f2a:	621a      	str	r2, [r3, #32]
10003f2c:	2900      	cmp	r1, #0
10003f2e:	d002      	beq.n	10003f36 <cdcd_deinit+0x1a>
10003f30:	2200      	movs	r2, #0
10003f32:	631a      	str	r2, [r3, #48]	; 0x30
10003f34:	635a      	str	r2, [r3, #52]	; 0x34
10003f36:	2001      	movs	r0, #1
10003f38:	4770      	bx	lr
10003f3a:	46c0      	nop			; (mov r8, r8)
10003f3c:	20001434 	.word	0x20001434

10003f40 <cdcd_reset>:
10003f40:	b570      	push	{r4, r5, r6, lr}
10003f42:	4c0f      	ldr	r4, [pc, #60]	; (10003f80 <cdcd_reset+0x40>)
10003f44:	2205      	movs	r2, #5
10003f46:	2100      	movs	r1, #0
10003f48:	0020      	movs	r0, r4
10003f4a:	f7fe f93f 	bl	100021cc <__wrap_memset>
10003f4e:	4d0d      	ldr	r5, [pc, #52]	; (10003f84 <cdcd_reset+0x44>)
10003f50:	782b      	ldrb	r3, [r5, #0]
10003f52:	07da      	lsls	r2, r3, #31
10003f54:	d507      	bpl.n	10003f66 <cdcd_reset+0x26>
10003f56:	4c0c      	ldr	r4, [pc, #48]	; (10003f88 <cdcd_reset+0x48>)
10003f58:	079b      	lsls	r3, r3, #30
10003f5a:	d50c      	bpl.n	10003f76 <cdcd_reset+0x36>
10003f5c:	2101      	movs	r1, #1
10003f5e:	0020      	movs	r0, r4
10003f60:	f000 ff00 	bl	10004d64 <tu_fifo_set_overwritable>
10003f64:	bd70      	pop	{r4, r5, r6, pc}
10003f66:	0020      	movs	r0, r4
10003f68:	3010      	adds	r0, #16
10003f6a:	f000 fedb 	bl	10004d24 <tu_fifo_clear>
10003f6e:	782b      	ldrb	r3, [r5, #0]
10003f70:	4c05      	ldr	r4, [pc, #20]	; (10003f88 <cdcd_reset+0x48>)
10003f72:	079b      	lsls	r3, r3, #30
10003f74:	d4f2      	bmi.n	10003f5c <cdcd_reset+0x1c>
10003f76:	0020      	movs	r0, r4
10003f78:	f000 fed4 	bl	10004d24 <tu_fifo_clear>
10003f7c:	e7ee      	b.n	10003f5c <cdcd_reset+0x1c>
10003f7e:	46c0      	nop			; (mov r8, r8)
10003f80:	20001434 	.word	0x20001434
10003f84:	20001430 	.word	0x20001430
10003f88:	20001458 	.word	0x20001458

10003f8c <cdcd_open>:
10003f8c:	b5f0      	push	{r4, r5, r6, r7, lr}
10003f8e:	46c6      	mov	lr, r8
10003f90:	b500      	push	{lr}
10003f92:	794b      	ldrb	r3, [r1, #5]
10003f94:	b082      	sub	sp, #8
10003f96:	0006      	movs	r6, r0
10003f98:	2b02      	cmp	r3, #2
10003f9a:	d005      	beq.n	10003fa8 <cdcd_open+0x1c>
10003f9c:	2500      	movs	r5, #0
10003f9e:	0028      	movs	r0, r5
10003fa0:	b002      	add	sp, #8
10003fa2:	bc04      	pop	{r2}
10003fa4:	4690      	mov	r8, r2
10003fa6:	bdf0      	pop	{r4, r5, r6, r7, pc}
10003fa8:	798b      	ldrb	r3, [r1, #6]
10003faa:	2b02      	cmp	r3, #2
10003fac:	d1f6      	bne.n	10003f9c <cdcd_open+0x10>
10003fae:	4f33      	ldr	r7, [pc, #204]	; (1000407c <cdcd_open+0xf0>)
10003fb0:	78bb      	ldrb	r3, [r7, #2]
10003fb2:	2b00      	cmp	r3, #0
10003fb4:	d1f2      	bne.n	10003f9c <cdcd_open+0x10>
10003fb6:	788b      	ldrb	r3, [r1, #2]
10003fb8:	2509      	movs	r5, #9
10003fba:	703b      	strb	r3, [r7, #0]
10003fbc:	780c      	ldrb	r4, [r1, #0]
10003fbe:	190c      	adds	r4, r1, r4
10003fc0:	7863      	ldrb	r3, [r4, #1]
10003fc2:	2b24      	cmp	r3, #36	; 0x24
10003fc4:	d10b      	bne.n	10003fde <cdcd_open+0x52>
10003fc6:	2a08      	cmp	r2, #8
10003fc8:	d802      	bhi.n	10003fd0 <cdcd_open+0x44>
10003fca:	e021      	b.n	10004010 <cdcd_open+0x84>
10003fcc:	42aa      	cmp	r2, r5
10003fce:	d31f      	bcc.n	10004010 <cdcd_open+0x84>
10003fd0:	7823      	ldrb	r3, [r4, #0]
10003fd2:	18e4      	adds	r4, r4, r3
10003fd4:	18ed      	adds	r5, r5, r3
10003fd6:	7863      	ldrb	r3, [r4, #1]
10003fd8:	b2ad      	uxth	r5, r5
10003fda:	2b24      	cmp	r3, #36	; 0x24
10003fdc:	d0f6      	beq.n	10003fcc <cdcd_open+0x40>
10003fde:	2b05      	cmp	r3, #5
10003fe0:	d038      	beq.n	10004054 <cdcd_open+0xc8>
10003fe2:	2b04      	cmp	r3, #4
10003fe4:	d114      	bne.n	10004010 <cdcd_open+0x84>
10003fe6:	7963      	ldrb	r3, [r4, #5]
10003fe8:	2b0a      	cmp	r3, #10
10003fea:	d111      	bne.n	10004010 <cdcd_open+0x84>
10003fec:	7823      	ldrb	r3, [r4, #0]
10003fee:	0021      	movs	r1, r4
10003ff0:	4698      	mov	r8, r3
10003ff2:	4b23      	ldr	r3, [pc, #140]	; (10004080 <cdcd_open+0xf4>)
10003ff4:	4441      	add	r1, r8
10003ff6:	9301      	str	r3, [sp, #4]
10003ff8:	3301      	adds	r3, #1
10003ffa:	9300      	str	r3, [sp, #0]
10003ffc:	2202      	movs	r2, #2
10003ffe:	2302      	movs	r3, #2
10004000:	0030      	movs	r0, r6
10004002:	f7ff fc81 	bl	10003908 <usbd_open_edpt_pair>
10004006:	2800      	cmp	r0, #0
10004008:	d0c8      	beq.n	10003f9c <cdcd_open+0x10>
1000400a:	350e      	adds	r5, #14
1000400c:	4445      	add	r5, r8
1000400e:	b2ad      	uxth	r5, r5
10004010:	f7fe ffe6 	bl	10002fe0 <tud_mounted>
10004014:	2800      	cmp	r0, #0
10004016:	d0c2      	beq.n	10003f9e <cdcd_open+0x12>
10004018:	f7fe ffea 	bl	10002ff0 <tud_suspended>
1000401c:	2800      	cmp	r0, #0
1000401e:	d1be      	bne.n	10003f9e <cdcd_open+0x12>
10004020:	78fb      	ldrb	r3, [r7, #3]
10004022:	2b00      	cmp	r3, #0
10004024:	d0bb      	beq.n	10003f9e <cdcd_open+0x12>
10004026:	003c      	movs	r4, r7
10004028:	3410      	adds	r4, #16
1000402a:	0020      	movs	r0, r4
1000402c:	f000 fcc0 	bl	100049b0 <tu_fifo_remaining>
10004030:	283f      	cmp	r0, #63	; 0x3f
10004032:	d9b4      	bls.n	10003f9e <cdcd_open+0x12>
10004034:	78f9      	ldrb	r1, [r7, #3]
10004036:	2000      	movs	r0, #0
10004038:	f7ff fce0 	bl	100039fc <usbd_edpt_claim>
1000403c:	2800      	cmp	r0, #0
1000403e:	d0ae      	beq.n	10003f9e <cdcd_open+0x12>
10004040:	0020      	movs	r0, r4
10004042:	f000 fcb5 	bl	100049b0 <tu_fifo_remaining>
10004046:	78f9      	ldrb	r1, [r7, #3]
10004048:	283f      	cmp	r0, #63	; 0x3f
1000404a:	d811      	bhi.n	10004070 <cdcd_open+0xe4>
1000404c:	2000      	movs	r0, #0
1000404e:	f7ff fce9 	bl	10003a24 <usbd_edpt_release>
10004052:	e7a4      	b.n	10003f9e <cdcd_open+0x12>
10004054:	0021      	movs	r1, r4
10004056:	0030      	movs	r0, r6
10004058:	f7ff fcb4 	bl	100039c4 <usbd_edpt_open>
1000405c:	2800      	cmp	r0, #0
1000405e:	d09d      	beq.n	10003f9c <cdcd_open+0x10>
10004060:	78a3      	ldrb	r3, [r4, #2]
10004062:	707b      	strb	r3, [r7, #1]
10004064:	7823      	ldrb	r3, [r4, #0]
10004066:	18ed      	adds	r5, r5, r3
10004068:	18e4      	adds	r4, r4, r3
1000406a:	b2ad      	uxth	r5, r5
1000406c:	7863      	ldrb	r3, [r4, #1]
1000406e:	e7b8      	b.n	10003fe2 <cdcd_open+0x56>
10004070:	2340      	movs	r3, #64	; 0x40
10004072:	4a04      	ldr	r2, [pc, #16]	; (10004084 <cdcd_open+0xf8>)
10004074:	2000      	movs	r0, #0
10004076:	f7ff fce9 	bl	10003a4c <usbd_edpt_xfer>
1000407a:	e790      	b.n	10003f9e <cdcd_open+0x12>
1000407c:	20001434 	.word	0x20001434
10004080:	20001436 	.word	0x20001436
10004084:	200013b0 	.word	0x200013b0

10004088 <cdcd_control_xfer_cb>:
10004088:	b5f8      	push	{r3, r4, r5, r6, r7, lr}
1000408a:	2360      	movs	r3, #96	; 0x60
1000408c:	0014      	movs	r4, r2
1000408e:	7812      	ldrb	r2, [r2, #0]
10004090:	4013      	ands	r3, r2
10004092:	2200      	movs	r2, #0
10004094:	2b20      	cmp	r3, #32
10004096:	d001      	beq.n	1000409c <cdcd_control_xfer_cb+0x14>
10004098:	0010      	movs	r0, r2
1000409a:	bdf8      	pop	{r3, r4, r5, r6, r7, pc}
1000409c:	4d2e      	ldr	r5, [pc, #184]	; (10004158 <cdcd_control_xfer_cb+0xd0>)
1000409e:	7963      	ldrb	r3, [r4, #5]
100040a0:	7927      	ldrb	r7, [r4, #4]
100040a2:	782e      	ldrb	r6, [r5, #0]
100040a4:	021b      	lsls	r3, r3, #8
100040a6:	433b      	orrs	r3, r7
100040a8:	429e      	cmp	r6, r3
100040aa:	d1f5      	bne.n	10004098 <cdcd_control_xfer_cb+0x10>
100040ac:	7863      	ldrb	r3, [r4, #1]
100040ae:	2b21      	cmp	r3, #33	; 0x21
100040b0:	d01a      	beq.n	100040e8 <cdcd_control_xfer_cb+0x60>
100040b2:	d909      	bls.n	100040c8 <cdcd_control_xfer_cb+0x40>
100040b4:	2b22      	cmp	r3, #34	; 0x22
100040b6:	d02e      	beq.n	10004116 <cdcd_control_xfer_cb+0x8e>
100040b8:	2b23      	cmp	r3, #35	; 0x23
100040ba:	d11e      	bne.n	100040fa <cdcd_control_xfer_cb+0x72>
100040bc:	2901      	cmp	r1, #1
100040be:	d046      	beq.n	1000414e <cdcd_control_xfer_cb+0xc6>
100040c0:	2903      	cmp	r1, #3
100040c2:	d01c      	beq.n	100040fe <cdcd_control_xfer_cb+0x76>
100040c4:	2201      	movs	r2, #1
100040c6:	e7e7      	b.n	10004098 <cdcd_control_xfer_cb+0x10>
100040c8:	2b20      	cmp	r3, #32
100040ca:	d116      	bne.n	100040fa <cdcd_control_xfer_cb+0x72>
100040cc:	2901      	cmp	r1, #1
100040ce:	d00d      	beq.n	100040ec <cdcd_control_xfer_cb+0x64>
100040d0:	2903      	cmp	r1, #3
100040d2:	d1f7      	bne.n	100040c4 <cdcd_control_xfer_cb+0x3c>
100040d4:	4b21      	ldr	r3, [pc, #132]	; (1000415c <cdcd_control_xfer_cb+0xd4>)
100040d6:	2b00      	cmp	r3, #0
100040d8:	d0f4      	beq.n	100040c4 <cdcd_control_xfer_cb+0x3c>
100040da:	0029      	movs	r1, r5
100040dc:	2000      	movs	r0, #0
100040de:	3108      	adds	r1, #8
100040e0:	f7fe fa82 	bl	100025e8 <tud_cdc_line_coding_cb>
100040e4:	2201      	movs	r2, #1
100040e6:	e7d7      	b.n	10004098 <cdcd_control_xfer_cb+0x10>
100040e8:	2901      	cmp	r1, #1
100040ea:	d1eb      	bne.n	100040c4 <cdcd_control_xfer_cb+0x3c>
100040ec:	4a1c      	ldr	r2, [pc, #112]	; (10004160 <cdcd_control_xfer_cb+0xd8>)
100040ee:	2307      	movs	r3, #7
100040f0:	0021      	movs	r1, r4
100040f2:	f7ff fce9 	bl	10003ac8 <tud_control_xfer>
100040f6:	2201      	movs	r2, #1
100040f8:	e7ce      	b.n	10004098 <cdcd_control_xfer_cb+0x10>
100040fa:	2200      	movs	r2, #0
100040fc:	e7cc      	b.n	10004098 <cdcd_control_xfer_cb+0x10>
100040fe:	4b19      	ldr	r3, [pc, #100]	; (10004164 <cdcd_control_xfer_cb+0xdc>)
10004100:	2b00      	cmp	r3, #0
10004102:	d0df      	beq.n	100040c4 <cdcd_control_xfer_cb+0x3c>
10004104:	78e1      	ldrb	r1, [r4, #3]
10004106:	78a3      	ldrb	r3, [r4, #2]
10004108:	0209      	lsls	r1, r1, #8
1000410a:	4319      	orrs	r1, r3
1000410c:	2000      	movs	r0, #0
1000410e:	e000      	b.n	10004112 <cdcd_control_xfer_cb+0x8a>
10004110:	bf00      	nop
10004112:	2201      	movs	r2, #1
10004114:	e7c0      	b.n	10004098 <cdcd_control_xfer_cb+0x10>
10004116:	2901      	cmp	r1, #1
10004118:	d019      	beq.n	1000414e <cdcd_control_xfer_cb+0xc6>
1000411a:	2903      	cmp	r1, #3
1000411c:	d1d2      	bne.n	100040c4 <cdcd_control_xfer_cb+0x3c>
1000411e:	2601      	movs	r6, #1
10004120:	78a1      	ldrb	r1, [r4, #2]
10004122:	78e4      	ldrb	r4, [r4, #3]
10004124:	0028      	movs	r0, r5
10004126:	0224      	lsls	r4, r4, #8
10004128:	430c      	orrs	r4, r1
1000412a:	0031      	movs	r1, r6
1000412c:	712c      	strb	r4, [r5, #4]
1000412e:	43a1      	bics	r1, r4
10004130:	3024      	adds	r0, #36	; 0x24
10004132:	f000 fe17 	bl	10004d64 <tu_fifo_set_overwritable>
10004136:	4b0c      	ldr	r3, [pc, #48]	; (10004168 <cdcd_control_xfer_cb+0xe0>)
10004138:	2b00      	cmp	r3, #0
1000413a:	d0c3      	beq.n	100040c4 <cdcd_control_xfer_cb+0x3c>
1000413c:	0031      	movs	r1, r6
1000413e:	0862      	lsrs	r2, r4, #1
10004140:	4032      	ands	r2, r6
10004142:	4021      	ands	r1, r4
10004144:	2000      	movs	r0, #0
10004146:	e000      	b.n	1000414a <cdcd_control_xfer_cb+0xc2>
10004148:	bf00      	nop
1000414a:	2201      	movs	r2, #1
1000414c:	e7a4      	b.n	10004098 <cdcd_control_xfer_cb+0x10>
1000414e:	0021      	movs	r1, r4
10004150:	f7ff fca2 	bl	10003a98 <tud_control_status>
10004154:	2201      	movs	r2, #1
10004156:	e79f      	b.n	10004098 <cdcd_control_xfer_cb+0x10>
10004158:	20001434 	.word	0x20001434
1000415c:	100025e9 	.word	0x100025e9
10004160:	2000143c 	.word	0x2000143c
	...

1000416c <cdcd_xfer_cb>:
1000416c:	b5f8      	push	{r3, r4, r5, r6, r7, lr}
1000416e:	4645      	mov	r5, r8
10004170:	464e      	mov	r6, r9
10004172:	46de      	mov	lr, fp
10004174:	4657      	mov	r7, sl
10004176:	b5e0      	push	{r5, r6, r7, lr}
10004178:	4c5f      	ldr	r4, [pc, #380]	; (100042f8 <cdcd_xfer_cb+0x18c>)
1000417a:	001e      	movs	r6, r3
1000417c:	78e3      	ldrb	r3, [r4, #3]
1000417e:	4680      	mov	r8, r0
10004180:	000d      	movs	r5, r1
10004182:	428b      	cmp	r3, r1
10004184:	d163      	bne.n	1000424e <cdcd_xfer_cb+0xe2>
10004186:	2310      	movs	r3, #16
10004188:	4699      	mov	r9, r3
1000418a:	4f5c      	ldr	r7, [pc, #368]	; (100042fc <cdcd_xfer_cb+0x190>)
1000418c:	44a1      	add	r9, r4
1000418e:	b2b2      	uxth	r2, r6
10004190:	0039      	movs	r1, r7
10004192:	4648      	mov	r0, r9
10004194:	f000 fd2e 	bl	10004bf4 <tu_fifo_write_n>
10004198:	4b59      	ldr	r3, [pc, #356]	; (10004300 <cdcd_xfer_cb+0x194>)
1000419a:	2b00      	cmp	r3, #0
1000419c:	d01c      	beq.n	100041d8 <cdcd_xfer_cb+0x6c>
1000419e:	7963      	ldrb	r3, [r4, #5]
100041a0:	2bff      	cmp	r3, #255	; 0xff
100041a2:	d019      	beq.n	100041d8 <cdcd_xfer_cb+0x6c>
100041a4:	2e00      	cmp	r6, #0
100041a6:	d017      	beq.n	100041d8 <cdcd_xfer_cb+0x6c>
100041a8:	2200      	movs	r2, #0
100041aa:	46a3      	mov	fp, r4
100041ac:	4692      	mov	sl, r2
100041ae:	e005      	b.n	100041bc <cdcd_xfer_cb+0x50>
100041b0:	2301      	movs	r3, #1
100041b2:	469c      	mov	ip, r3
100041b4:	44e2      	add	sl, ip
100041b6:	4556      	cmp	r6, sl
100041b8:	d00e      	beq.n	100041d8 <cdcd_xfer_cb+0x6c>
100041ba:	7963      	ldrb	r3, [r4, #5]
100041bc:	4652      	mov	r2, sl
100041be:	5cba      	ldrb	r2, [r7, r2]
100041c0:	429a      	cmp	r2, r3
100041c2:	d1f5      	bne.n	100041b0 <cdcd_xfer_cb+0x44>
100041c4:	4648      	mov	r0, r9
100041c6:	f000 fbeb 	bl	100049a0 <tu_fifo_empty>
100041ca:	2800      	cmp	r0, #0
100041cc:	d1f0      	bne.n	100041b0 <cdcd_xfer_cb+0x44>
100041ce:	465b      	mov	r3, fp
100041d0:	7959      	ldrb	r1, [r3, #5]
100041d2:	e000      	b.n	100041d6 <cdcd_xfer_cb+0x6a>
100041d4:	bf00      	nop
100041d6:	e7eb      	b.n	100041b0 <cdcd_xfer_cb+0x44>
100041d8:	4b4a      	ldr	r3, [pc, #296]	; (10004304 <cdcd_xfer_cb+0x198>)
100041da:	2b00      	cmp	r3, #0
100041dc:	d005      	beq.n	100041ea <cdcd_xfer_cb+0x7e>
100041de:	484a      	ldr	r0, [pc, #296]	; (10004308 <cdcd_xfer_cb+0x19c>)
100041e0:	f000 fbde 	bl	100049a0 <tu_fifo_empty>
100041e4:	2800      	cmp	r0, #0
100041e6:	d100      	bne.n	100041ea <cdcd_xfer_cb+0x7e>
100041e8:	e078      	b.n	100042dc <cdcd_xfer_cb+0x170>
100041ea:	f7fe fef9 	bl	10002fe0 <tud_mounted>
100041ee:	2800      	cmp	r0, #0
100041f0:	d155      	bne.n	1000429e <cdcd_xfer_cb+0x132>
100041f2:	78a3      	ldrb	r3, [r4, #2]
100041f4:	429d      	cmp	r5, r3
100041f6:	d007      	beq.n	10004208 <cdcd_xfer_cb+0x9c>
100041f8:	2401      	movs	r4, #1
100041fa:	0020      	movs	r0, r4
100041fc:	bc3c      	pop	{r2, r3, r4, r5}
100041fe:	4690      	mov	r8, r2
10004200:	4699      	mov	r9, r3
10004202:	46a2      	mov	sl, r4
10004204:	46ab      	mov	fp, r5
10004206:	bdf8      	pop	{r3, r4, r5, r6, r7, pc}
10004208:	4b40      	ldr	r3, [pc, #256]	; (1000430c <cdcd_xfer_cb+0x1a0>)
1000420a:	2b00      	cmp	r3, #0
1000420c:	d002      	beq.n	10004214 <cdcd_xfer_cb+0xa8>
1000420e:	2000      	movs	r0, #0
10004210:	e000      	b.n	10004214 <cdcd_xfer_cb+0xa8>
10004212:	bf00      	nop
10004214:	f7fe fee4 	bl	10002fe0 <tud_mounted>
10004218:	2800      	cmp	r0, #0
1000421a:	d11d      	bne.n	10004258 <cdcd_xfer_cb+0xec>
1000421c:	4c3c      	ldr	r4, [pc, #240]	; (10004310 <cdcd_xfer_cb+0x1a4>)
1000421e:	0020      	movs	r0, r4
10004220:	f000 fbaa 	bl	10004978 <tu_fifo_count>
10004224:	2800      	cmp	r0, #0
10004226:	d1e7      	bne.n	100041f8 <cdcd_xfer_cb+0x8c>
10004228:	2e00      	cmp	r6, #0
1000422a:	d0e5      	beq.n	100041f8 <cdcd_xfer_cb+0x8c>
1000422c:	06b3      	lsls	r3, r6, #26
1000422e:	d1e3      	bne.n	100041f8 <cdcd_xfer_cb+0x8c>
10004230:	3c24      	subs	r4, #36	; 0x24
10004232:	78a1      	ldrb	r1, [r4, #2]
10004234:	4640      	mov	r0, r8
10004236:	f7ff fbe1 	bl	100039fc <usbd_edpt_claim>
1000423a:	0025      	movs	r5, r4
1000423c:	1e04      	subs	r4, r0, #0
1000423e:	d0db      	beq.n	100041f8 <cdcd_xfer_cb+0x8c>
10004240:	78a9      	ldrb	r1, [r5, #2]
10004242:	2300      	movs	r3, #0
10004244:	2200      	movs	r2, #0
10004246:	4640      	mov	r0, r8
10004248:	f7ff fc00 	bl	10003a4c <usbd_edpt_xfer>
1000424c:	e7d5      	b.n	100041fa <cdcd_xfer_cb+0x8e>
1000424e:	78a3      	ldrb	r3, [r4, #2]
10004250:	428b      	cmp	r3, r1
10004252:	d0d9      	beq.n	10004208 <cdcd_xfer_cb+0x9c>
10004254:	2400      	movs	r4, #0
10004256:	e7d0      	b.n	100041fa <cdcd_xfer_cb+0x8e>
10004258:	f7fe feca 	bl	10002ff0 <tud_suspended>
1000425c:	4c2c      	ldr	r4, [pc, #176]	; (10004310 <cdcd_xfer_cb+0x1a4>)
1000425e:	2800      	cmp	r0, #0
10004260:	d1dd      	bne.n	1000421e <cdcd_xfer_cb+0xb2>
10004262:	0020      	movs	r0, r4
10004264:	f000 fb88 	bl	10004978 <tu_fifo_count>
10004268:	2800      	cmp	r0, #0
1000426a:	d0d8      	beq.n	1000421e <cdcd_xfer_cb+0xb2>
1000426c:	0025      	movs	r5, r4
1000426e:	3d24      	subs	r5, #36	; 0x24
10004270:	78a9      	ldrb	r1, [r5, #2]
10004272:	2000      	movs	r0, #0
10004274:	f7ff fbc2 	bl	100039fc <usbd_edpt_claim>
10004278:	2800      	cmp	r0, #0
1000427a:	d0d0      	beq.n	1000421e <cdcd_xfer_cb+0xb2>
1000427c:	4f25      	ldr	r7, [pc, #148]	; (10004314 <cdcd_xfer_cb+0x1a8>)
1000427e:	2240      	movs	r2, #64	; 0x40
10004280:	0039      	movs	r1, r7
10004282:	0020      	movs	r0, r4
10004284:	f000 fbf8 	bl	10004a78 <tu_fifo_read_n>
10004288:	78a9      	ldrb	r1, [r5, #2]
1000428a:	2800      	cmp	r0, #0
1000428c:	d029      	beq.n	100042e2 <cdcd_xfer_cb+0x176>
1000428e:	0003      	movs	r3, r0
10004290:	003a      	movs	r2, r7
10004292:	2000      	movs	r0, #0
10004294:	f7ff fbda 	bl	10003a4c <usbd_edpt_xfer>
10004298:	2800      	cmp	r0, #0
1000429a:	d1ad      	bne.n	100041f8 <cdcd_xfer_cb+0x8c>
1000429c:	e7bf      	b.n	1000421e <cdcd_xfer_cb+0xb2>
1000429e:	f7fe fea7 	bl	10002ff0 <tud_suspended>
100042a2:	2800      	cmp	r0, #0
100042a4:	d1a5      	bne.n	100041f2 <cdcd_xfer_cb+0x86>
100042a6:	78e3      	ldrb	r3, [r4, #3]
100042a8:	2b00      	cmp	r3, #0
100042aa:	d0a2      	beq.n	100041f2 <cdcd_xfer_cb+0x86>
100042ac:	2310      	movs	r3, #16
100042ae:	4699      	mov	r9, r3
100042b0:	44a1      	add	r9, r4
100042b2:	4648      	mov	r0, r9
100042b4:	f000 fb7c 	bl	100049b0 <tu_fifo_remaining>
100042b8:	283f      	cmp	r0, #63	; 0x3f
100042ba:	d99a      	bls.n	100041f2 <cdcd_xfer_cb+0x86>
100042bc:	78e1      	ldrb	r1, [r4, #3]
100042be:	2000      	movs	r0, #0
100042c0:	f7ff fb9c 	bl	100039fc <usbd_edpt_claim>
100042c4:	2800      	cmp	r0, #0
100042c6:	d094      	beq.n	100041f2 <cdcd_xfer_cb+0x86>
100042c8:	4648      	mov	r0, r9
100042ca:	f000 fb71 	bl	100049b0 <tu_fifo_remaining>
100042ce:	78e1      	ldrb	r1, [r4, #3]
100042d0:	283f      	cmp	r0, #63	; 0x3f
100042d2:	d80a      	bhi.n	100042ea <cdcd_xfer_cb+0x17e>
100042d4:	2000      	movs	r0, #0
100042d6:	f7ff fba5 	bl	10003a24 <usbd_edpt_release>
100042da:	e78a      	b.n	100041f2 <cdcd_xfer_cb+0x86>
100042dc:	e000      	b.n	100042e0 <cdcd_xfer_cb+0x174>
100042de:	bf00      	nop
100042e0:	e783      	b.n	100041ea <cdcd_xfer_cb+0x7e>
100042e2:	2000      	movs	r0, #0
100042e4:	f7ff fb9e 	bl	10003a24 <usbd_edpt_release>
100042e8:	e799      	b.n	1000421e <cdcd_xfer_cb+0xb2>
100042ea:	2340      	movs	r3, #64	; 0x40
100042ec:	003a      	movs	r2, r7
100042ee:	2000      	movs	r0, #0
100042f0:	f7ff fbac 	bl	10003a4c <usbd_edpt_xfer>
100042f4:	78a3      	ldrb	r3, [r4, #2]
100042f6:	e77d      	b.n	100041f4 <cdcd_xfer_cb+0x88>
100042f8:	20001434 	.word	0x20001434
100042fc:	200013b0 	.word	0x200013b0
	...
10004308:	20001444 	.word	0x20001444
1000430c:	00000000 	.word	0x00000000
10004310:	20001458 	.word	0x20001458
10004314:	200013f0 	.word	0x200013f0

10004318 <vendord_init>:
10004318:	2293      	movs	r2, #147	; 0x93
1000431a:	b5f0      	push	{r4, r5, r6, r7, lr}
1000431c:	4c13      	ldr	r4, [pc, #76]	; (1000436c <vendord_init+0x54>)
1000431e:	b085      	sub	sp, #20
10004320:	0092      	lsls	r2, r2, #2
10004322:	2100      	movs	r1, #0
10004324:	0020      	movs	r0, r4
10004326:	f7fd ff51 	bl	100021cc <__wrap_memset>
1000432a:	0023      	movs	r3, r4
1000432c:	0020      	movs	r0, r4
1000432e:	2680      	movs	r6, #128	; 0x80
10004330:	2740      	movs	r7, #64	; 0x40
10004332:	4d0f      	ldr	r5, [pc, #60]	; (10004370 <vendord_init+0x58>)
10004334:	334d      	adds	r3, #77	; 0x4d
10004336:	0076      	lsls	r6, r6, #1
10004338:	33ff      	adds	r3, #255	; 0xff
1000433a:	3029      	adds	r0, #41	; 0x29
1000433c:	9502      	str	r5, [sp, #8]
1000433e:	9300      	str	r3, [sp, #0]
10004340:	9703      	str	r7, [sp, #12]
10004342:	9601      	str	r6, [sp, #4]
10004344:	2300      	movs	r3, #0
10004346:	2200      	movs	r2, #0
10004348:	2100      	movs	r1, #0
1000434a:	30ff      	adds	r0, #255	; 0xff
1000434c:	f000 f9c8 	bl	100046e0 <tu_edpt_stream_init>
10004350:	3540      	adds	r5, #64	; 0x40
10004352:	1d20      	adds	r0, r4, #4
10004354:	3428      	adds	r4, #40	; 0x28
10004356:	9703      	str	r7, [sp, #12]
10004358:	9502      	str	r5, [sp, #8]
1000435a:	9601      	str	r6, [sp, #4]
1000435c:	9400      	str	r4, [sp, #0]
1000435e:	2300      	movs	r3, #0
10004360:	2201      	movs	r2, #1
10004362:	2100      	movs	r1, #0
10004364:	f000 f9bc 	bl	100046e0 <tu_edpt_stream_init>
10004368:	b005      	add	sp, #20
1000436a:	bdf0      	pop	{r4, r5, r6, r7, pc}
1000436c:	20001638 	.word	0x20001638
10004370:	200015b8 	.word	0x200015b8

10004374 <vendord_deinit>:
10004374:	b510      	push	{r4, lr}
10004376:	4c05      	ldr	r4, [pc, #20]	; (1000438c <vendord_deinit+0x18>)
10004378:	0020      	movs	r0, r4
1000437a:	f000 f9e9 	bl	10004750 <tu_edpt_stream_deinit>
1000437e:	0020      	movs	r0, r4
10004380:	3825      	subs	r0, #37	; 0x25
10004382:	38ff      	subs	r0, #255	; 0xff
10004384:	f000 f9e4 	bl	10004750 <tu_edpt_stream_deinit>
10004388:	2001      	movs	r0, #1
1000438a:	bd10      	pop	{r4, pc}
1000438c:	20001760 	.word	0x20001760

10004390 <vendord_reset>:
10004390:	b570      	push	{r4, r5, r6, lr}
10004392:	4c08      	ldr	r4, [pc, #32]	; (100043b4 <vendord_reset+0x24>)
10004394:	2500      	movs	r5, #0
10004396:	0020      	movs	r0, r4
10004398:	3031      	adds	r0, #49	; 0x31
1000439a:	7025      	strb	r5, [r4, #0]
1000439c:	30ff      	adds	r0, #255	; 0xff
1000439e:	f000 fcc1 	bl	10004d24 <tu_fifo_clear>
100043a2:	0020      	movs	r0, r4
100043a4:	300c      	adds	r0, #12
100043a6:	f000 fcbd 	bl	10004d24 <tu_fifo_clear>
100043aa:	232a      	movs	r3, #42	; 0x2a
100043ac:	33ff      	adds	r3, #255	; 0xff
100043ae:	54e5      	strb	r5, [r4, r3]
100043b0:	7165      	strb	r5, [r4, #5]
100043b2:	bd70      	pop	{r4, r5, r6, pc}
100043b4:	20001638 	.word	0x20001638

100043b8 <vendord_open>:
100043b8:	b5f8      	push	{r3, r4, r5, r6, r7, lr}
100043ba:	464e      	mov	r6, r9
100043bc:	4645      	mov	r5, r8
100043be:	46de      	mov	lr, fp
100043c0:	4657      	mov	r7, sl
100043c2:	b5e0      	push	{r5, r6, r7, lr}
100043c4:	794b      	ldrb	r3, [r1, #5]
100043c6:	4681      	mov	r9, r0
100043c8:	4688      	mov	r8, r1
100043ca:	2bff      	cmp	r3, #255	; 0xff
100043cc:	d006      	beq.n	100043dc <vendord_open+0x24>
100043ce:	2000      	movs	r0, #0
100043d0:	bc3c      	pop	{r2, r3, r4, r5}
100043d2:	4690      	mov	r8, r2
100043d4:	4699      	mov	r9, r3
100043d6:	46a2      	mov	sl, r4
100043d8:	46ab      	mov	fp, r5
100043da:	bdf8      	pop	{r3, r4, r5, r6, r7, pc}
100043dc:	232a      	movs	r3, #42	; 0x2a
100043de:	4f3d      	ldr	r7, [pc, #244]	; (100044d4 <vendord_open+0x11c>)
100043e0:	33ff      	adds	r3, #255	; 0xff
100043e2:	5cfb      	ldrb	r3, [r7, r3]
100043e4:	2b00      	cmp	r3, #0
100043e6:	d1f2      	bne.n	100043ce <vendord_open+0x16>
100043e8:	797e      	ldrb	r6, [r7, #5]
100043ea:	2e00      	cmp	r6, #0
100043ec:	d1ef      	bne.n	100043ce <vendord_open+0x16>
100043ee:	788b      	ldrb	r3, [r1, #2]
100043f0:	780c      	ldrb	r4, [r1, #0]
100043f2:	703b      	strb	r3, [r7, #0]
100043f4:	790b      	ldrb	r3, [r1, #4]
100043f6:	4444      	add	r4, r8
100043f8:	2b00      	cmp	r3, #0
100043fa:	d013      	beq.n	10004424 <vendord_open+0x6c>
100043fc:	2398      	movs	r3, #152	; 0x98
100043fe:	005b      	lsls	r3, r3, #1
10004400:	469a      	mov	sl, r3
10004402:	3b25      	subs	r3, #37	; 0x25
10004404:	3bff      	subs	r3, #255	; 0xff
10004406:	469b      	mov	fp, r3
10004408:	18a5      	adds	r5, r4, r2
1000440a:	44ba      	add	sl, r7
1000440c:	44bb      	add	fp, r7
1000440e:	7863      	ldrb	r3, [r4, #1]
10004410:	2b05      	cmp	r3, #5
10004412:	d105      	bne.n	10004420 <vendord_open+0x68>
10004414:	e00a      	b.n	1000442c <vendord_open+0x74>
10004416:	7823      	ldrb	r3, [r4, #0]
10004418:	18e4      	adds	r4, r4, r3
1000441a:	7863      	ldrb	r3, [r4, #1]
1000441c:	2b05      	cmp	r3, #5
1000441e:	d005      	beq.n	1000442c <vendord_open+0x74>
10004420:	42a5      	cmp	r5, r4
10004422:	d8f8      	bhi.n	10004416 <vendord_open+0x5e>
10004424:	4643      	mov	r3, r8
10004426:	1ae0      	subs	r0, r4, r3
10004428:	b280      	uxth	r0, r0
1000442a:	e7d1      	b.n	100043d0 <vendord_open+0x18>
1000442c:	42a5      	cmp	r5, r4
1000442e:	d9f9      	bls.n	10004424 <vendord_open+0x6c>
10004430:	0021      	movs	r1, r4
10004432:	4648      	mov	r0, r9
10004434:	f7ff fac6 	bl	100039c4 <usbd_edpt_open>
10004438:	2800      	cmp	r0, #0
1000443a:	d0c8      	beq.n	100043ce <vendord_open+0x16>
1000443c:	78a3      	ldrb	r3, [r4, #2]
1000443e:	3601      	adds	r6, #1
10004440:	b2f6      	uxtb	r6, r6
10004442:	09db      	lsrs	r3, r3, #7
10004444:	2b01      	cmp	r3, #1
10004446:	d027      	beq.n	10004498 <vendord_open+0xe0>
10004448:	4650      	mov	r0, sl
1000444a:	f000 fc6b 	bl	10004d24 <tu_fifo_clear>
1000444e:	232a      	movs	r3, #42	; 0x2a
10004450:	78a2      	ldrb	r2, [r4, #2]
10004452:	33ff      	adds	r3, #255	; 0xff
10004454:	54fa      	strb	r2, [r7, r3]
10004456:	7963      	ldrb	r3, [r4, #5]
10004458:	7922      	ldrb	r2, [r4, #4]
1000445a:	021b      	lsls	r3, r3, #8
1000445c:	4313      	orrs	r3, r2
1000445e:	4a1e      	ldr	r2, [pc, #120]	; (100044d8 <vendord_open+0x120>)
10004460:	055b      	lsls	r3, r3, #21
10004462:	4694      	mov	ip, r2
10004464:	2194      	movs	r1, #148	; 0x94
10004466:	0d5b      	lsrs	r3, r3, #21
10004468:	4463      	add	r3, ip
1000446a:	425a      	negs	r2, r3
1000446c:	4153      	adcs	r3, r2
1000446e:	2002      	movs	r0, #2
10004470:	0049      	lsls	r1, r1, #1
10004472:	5c7a      	ldrb	r2, [r7, r1]
10004474:	005b      	lsls	r3, r3, #1
10004476:	4382      	bics	r2, r0
10004478:	4313      	orrs	r3, r2
1000447a:	547b      	strb	r3, [r7, r1]
1000447c:	4651      	mov	r1, sl
1000447e:	4648      	mov	r0, r9
10004480:	3908      	subs	r1, #8
10004482:	f000 f9cd 	bl	10004820 <tu_edpt_stream_read_xfer>
10004486:	2800      	cmp	r0, #0
10004488:	d0a1      	beq.n	100043ce <vendord_open+0x16>
1000448a:	7823      	ldrb	r3, [r4, #0]
1000448c:	18e4      	adds	r4, r4, r3
1000448e:	4643      	mov	r3, r8
10004490:	791b      	ldrb	r3, [r3, #4]
10004492:	42b3      	cmp	r3, r6
10004494:	d8bb      	bhi.n	1000440e <vendord_open+0x56>
10004496:	e7c5      	b.n	10004424 <vendord_open+0x6c>
10004498:	4658      	mov	r0, fp
1000449a:	f000 fc43 	bl	10004d24 <tu_fifo_clear>
1000449e:	465a      	mov	r2, fp
100044a0:	78a3      	ldrb	r3, [r4, #2]
100044a2:	3a0c      	subs	r2, #12
100044a4:	7153      	strb	r3, [r2, #5]
100044a6:	7963      	ldrb	r3, [r4, #5]
100044a8:	7921      	ldrb	r1, [r4, #4]
100044aa:	021b      	lsls	r3, r3, #8
100044ac:	430b      	orrs	r3, r1
100044ae:	490a      	ldr	r1, [pc, #40]	; (100044d8 <vendord_open+0x120>)
100044b0:	055b      	lsls	r3, r3, #21
100044b2:	468c      	mov	ip, r1
100044b4:	0d5b      	lsrs	r3, r3, #21
100044b6:	4463      	add	r3, ip
100044b8:	4259      	negs	r1, r3
100044ba:	414b      	adcs	r3, r1
100044bc:	2002      	movs	r0, #2
100044be:	7911      	ldrb	r1, [r2, #4]
100044c0:	005b      	lsls	r3, r3, #1
100044c2:	4381      	bics	r1, r0
100044c4:	430b      	orrs	r3, r1
100044c6:	4659      	mov	r1, fp
100044c8:	7113      	strb	r3, [r2, #4]
100044ca:	3908      	subs	r1, #8
100044cc:	2000      	movs	r0, #0
100044ce:	f000 f975 	bl	100047bc <tu_edpt_stream_write_xfer>
100044d2:	e7da      	b.n	1000448a <vendord_open+0xd2>
100044d4:	20001638 	.word	0x20001638
100044d8:	fffffe00 	.word	0xfffffe00

100044dc <vendord_xfer_cb>:
100044dc:	b5f8      	push	{r3, r4, r5, r6, r7, lr}
100044de:	001c      	movs	r4, r3
100044e0:	232a      	movs	r3, #42	; 0x2a
100044e2:	0005      	movs	r5, r0
100044e4:	481e      	ldr	r0, [pc, #120]	; (10004560 <vendord_xfer_cb+0x84>)
100044e6:	33ff      	adds	r3, #255	; 0xff
100044e8:	5cc3      	ldrb	r3, [r0, r3]
100044ea:	428b      	cmp	r3, r1
100044ec:	d113      	bne.n	10004516 <vendord_xfer_cb+0x3a>
100044ee:	239a      	movs	r3, #154	; 0x9a
100044f0:	005b      	lsls	r3, r3, #1
100044f2:	5ac3      	ldrh	r3, [r0, r3]
100044f4:	2b00      	cmp	r3, #0
100044f6:	d129      	bne.n	1000454c <vendord_xfer_cb+0x70>
100044f8:	4b1a      	ldr	r3, [pc, #104]	; (10004564 <vendord_xfer_cb+0x88>)
100044fa:	2b00      	cmp	r3, #0
100044fc:	d004      	beq.n	10004508 <vendord_xfer_cb+0x2c>
100044fe:	b2a2      	uxth	r2, r4
10004500:	4919      	ldr	r1, [pc, #100]	; (10004568 <vendord_xfer_cb+0x8c>)
10004502:	2000      	movs	r0, #0
10004504:	e000      	b.n	10004508 <vendord_xfer_cb+0x2c>
10004506:	bf00      	nop
10004508:	4918      	ldr	r1, [pc, #96]	; (1000456c <vendord_xfer_cb+0x90>)
1000450a:	0028      	movs	r0, r5
1000450c:	f000 f988 	bl	10004820 <tu_edpt_stream_read_xfer>
10004510:	2601      	movs	r6, #1
10004512:	0030      	movs	r0, r6
10004514:	bdf8      	pop	{r3, r4, r5, r6, r7, pc}
10004516:	7943      	ldrb	r3, [r0, #5]
10004518:	428b      	cmp	r3, r1
1000451a:	d001      	beq.n	10004520 <vendord_xfer_cb+0x44>
1000451c:	2600      	movs	r6, #0
1000451e:	e7f8      	b.n	10004512 <vendord_xfer_cb+0x36>
10004520:	4b13      	ldr	r3, [pc, #76]	; (10004570 <vendord_xfer_cb+0x94>)
10004522:	2b00      	cmp	r3, #0
10004524:	d004      	beq.n	10004530 <vendord_xfer_cb+0x54>
10004526:	0421      	lsls	r1, r4, #16
10004528:	0c09      	lsrs	r1, r1, #16
1000452a:	2000      	movs	r0, #0
1000452c:	e000      	b.n	10004530 <vendord_xfer_cb+0x54>
1000452e:	bf00      	nop
10004530:	4f10      	ldr	r7, [pc, #64]	; (10004574 <vendord_xfer_cb+0x98>)
10004532:	0028      	movs	r0, r5
10004534:	0039      	movs	r1, r7
10004536:	f000 f941 	bl	100047bc <tu_edpt_stream_write_xfer>
1000453a:	2601      	movs	r6, #1
1000453c:	2800      	cmp	r0, #0
1000453e:	d1e8      	bne.n	10004512 <vendord_xfer_cb+0x36>
10004540:	0022      	movs	r2, r4
10004542:	0039      	movs	r1, r7
10004544:	0028      	movs	r0, r5
10004546:	f000 f905 	bl	10004754 <tu_edpt_stream_write_zlp_if_needed>
1000454a:	e7e2      	b.n	10004512 <vendord_xfer_cb+0x36>
1000454c:	2396      	movs	r3, #150	; 0x96
1000454e:	005b      	lsls	r3, r3, #1
10004550:	58c1      	ldr	r1, [r0, r3]
10004552:	3031      	adds	r0, #49	; 0x31
10004554:	b2a2      	uxth	r2, r4
10004556:	30ff      	adds	r0, #255	; 0xff
10004558:	f000 fb4c 	bl	10004bf4 <tu_fifo_write_n>
1000455c:	e7cc      	b.n	100044f8 <vendord_xfer_cb+0x1c>
1000455e:	46c0      	nop			; (mov r8, r8)
10004560:	20001638 	.word	0x20001638
10004564:	00000000 	.word	0x00000000
10004568:	200015b8 	.word	0x200015b8
1000456c:	20001760 	.word	0x20001760
10004570:	00000000 	.word	0x00000000
10004574:	2000163c 	.word	0x2000163c

10004578 <tusb_rhport_init>:
10004578:	b510      	push	{r4, lr}
1000457a:	0003      	movs	r3, r0
1000457c:	b082      	sub	sp, #8
1000457e:	2900      	cmp	r1, #0
10004580:	d011      	beq.n	100045a6 <tusb_rhport_init+0x2e>
10004582:	2000      	movs	r0, #0
10004584:	2b01      	cmp	r3, #1
10004586:	d901      	bls.n	1000458c <tusb_rhport_init+0x14>
10004588:	b002      	add	sp, #8
1000458a:	bd10      	pop	{r4, pc}
1000458c:	780a      	ldrb	r2, [r1, #0]
1000458e:	2a00      	cmp	r2, #0
10004590:	d0fa      	beq.n	10004588 <tusb_rhport_init+0x10>
10004592:	480b      	ldr	r0, [pc, #44]	; (100045c0 <tusb_rhport_init+0x48>)
10004594:	54c2      	strb	r2, [r0, r3]
10004596:	780a      	ldrb	r2, [r1, #0]
10004598:	2001      	movs	r0, #1
1000459a:	2a01      	cmp	r2, #1
1000459c:	d1f4      	bne.n	10004588 <tusb_rhport_init+0x10>
1000459e:	0018      	movs	r0, r3
100045a0:	f7fe fd2e 	bl	10003000 <tud_rhport_init>
100045a4:	e7f0      	b.n	10004588 <tusb_rhport_init+0x10>
100045a6:	2401      	movs	r4, #1
100045a8:	ab01      	add	r3, sp, #4
100045aa:	7059      	strb	r1, [r3, #1]
100045ac:	2000      	movs	r0, #0
100045ae:	0019      	movs	r1, r3
100045b0:	701c      	strb	r4, [r3, #0]
100045b2:	f7fe fd25 	bl	10003000 <tud_rhport_init>
100045b6:	2800      	cmp	r0, #0
100045b8:	d0e6      	beq.n	10004588 <tusb_rhport_init+0x10>
100045ba:	4b01      	ldr	r3, [pc, #4]	; (100045c0 <tusb_rhport_init+0x48>)
100045bc:	701c      	strb	r4, [r3, #0]
100045be:	e7e3      	b.n	10004588 <tusb_rhport_init+0x10>
100045c0:	20001550 	.word	0x20001550

100045c4 <tu_edpt_claim>:
100045c4:	7803      	ldrb	r3, [r0, #0]
100045c6:	b570      	push	{r4, r5, r6, lr}
100045c8:	0004      	movs	r4, r0
100045ca:	000e      	movs	r6, r1
100045cc:	2500      	movs	r5, #0
100045ce:	07db      	lsls	r3, r3, #31
100045d0:	d402      	bmi.n	100045d8 <tu_edpt_claim+0x14>
100045d2:	7803      	ldrb	r3, [r0, #0]
100045d4:	075b      	lsls	r3, r3, #29
100045d6:	d501      	bpl.n	100045dc <tu_edpt_claim+0x18>
100045d8:	0028      	movs	r0, r5
100045da:	bd70      	pop	{r4, r5, r6, pc}
100045dc:	2101      	movs	r1, #1
100045de:	0030      	movs	r0, r6
100045e0:	4249      	negs	r1, r1
100045e2:	f000 fc51 	bl	10004e88 <__mutex_enter_timeout_ms_veneer>
100045e6:	7823      	ldrb	r3, [r4, #0]
100045e8:	07db      	lsls	r3, r3, #31
100045ea:	d407      	bmi.n	100045fc <tu_edpt_claim+0x38>
100045ec:	7823      	ldrb	r3, [r4, #0]
100045ee:	075b      	lsls	r3, r3, #29
100045f0:	d404      	bmi.n	100045fc <tu_edpt_claim+0x38>
100045f2:	2204      	movs	r2, #4
100045f4:	2501      	movs	r5, #1
100045f6:	7823      	ldrb	r3, [r4, #0]
100045f8:	4313      	orrs	r3, r2
100045fa:	7023      	strb	r3, [r4, #0]
100045fc:	0030      	movs	r0, r6
100045fe:	f000 fc23 	bl	10004e48 <__mutex_exit_veneer>
10004602:	e7e9      	b.n	100045d8 <tu_edpt_claim+0x14>

10004604 <tu_edpt_release>:
10004604:	b570      	push	{r4, r5, r6, lr}
10004606:	000d      	movs	r5, r1
10004608:	2101      	movs	r1, #1
1000460a:	0004      	movs	r4, r0
1000460c:	4249      	negs	r1, r1
1000460e:	0028      	movs	r0, r5
10004610:	f000 fc3a 	bl	10004e88 <__mutex_enter_timeout_ms_veneer>
10004614:	7823      	ldrb	r3, [r4, #0]
10004616:	2600      	movs	r6, #0
10004618:	075b      	lsls	r3, r3, #29
1000461a:	d404      	bmi.n	10004626 <tu_edpt_release+0x22>
1000461c:	0028      	movs	r0, r5
1000461e:	f000 fc13 	bl	10004e48 <__mutex_exit_veneer>
10004622:	0030      	movs	r0, r6
10004624:	bd70      	pop	{r4, r5, r6, pc}
10004626:	7823      	ldrb	r3, [r4, #0]
10004628:	07db      	lsls	r3, r3, #31
1000462a:	d4f7      	bmi.n	1000461c <tu_edpt_release+0x18>
1000462c:	2204      	movs	r2, #4
1000462e:	7823      	ldrb	r3, [r4, #0]
10004630:	3601      	adds	r6, #1
10004632:	4393      	bics	r3, r2
10004634:	7023      	strb	r3, [r4, #0]
10004636:	e7f1      	b.n	1000461c <tu_edpt_release+0x18>

10004638 <tu_edpt_validate>:
10004638:	7943      	ldrb	r3, [r0, #5]
1000463a:	7902      	ldrb	r2, [r0, #4]
1000463c:	021b      	lsls	r3, r3, #8
1000463e:	4313      	orrs	r3, r2
10004640:	78c2      	ldrb	r2, [r0, #3]
10004642:	055b      	lsls	r3, r3, #21
10004644:	0792      	lsls	r2, r2, #30
10004646:	0d5b      	lsrs	r3, r3, #21
10004648:	0f92      	lsrs	r2, r2, #30
1000464a:	2a02      	cmp	r2, #2
1000464c:	d01b      	beq.n	10004686 <tu_edpt_validate+0x4e>
1000464e:	d80d      	bhi.n	1000466c <tu_edpt_validate+0x34>
10004650:	2000      	movs	r0, #0
10004652:	2a01      	cmp	r2, #1
10004654:	d109      	bne.n	1000466a <tu_edpt_validate+0x32>
10004656:	3902      	subs	r1, #2
10004658:	424a      	negs	r2, r1
1000465a:	4151      	adcs	r1, r2
1000465c:	4a11      	ldr	r2, [pc, #68]	; (100046a4 <tu_edpt_validate+0x6c>)
1000465e:	2000      	movs	r0, #0
10004660:	4694      	mov	ip, r2
10004662:	4461      	add	r1, ip
10004664:	4299      	cmp	r1, r3
10004666:	4140      	adcs	r0, r0
10004668:	b2c0      	uxtb	r0, r0
1000466a:	4770      	bx	lr
1000466c:	3902      	subs	r1, #2
1000466e:	424a      	negs	r2, r1
10004670:	4151      	adcs	r1, r2
10004672:	22f0      	movs	r2, #240	; 0xf0
10004674:	2000      	movs	r0, #0
10004676:	4249      	negs	r1, r1
10004678:	0092      	lsls	r2, r2, #2
1000467a:	4011      	ands	r1, r2
1000467c:	3140      	adds	r1, #64	; 0x40
1000467e:	4299      	cmp	r1, r3
10004680:	4140      	adcs	r0, r0
10004682:	b2c0      	uxtb	r0, r0
10004684:	e7f1      	b.n	1000466a <tu_edpt_validate+0x32>
10004686:	2902      	cmp	r1, #2
10004688:	d005      	beq.n	10004696 <tu_edpt_validate+0x5e>
1000468a:	2000      	movs	r0, #0
1000468c:	2240      	movs	r2, #64	; 0x40
1000468e:	429a      	cmp	r2, r3
10004690:	4140      	adcs	r0, r0
10004692:	b2c0      	uxtb	r0, r0
10004694:	e7e9      	b.n	1000466a <tu_edpt_validate+0x32>
10004696:	4a04      	ldr	r2, [pc, #16]	; (100046a8 <tu_edpt_validate+0x70>)
10004698:	4694      	mov	ip, r2
1000469a:	4463      	add	r3, ip
1000469c:	4258      	negs	r0, r3
1000469e:	4158      	adcs	r0, r3
100046a0:	b2c0      	uxtb	r0, r0
100046a2:	e7e2      	b.n	1000466a <tu_edpt_validate+0x32>
100046a4:	000003ff 	.word	0x000003ff
100046a8:	fffffe00 	.word	0xfffffe00

100046ac <tu_edpt_bind_driver>:
100046ac:	188a      	adds	r2, r1, r2
100046ae:	b570      	push	{r4, r5, r6, lr}
100046b0:	267f      	movs	r6, #127	; 0x7f
100046b2:	4291      	cmp	r1, r2
100046b4:	d206      	bcs.n	100046c4 <tu_edpt_bind_driver+0x18>
100046b6:	784c      	ldrb	r4, [r1, #1]
100046b8:	2c05      	cmp	r4, #5
100046ba:	d004      	beq.n	100046c6 <tu_edpt_bind_driver+0x1a>
100046bc:	780c      	ldrb	r4, [r1, #0]
100046be:	1909      	adds	r1, r1, r4
100046c0:	428a      	cmp	r2, r1
100046c2:	d8f8      	bhi.n	100046b6 <tu_edpt_bind_driver+0xa>
100046c4:	bd70      	pop	{r4, r5, r6, pc}
100046c6:	0034      	movs	r4, r6
100046c8:	788d      	ldrb	r5, [r1, #2]
100046ca:	402c      	ands	r4, r5
100046cc:	0064      	lsls	r4, r4, #1
100046ce:	1904      	adds	r4, r0, r4
100046d0:	09ed      	lsrs	r5, r5, #7
100046d2:	5563      	strb	r3, [r4, r5]
100046d4:	780c      	ldrb	r4, [r1, #0]
100046d6:	1909      	adds	r1, r1, r4
100046d8:	428a      	cmp	r2, r1
100046da:	d8ec      	bhi.n	100046b6 <tu_edpt_bind_driver+0xa>
100046dc:	e7f2      	b.n	100046c4 <tu_edpt_bind_driver+0x18>
100046de:	46c0      	nop			; (mov r8, r8)

100046e0 <tu_edpt_stream_init>:
100046e0:	b5f0      	push	{r4, r5, r6, r7, lr}
100046e2:	46c6      	mov	lr, r8
100046e4:	b500      	push	{lr}
100046e6:	b082      	sub	sp, #8
100046e8:	4690      	mov	r8, r2
100046ea:	aa08      	add	r2, sp, #32
100046ec:	ca20      	ldmia	r2!, {r5}
100046ee:	0004      	movs	r4, r0
100046f0:	8816      	ldrh	r6, [r2, #0]
100046f2:	aa0b      	add	r2, sp, #44	; 0x2c
100046f4:	2001      	movs	r0, #1
100046f6:	8817      	ldrh	r7, [r2, #0]
100046f8:	000a      	movs	r2, r1
100046fa:	7821      	ldrb	r1, [r4, #0]
100046fc:	4002      	ands	r2, r0
100046fe:	4381      	bics	r1, r0
10004700:	0020      	movs	r0, r4
10004702:	4311      	orrs	r1, r2
10004704:	7021      	strb	r1, [r4, #0]
10004706:	9300      	str	r3, [sp, #0]
10004708:	3008      	adds	r0, #8
1000470a:	2301      	movs	r3, #1
1000470c:	0032      	movs	r2, r6
1000470e:	0029      	movs	r1, r5
10004710:	f000 f8f2 	bl	100048f8 <tu_fifo_config>
10004714:	2d00      	cmp	r5, #0
10004716:	d001      	beq.n	1000471c <tu_edpt_stream_init+0x3c>
10004718:	2e00      	cmp	r6, #0
1000471a:	d107      	bne.n	1000472c <tu_edpt_stream_init+0x4c>
1000471c:	2001      	movs	r0, #1
1000471e:	9b0a      	ldr	r3, [sp, #40]	; 0x28
10004720:	8067      	strh	r7, [r4, #2]
10004722:	6063      	str	r3, [r4, #4]
10004724:	b002      	add	sp, #8
10004726:	bc04      	pop	{r2}
10004728:	4690      	mov	r8, r2
1000472a:	bdf0      	pop	{r4, r5, r6, r7, pc}
1000472c:	0025      	movs	r5, r4
1000472e:	351c      	adds	r5, #28
10004730:	0028      	movs	r0, r5
10004732:	f7fc fc59 	bl	10000fe8 <mutex_init>
10004736:	4642      	mov	r2, r8
10004738:	2300      	movs	r3, #0
1000473a:	2a00      	cmp	r2, #0
1000473c:	d002      	beq.n	10004744 <tu_edpt_stream_init+0x64>
1000473e:	6165      	str	r5, [r4, #20]
10004740:	61a3      	str	r3, [r4, #24]
10004742:	e7eb      	b.n	1000471c <tu_edpt_stream_init+0x3c>
10004744:	002b      	movs	r3, r5
10004746:	2500      	movs	r5, #0
10004748:	61a3      	str	r3, [r4, #24]
1000474a:	6165      	str	r5, [r4, #20]
1000474c:	e7e6      	b.n	1000471c <tu_edpt_stream_init+0x3c>
1000474e:	46c0      	nop			; (mov r8, r8)

10004750 <tu_edpt_stream_deinit>:
10004750:	2001      	movs	r0, #1
10004752:	4770      	bx	lr

10004754 <tu_edpt_stream_write_zlp_if_needed>:
10004754:	b5f8      	push	{r3, r4, r5, r6, r7, lr}
10004756:	2402      	movs	r4, #2
10004758:	780b      	ldrb	r3, [r1, #0]
1000475a:	0007      	movs	r7, r0
1000475c:	401c      	ands	r4, r3
1000475e:	4263      	negs	r3, r4
10004760:	415c      	adcs	r4, r3
10004762:	4b14      	ldr	r3, [pc, #80]	; (100047b4 <tu_edpt_stream_write_zlp_if_needed+0x60>)
10004764:	4264      	negs	r4, r4
10004766:	401c      	ands	r4, r3
10004768:	4b13      	ldr	r3, [pc, #76]	; (100047b8 <tu_edpt_stream_write_zlp_if_needed+0x64>)
1000476a:	0008      	movs	r0, r1
1000476c:	469c      	mov	ip, r3
1000476e:	3008      	adds	r0, #8
10004770:	000d      	movs	r5, r1
10004772:	0016      	movs	r6, r2
10004774:	4464      	add	r4, ip
10004776:	f000 f8ff 	bl	10004978 <tu_fifo_count>
1000477a:	2800      	cmp	r0, #0
1000477c:	d117      	bne.n	100047ae <tu_edpt_stream_write_zlp_if_needed+0x5a>
1000477e:	2e00      	cmp	r6, #0
10004780:	d015      	beq.n	100047ae <tu_edpt_stream_write_zlp_if_needed+0x5a>
10004782:	4234      	tst	r4, r6
10004784:	d113      	bne.n	100047ae <tu_edpt_stream_write_zlp_if_needed+0x5a>
10004786:	2401      	movs	r4, #1
10004788:	782b      	ldrb	r3, [r5, #0]
1000478a:	421c      	tst	r4, r3
1000478c:	d10f      	bne.n	100047ae <tu_edpt_stream_write_zlp_if_needed+0x5a>
1000478e:	7869      	ldrb	r1, [r5, #1]
10004790:	0038      	movs	r0, r7
10004792:	f7ff f933 	bl	100039fc <usbd_edpt_claim>
10004796:	2800      	cmp	r0, #0
10004798:	d009      	beq.n	100047ae <tu_edpt_stream_write_zlp_if_needed+0x5a>
1000479a:	782b      	ldrb	r3, [r5, #0]
1000479c:	421c      	tst	r4, r3
1000479e:	d106      	bne.n	100047ae <tu_edpt_stream_write_zlp_if_needed+0x5a>
100047a0:	7869      	ldrb	r1, [r5, #1]
100047a2:	2300      	movs	r3, #0
100047a4:	2200      	movs	r2, #0
100047a6:	0038      	movs	r0, r7
100047a8:	f7ff f950 	bl	10003a4c <usbd_edpt_xfer>
100047ac:	e000      	b.n	100047b0 <tu_edpt_stream_write_zlp_if_needed+0x5c>
100047ae:	2000      	movs	r0, #0
100047b0:	bdf8      	pop	{r3, r4, r5, r6, r7, pc}
100047b2:	46c0      	nop			; (mov r8, r8)
100047b4:	fffffe40 	.word	0xfffffe40
100047b8:	000001ff 	.word	0x000001ff

100047bc <tu_edpt_stream_write_xfer>:
100047bc:	b5f8      	push	{r3, r4, r5, r6, r7, lr}
100047be:	000d      	movs	r5, r1
100047c0:	3508      	adds	r5, #8
100047c2:	0006      	movs	r6, r0
100047c4:	0028      	movs	r0, r5
100047c6:	000c      	movs	r4, r1
100047c8:	f000 f8d6 	bl	10004978 <tu_fifo_count>
100047cc:	2800      	cmp	r0, #0
100047ce:	d003      	beq.n	100047d8 <tu_edpt_stream_write_xfer+0x1c>
100047d0:	2701      	movs	r7, #1
100047d2:	7823      	ldrb	r3, [r4, #0]
100047d4:	421f      	tst	r7, r3
100047d6:	d001      	beq.n	100047dc <tu_edpt_stream_write_xfer+0x20>
100047d8:	2000      	movs	r0, #0
100047da:	bdf8      	pop	{r3, r4, r5, r6, r7, pc}
100047dc:	7861      	ldrb	r1, [r4, #1]
100047de:	0030      	movs	r0, r6
100047e0:	f7ff f90c 	bl	100039fc <usbd_edpt_claim>
100047e4:	2800      	cmp	r0, #0
100047e6:	d0f7      	beq.n	100047d8 <tu_edpt_stream_write_xfer+0x1c>
100047e8:	0028      	movs	r0, r5
100047ea:	8862      	ldrh	r2, [r4, #2]
100047ec:	6861      	ldr	r1, [r4, #4]
100047ee:	f000 f943 	bl	10004a78 <tu_fifo_read_n>
100047f2:	7823      	ldrb	r3, [r4, #0]
100047f4:	1e05      	subs	r5, r0, #0
100047f6:	d00b      	beq.n	10004810 <tu_edpt_stream_write_xfer+0x54>
100047f8:	421f      	tst	r7, r3
100047fa:	d1ed      	bne.n	100047d8 <tu_edpt_stream_write_xfer+0x1c>
100047fc:	0003      	movs	r3, r0
100047fe:	6862      	ldr	r2, [r4, #4]
10004800:	7861      	ldrb	r1, [r4, #1]
10004802:	0030      	movs	r0, r6
10004804:	f7ff f922 	bl	10003a4c <usbd_edpt_xfer>
10004808:	2800      	cmp	r0, #0
1000480a:	d0e5      	beq.n	100047d8 <tu_edpt_stream_write_xfer+0x1c>
1000480c:	0028      	movs	r0, r5
1000480e:	e7e4      	b.n	100047da <tu_edpt_stream_write_xfer+0x1e>
10004810:	421f      	tst	r7, r3
10004812:	d1e1      	bne.n	100047d8 <tu_edpt_stream_write_xfer+0x1c>
10004814:	7861      	ldrb	r1, [r4, #1]
10004816:	0030      	movs	r0, r6
10004818:	f7ff f904 	bl	10003a24 <usbd_edpt_release>
1000481c:	e7dc      	b.n	100047d8 <tu_edpt_stream_write_xfer+0x1c>
1000481e:	46c0      	nop			; (mov r8, r8)

10004820 <tu_edpt_stream_read_xfer>:
10004820:	b5f8      	push	{r3, r4, r5, r6, r7, lr}
10004822:	46ce      	mov	lr, r9
10004824:	4647      	mov	r7, r8
10004826:	b580      	push	{r7, lr}
10004828:	898a      	ldrh	r2, [r1, #12]
1000482a:	0006      	movs	r6, r0
1000482c:	000c      	movs	r4, r1
1000482e:	780b      	ldrb	r3, [r1, #0]
10004830:	2a00      	cmp	r2, #0
10004832:	d107      	bne.n	10004844 <tu_edpt_stream_read_xfer+0x24>
10004834:	2501      	movs	r5, #1
10004836:	421d      	tst	r5, r3
10004838:	d040      	beq.n	100048bc <tu_edpt_stream_read_xfer+0x9c>
1000483a:	2000      	movs	r0, #0
1000483c:	bc0c      	pop	{r2, r3}
1000483e:	4690      	mov	r8, r2
10004840:	4699      	mov	r9, r3
10004842:	bdf8      	pop	{r3, r4, r5, r6, r7, pc}
10004844:	079b      	lsls	r3, r3, #30
10004846:	d434      	bmi.n	100048b2 <tu_edpt_stream_read_xfer+0x92>
10004848:	2340      	movs	r3, #64	; 0x40
1000484a:	425b      	negs	r3, r3
1000484c:	4699      	mov	r9, r3
1000484e:	2540      	movs	r5, #64	; 0x40
10004850:	0027      	movs	r7, r4
10004852:	3708      	adds	r7, #8
10004854:	0038      	movs	r0, r7
10004856:	f000 f8ab 	bl	100049b0 <tu_fifo_remaining>
1000485a:	42a8      	cmp	r0, r5
1000485c:	d3ed      	bcc.n	1000483a <tu_edpt_stream_read_xfer+0x1a>
1000485e:	2201      	movs	r2, #1
10004860:	7823      	ldrb	r3, [r4, #0]
10004862:	4690      	mov	r8, r2
10004864:	421a      	tst	r2, r3
10004866:	d1e8      	bne.n	1000483a <tu_edpt_stream_read_xfer+0x1a>
10004868:	7861      	ldrb	r1, [r4, #1]
1000486a:	0030      	movs	r0, r6
1000486c:	f7ff f8c6 	bl	100039fc <usbd_edpt_claim>
10004870:	2800      	cmp	r0, #0
10004872:	d0e2      	beq.n	1000483a <tu_edpt_stream_read_xfer+0x1a>
10004874:	0038      	movs	r0, r7
10004876:	f000 f89b 	bl	100049b0 <tu_fifo_remaining>
1000487a:	7823      	ldrb	r3, [r4, #0]
1000487c:	4642      	mov	r2, r8
1000487e:	4285      	cmp	r5, r0
10004880:	d831      	bhi.n	100048e6 <tu_edpt_stream_read_xfer+0xc6>
10004882:	421a      	tst	r2, r3
10004884:	d1d9      	bne.n	1000483a <tu_edpt_stream_read_xfer+0x1a>
10004886:	464b      	mov	r3, r9
10004888:	4018      	ands	r0, r3
1000488a:	8863      	ldrh	r3, [r4, #2]
1000488c:	1c05      	adds	r5, r0, #0
1000488e:	b280      	uxth	r0, r0
10004890:	4298      	cmp	r0, r3
10004892:	d900      	bls.n	10004896 <tu_edpt_stream_read_xfer+0x76>
10004894:	1c1d      	adds	r5, r3, #0
10004896:	b2ad      	uxth	r5, r5
10004898:	7861      	ldrb	r1, [r4, #1]
1000489a:	2200      	movs	r2, #0
1000489c:	2d00      	cmp	r5, #0
1000489e:	d000      	beq.n	100048a2 <tu_edpt_stream_read_xfer+0x82>
100048a0:	6862      	ldr	r2, [r4, #4]
100048a2:	002b      	movs	r3, r5
100048a4:	0030      	movs	r0, r6
100048a6:	f7ff f8d1 	bl	10003a4c <usbd_edpt_xfer>
100048aa:	2800      	cmp	r0, #0
100048ac:	d0c5      	beq.n	1000483a <tu_edpt_stream_read_xfer+0x1a>
100048ae:	0028      	movs	r0, r5
100048b0:	e7c4      	b.n	1000483c <tu_edpt_stream_read_xfer+0x1c>
100048b2:	2580      	movs	r5, #128	; 0x80
100048b4:	4b0f      	ldr	r3, [pc, #60]	; (100048f4 <tu_edpt_stream_read_xfer+0xd4>)
100048b6:	00ad      	lsls	r5, r5, #2
100048b8:	4699      	mov	r9, r3
100048ba:	e7c9      	b.n	10004850 <tu_edpt_stream_read_xfer+0x30>
100048bc:	7849      	ldrb	r1, [r1, #1]
100048be:	f7ff f89d 	bl	100039fc <usbd_edpt_claim>
100048c2:	2800      	cmp	r0, #0
100048c4:	d0b9      	beq.n	1000483a <tu_edpt_stream_read_xfer+0x1a>
100048c6:	7823      	ldrb	r3, [r4, #0]
100048c8:	421d      	tst	r5, r3
100048ca:	d1b6      	bne.n	1000483a <tu_edpt_stream_read_xfer+0x1a>
100048cc:	8863      	ldrh	r3, [r4, #2]
100048ce:	7861      	ldrb	r1, [r4, #1]
100048d0:	2200      	movs	r2, #0
100048d2:	2b00      	cmp	r3, #0
100048d4:	d000      	beq.n	100048d8 <tu_edpt_stream_read_xfer+0xb8>
100048d6:	6862      	ldr	r2, [r4, #4]
100048d8:	0030      	movs	r0, r6
100048da:	f7ff f8b7 	bl	10003a4c <usbd_edpt_xfer>
100048de:	2800      	cmp	r0, #0
100048e0:	d0ab      	beq.n	1000483a <tu_edpt_stream_read_xfer+0x1a>
100048e2:	8860      	ldrh	r0, [r4, #2]
100048e4:	e7aa      	b.n	1000483c <tu_edpt_stream_read_xfer+0x1c>
100048e6:	421a      	tst	r2, r3
100048e8:	d1a7      	bne.n	1000483a <tu_edpt_stream_read_xfer+0x1a>
100048ea:	7861      	ldrb	r1, [r4, #1]
100048ec:	0030      	movs	r0, r6
100048ee:	f7ff f899 	bl	10003a24 <usbd_edpt_release>
100048f2:	e7a2      	b.n	1000483a <tu_edpt_stream_read_xfer+0x1a>
100048f4:	fffffe00 	.word	0xfffffe00

100048f8 <tu_fifo_config>:
100048f8:	b5f8      	push	{r3, r4, r5, r6, r7, lr}
100048fa:	4647      	mov	r7, r8
100048fc:	46ce      	mov	lr, r9
100048fe:	b580      	push	{r7, lr}
10004900:	001d      	movs	r5, r3
10004902:	ab08      	add	r3, sp, #32
10004904:	781e      	ldrb	r6, [r3, #0]
10004906:	2380      	movs	r3, #128	; 0x80
10004908:	0004      	movs	r4, r0
1000490a:	4689      	mov	r9, r1
1000490c:	4690      	mov	r8, r2
1000490e:	021b      	lsls	r3, r3, #8
10004910:	2700      	movs	r7, #0
10004912:	429a      	cmp	r2, r3
10004914:	d82b      	bhi.n	1000496e <tu_fifo_config+0x76>
10004916:	68c0      	ldr	r0, [r0, #12]
10004918:	2800      	cmp	r0, #0
1000491a:	d003      	beq.n	10004924 <tu_fifo_config+0x2c>
1000491c:	2101      	movs	r1, #1
1000491e:	4249      	negs	r1, r1
10004920:	f000 fab2 	bl	10004e88 <__mutex_enter_timeout_ms_veneer>
10004924:	6920      	ldr	r0, [r4, #16]
10004926:	2800      	cmp	r0, #0
10004928:	d003      	beq.n	10004932 <tu_fifo_config+0x3a>
1000492a:	2101      	movs	r1, #1
1000492c:	4249      	negs	r1, r1
1000492e:	f000 faab 	bl	10004e88 <__mutex_enter_timeout_ms_veneer>
10004932:	464b      	mov	r3, r9
10004934:	6023      	str	r3, [r4, #0]
10004936:	4643      	mov	r3, r8
10004938:	80a3      	strh	r3, [r4, #4]
1000493a:	88e3      	ldrh	r3, [r4, #6]
1000493c:	046d      	lsls	r5, r5, #17
1000493e:	0bdb      	lsrs	r3, r3, #15
10004940:	0c6d      	lsrs	r5, r5, #17
10004942:	03db      	lsls	r3, r3, #15
10004944:	432b      	orrs	r3, r5
10004946:	80e3      	strh	r3, [r4, #6]
10004948:	045b      	lsls	r3, r3, #17
1000494a:	01f6      	lsls	r6, r6, #7
1000494c:	0e5b      	lsrs	r3, r3, #25
1000494e:	4333      	orrs	r3, r6
10004950:	71e3      	strb	r3, [r4, #7]
10004952:	2300      	movs	r3, #0
10004954:	68e0      	ldr	r0, [r4, #12]
10004956:	8163      	strh	r3, [r4, #10]
10004958:	8123      	strh	r3, [r4, #8]
1000495a:	2800      	cmp	r0, #0
1000495c:	d001      	beq.n	10004962 <tu_fifo_config+0x6a>
1000495e:	f000 fa73 	bl	10004e48 <__mutex_exit_veneer>
10004962:	6920      	ldr	r0, [r4, #16]
10004964:	2701      	movs	r7, #1
10004966:	2800      	cmp	r0, #0
10004968:	d001      	beq.n	1000496e <tu_fifo_config+0x76>
1000496a:	f000 fa6d 	bl	10004e48 <__mutex_exit_veneer>
1000496e:	0038      	movs	r0, r7
10004970:	bc0c      	pop	{r2, r3}
10004972:	4690      	mov	r8, r2
10004974:	4699      	mov	r9, r3
10004976:	bdf8      	pop	{r3, r4, r5, r6, r7, pc}

10004978 <tu_fifo_count>:
10004978:	8903      	ldrh	r3, [r0, #8]
1000497a:	8942      	ldrh	r2, [r0, #10]
1000497c:	b29b      	uxth	r3, r3
1000497e:	b292      	uxth	r2, r2
10004980:	8881      	ldrh	r1, [r0, #4]
10004982:	4293      	cmp	r3, r2
10004984:	d209      	bcs.n	1000499a <tu_fifo_count+0x22>
10004986:	0048      	lsls	r0, r1, #1
10004988:	1a82      	subs	r2, r0, r2
1000498a:	189b      	adds	r3, r3, r2
1000498c:	b29b      	uxth	r3, r3
1000498e:	1c08      	adds	r0, r1, #0
10004990:	4299      	cmp	r1, r3
10004992:	d900      	bls.n	10004996 <tu_fifo_count+0x1e>
10004994:	1c18      	adds	r0, r3, #0
10004996:	b280      	uxth	r0, r0
10004998:	4770      	bx	lr
1000499a:	1a9b      	subs	r3, r3, r2
1000499c:	b29b      	uxth	r3, r3
1000499e:	e7f6      	b.n	1000498e <tu_fifo_count+0x16>

100049a0 <tu_fifo_empty>:
100049a0:	8903      	ldrh	r3, [r0, #8]
100049a2:	8940      	ldrh	r0, [r0, #10]
100049a4:	1a18      	subs	r0, r3, r0
100049a6:	4243      	negs	r3, r0
100049a8:	4158      	adcs	r0, r3
100049aa:	b2c0      	uxtb	r0, r0
100049ac:	4770      	bx	lr
100049ae:	46c0      	nop			; (mov r8, r8)

100049b0 <tu_fifo_remaining>:
100049b0:	8903      	ldrh	r3, [r0, #8]
100049b2:	8942      	ldrh	r2, [r0, #10]
100049b4:	b29b      	uxth	r3, r3
100049b6:	b292      	uxth	r2, r2
100049b8:	8881      	ldrh	r1, [r0, #4]
100049ba:	4293      	cmp	r3, r2
100049bc:	d307      	bcc.n	100049ce <tu_fifo_remaining+0x1e>
100049be:	1a9b      	subs	r3, r3, r2
100049c0:	b29b      	uxth	r3, r3
100049c2:	2000      	movs	r0, #0
100049c4:	4299      	cmp	r1, r3
100049c6:	d901      	bls.n	100049cc <tu_fifo_remaining+0x1c>
100049c8:	1acb      	subs	r3, r1, r3
100049ca:	b298      	uxth	r0, r3
100049cc:	4770      	bx	lr
100049ce:	0048      	lsls	r0, r1, #1
100049d0:	1a82      	subs	r2, r0, r2
100049d2:	189b      	adds	r3, r3, r2
100049d4:	b29b      	uxth	r3, r3
100049d6:	e7f4      	b.n	100049c2 <tu_fifo_remaining+0x12>

100049d8 <tu_fifo_read>:
100049d8:	b570      	push	{r4, r5, r6, lr}
100049da:	0004      	movs	r4, r0
100049dc:	6900      	ldr	r0, [r0, #16]
100049de:	000d      	movs	r5, r1
100049e0:	2800      	cmp	r0, #0
100049e2:	d003      	beq.n	100049ec <tu_fifo_read+0x14>
100049e4:	2101      	movs	r1, #1
100049e6:	4249      	negs	r1, r1
100049e8:	f000 fa4e 	bl	10004e88 <__mutex_enter_timeout_ms_veneer>
100049ec:	8920      	ldrh	r0, [r4, #8]
100049ee:	8961      	ldrh	r1, [r4, #10]
100049f0:	b280      	uxth	r0, r0
100049f2:	b289      	uxth	r1, r1
100049f4:	88a3      	ldrh	r3, [r4, #4]
100049f6:	4288      	cmp	r0, r1
100049f8:	d335      	bcc.n	10004a66 <tu_fifo_read+0x8e>
100049fa:	1a42      	subs	r2, r0, r1
100049fc:	b292      	uxth	r2, r2
100049fe:	2a00      	cmp	r2, #0
10004a00:	d02a      	beq.n	10004a58 <tu_fifo_read+0x80>
10004a02:	4293      	cmp	r3, r2
10004a04:	d208      	bcs.n	10004a18 <tu_fifo_read+0x40>
10004a06:	4298      	cmp	r0, r3
10004a08:	d332      	bcc.n	10004a70 <tu_fifo_read+0x98>
10004a0a:	1ac1      	subs	r1, r0, r3
10004a0c:	b289      	uxth	r1, r1
10004a0e:	8161      	strh	r1, [r4, #10]
10004a10:	428b      	cmp	r3, r1
10004a12:	d803      	bhi.n	10004a1c <tu_fifo_read+0x44>
10004a14:	1ac9      	subs	r1, r1, r3
10004a16:	b289      	uxth	r1, r1
10004a18:	428b      	cmp	r3, r1
10004a1a:	d9fb      	bls.n	10004a14 <tu_fifo_read+0x3c>
10004a1c:	6823      	ldr	r3, [r4, #0]
10004a1e:	88e2      	ldrh	r2, [r4, #6]
10004a20:	469c      	mov	ip, r3
10004a22:	0452      	lsls	r2, r2, #17
10004a24:	0c52      	lsrs	r2, r2, #17
10004a26:	4351      	muls	r1, r2
10004a28:	0028      	movs	r0, r5
10004a2a:	4461      	add	r1, ip
10004a2c:	f7fd fbd4 	bl	100021d8 <__wrap___aeabi_memcpy>
10004a30:	8961      	ldrh	r1, [r4, #10]
10004a32:	88a3      	ldrh	r3, [r4, #4]
10004a34:	b289      	uxth	r1, r1
10004a36:	1c4a      	adds	r2, r1, #1
10004a38:	b292      	uxth	r2, r2
10004a3a:	2501      	movs	r5, #1
10004a3c:	4291      	cmp	r1, r2
10004a3e:	d90e      	bls.n	10004a5e <tu_fifo_read+0x86>
10004a40:	2200      	movs	r2, #0
10004a42:	005b      	lsls	r3, r3, #1
10004a44:	1ad2      	subs	r2, r2, r3
10004a46:	b292      	uxth	r2, r2
10004a48:	6920      	ldr	r0, [r4, #16]
10004a4a:	8162      	strh	r2, [r4, #10]
10004a4c:	2800      	cmp	r0, #0
10004a4e:	d001      	beq.n	10004a54 <tu_fifo_read+0x7c>
10004a50:	f000 f9fa 	bl	10004e48 <__mutex_exit_veneer>
10004a54:	0028      	movs	r0, r5
10004a56:	bd70      	pop	{r4, r5, r6, pc}
10004a58:	2500      	movs	r5, #0
10004a5a:	8962      	ldrh	r2, [r4, #10]
10004a5c:	b292      	uxth	r2, r2
10004a5e:	005b      	lsls	r3, r3, #1
10004a60:	429a      	cmp	r2, r3
10004a62:	dbf1      	blt.n	10004a48 <tu_fifo_read+0x70>
10004a64:	e7ee      	b.n	10004a44 <tu_fifo_read+0x6c>
10004a66:	005a      	lsls	r2, r3, #1
10004a68:	1a52      	subs	r2, r2, r1
10004a6a:	1882      	adds	r2, r0, r2
10004a6c:	b292      	uxth	r2, r2
10004a6e:	e7c6      	b.n	100049fe <tu_fifo_read+0x26>
10004a70:	18c0      	adds	r0, r0, r3
10004a72:	b281      	uxth	r1, r0
10004a74:	8161      	strh	r1, [r4, #10]
10004a76:	e7cb      	b.n	10004a10 <tu_fifo_read+0x38>

10004a78 <tu_fifo_read_n>:
10004a78:	b5f8      	push	{r3, r4, r5, r6, r7, lr}
10004a7a:	4647      	mov	r7, r8
10004a7c:	46ce      	mov	lr, r9
10004a7e:	0005      	movs	r5, r0
10004a80:	6900      	ldr	r0, [r0, #16]
10004a82:	b580      	push	{r7, lr}
10004a84:	4690      	mov	r8, r2
10004a86:	000f      	movs	r7, r1
10004a88:	2800      	cmp	r0, #0
10004a8a:	d003      	beq.n	10004a94 <tu_fifo_read_n+0x1c>
10004a8c:	2101      	movs	r1, #1
10004a8e:	4249      	negs	r1, r1
10004a90:	f000 f9fa 	bl	10004e88 <__mutex_enter_timeout_ms_veneer>
10004a94:	892b      	ldrh	r3, [r5, #8]
10004a96:	8969      	ldrh	r1, [r5, #10]
10004a98:	b29b      	uxth	r3, r3
10004a9a:	b289      	uxth	r1, r1
10004a9c:	88ae      	ldrh	r6, [r5, #4]
10004a9e:	428b      	cmp	r3, r1
10004aa0:	d347      	bcc.n	10004b32 <tu_fifo_read_n+0xba>
10004aa2:	1a5c      	subs	r4, r3, r1
10004aa4:	b2a4      	uxth	r4, r4
10004aa6:	2c00      	cmp	r4, #0
10004aa8:	d049      	beq.n	10004b3e <tu_fifo_read_n+0xc6>
10004aaa:	42a6      	cmp	r6, r4
10004aac:	d205      	bcs.n	10004aba <tu_fifo_read_n+0x42>
10004aae:	42b3      	cmp	r3, r6
10004ab0:	d256      	bcs.n	10004b60 <tu_fifo_read_n+0xe8>
10004ab2:	199b      	adds	r3, r3, r6
10004ab4:	b299      	uxth	r1, r3
10004ab6:	0034      	movs	r4, r6
10004ab8:	8169      	strh	r1, [r5, #10]
10004aba:	4643      	mov	r3, r8
10004abc:	45a0      	cmp	r8, r4
10004abe:	d844      	bhi.n	10004b4a <tu_fifo_read_n+0xd2>
10004ac0:	b29c      	uxth	r4, r3
10004ac2:	428e      	cmp	r6, r1
10004ac4:	d803      	bhi.n	10004ace <tu_fifo_read_n+0x56>
10004ac6:	1b89      	subs	r1, r1, r6
10004ac8:	b289      	uxth	r1, r1
10004aca:	428e      	cmp	r6, r1
10004acc:	d9fb      	bls.n	10004ac6 <tu_fifo_read_n+0x4e>
10004ace:	1a76      	subs	r6, r6, r1
10004ad0:	b2b3      	uxth	r3, r6
10004ad2:	4698      	mov	r8, r3
10004ad4:	682b      	ldr	r3, [r5, #0]
10004ad6:	88ee      	ldrh	r6, [r5, #6]
10004ad8:	469c      	mov	ip, r3
10004ada:	0476      	lsls	r6, r6, #17
10004adc:	0c76      	lsrs	r6, r6, #17
10004ade:	4371      	muls	r1, r6
10004ae0:	4461      	add	r1, ip
10004ae2:	4544      	cmp	r4, r8
10004ae4:	d936      	bls.n	10004b54 <tu_fifo_read_n+0xdc>
10004ae6:	4640      	mov	r0, r8
10004ae8:	4370      	muls	r0, r6
10004aea:	b283      	uxth	r3, r0
10004aec:	001a      	movs	r2, r3
10004aee:	0038      	movs	r0, r7
10004af0:	4699      	mov	r9, r3
10004af2:	f7fd fb71 	bl	100021d8 <__wrap___aeabi_memcpy>
10004af6:	4643      	mov	r3, r8
10004af8:	0038      	movs	r0, r7
10004afa:	1ae2      	subs	r2, r4, r3
10004afc:	4372      	muls	r2, r6
10004afe:	4448      	add	r0, r9
10004b00:	b292      	uxth	r2, r2
10004b02:	6829      	ldr	r1, [r5, #0]
10004b04:	f7fd fb68 	bl	100021d8 <__wrap___aeabi_memcpy>
10004b08:	896a      	ldrh	r2, [r5, #10]
10004b0a:	88ae      	ldrh	r6, [r5, #4]
10004b0c:	b292      	uxth	r2, r2
10004b0e:	1913      	adds	r3, r2, r4
10004b10:	b29b      	uxth	r3, r3
10004b12:	0071      	lsls	r1, r6, #1
10004b14:	429a      	cmp	r2, r3
10004b16:	d914      	bls.n	10004b42 <tu_fifo_read_n+0xca>
10004b18:	1a5b      	subs	r3, r3, r1
10004b1a:	b29b      	uxth	r3, r3
10004b1c:	6928      	ldr	r0, [r5, #16]
10004b1e:	816b      	strh	r3, [r5, #10]
10004b20:	2800      	cmp	r0, #0
10004b22:	d001      	beq.n	10004b28 <tu_fifo_read_n+0xb0>
10004b24:	f000 f990 	bl	10004e48 <__mutex_exit_veneer>
10004b28:	0020      	movs	r0, r4
10004b2a:	bc0c      	pop	{r2, r3}
10004b2c:	4690      	mov	r8, r2
10004b2e:	4699      	mov	r9, r3
10004b30:	bdf8      	pop	{r3, r4, r5, r6, r7, pc}
10004b32:	0074      	lsls	r4, r6, #1
10004b34:	1a64      	subs	r4, r4, r1
10004b36:	191c      	adds	r4, r3, r4
10004b38:	b2a4      	uxth	r4, r4
10004b3a:	2c00      	cmp	r4, #0
10004b3c:	d1b5      	bne.n	10004aaa <tu_fifo_read_n+0x32>
10004b3e:	896b      	ldrh	r3, [r5, #10]
10004b40:	b29b      	uxth	r3, r3
10004b42:	0071      	lsls	r1, r6, #1
10004b44:	428b      	cmp	r3, r1
10004b46:	dbe9      	blt.n	10004b1c <tu_fifo_read_n+0xa4>
10004b48:	e7e6      	b.n	10004b18 <tu_fifo_read_n+0xa0>
10004b4a:	1c23      	adds	r3, r4, #0
10004b4c:	b29c      	uxth	r4, r3
10004b4e:	428e      	cmp	r6, r1
10004b50:	d9b9      	bls.n	10004ac6 <tu_fifo_read_n+0x4e>
10004b52:	e7bc      	b.n	10004ace <tu_fifo_read_n+0x56>
10004b54:	0032      	movs	r2, r6
10004b56:	0038      	movs	r0, r7
10004b58:	4362      	muls	r2, r4
10004b5a:	f7fd fb3d 	bl	100021d8 <__wrap___aeabi_memcpy>
10004b5e:	e7d3      	b.n	10004b08 <tu_fifo_read_n+0x90>
10004b60:	1b99      	subs	r1, r3, r6
10004b62:	b289      	uxth	r1, r1
10004b64:	e7a7      	b.n	10004ab6 <tu_fifo_read_n+0x3e>
10004b66:	46c0      	nop			; (mov r8, r8)

10004b68 <tu_fifo_write>:
10004b68:	b5f8      	push	{r3, r4, r5, r6, r7, lr}
10004b6a:	0004      	movs	r4, r0
10004b6c:	68c0      	ldr	r0, [r0, #12]
10004b6e:	000e      	movs	r6, r1
10004b70:	2800      	cmp	r0, #0
10004b72:	d003      	beq.n	10004b7c <tu_fifo_write+0x14>
10004b74:	2101      	movs	r1, #1
10004b76:	4249      	negs	r1, r1
10004b78:	f000 f986 	bl	10004e88 <__mutex_enter_timeout_ms_veneer>
10004b7c:	8925      	ldrh	r5, [r4, #8]
10004b7e:	8922      	ldrh	r2, [r4, #8]
10004b80:	8961      	ldrh	r1, [r4, #10]
10004b82:	b292      	uxth	r2, r2
10004b84:	b289      	uxth	r1, r1
10004b86:	b2ad      	uxth	r5, r5
10004b88:	88a3      	ldrh	r3, [r4, #4]
10004b8a:	428a      	cmp	r2, r1
10004b8c:	d329      	bcc.n	10004be2 <tu_fifo_write+0x7a>
10004b8e:	1a52      	subs	r2, r2, r1
10004b90:	b292      	uxth	r2, r2
10004b92:	4293      	cmp	r3, r2
10004b94:	d809      	bhi.n	10004baa <tu_fifo_write+0x42>
10004b96:	79e7      	ldrb	r7, [r4, #7]
10004b98:	09ff      	lsrs	r7, r7, #7
10004b9a:	d106      	bne.n	10004baa <tu_fifo_write+0x42>
10004b9c:	68e0      	ldr	r0, [r4, #12]
10004b9e:	2800      	cmp	r0, #0
10004ba0:	d001      	beq.n	10004ba6 <tu_fifo_write+0x3e>
10004ba2:	f000 f951 	bl	10004e48 <__mutex_exit_veneer>
10004ba6:	0038      	movs	r0, r7
10004ba8:	bdf8      	pop	{r3, r4, r5, r6, r7, pc}
10004baa:	0028      	movs	r0, r5
10004bac:	429d      	cmp	r5, r3
10004bae:	d303      	bcc.n	10004bb8 <tu_fifo_write+0x50>
10004bb0:	1ac0      	subs	r0, r0, r3
10004bb2:	b280      	uxth	r0, r0
10004bb4:	4298      	cmp	r0, r3
10004bb6:	d2fb      	bcs.n	10004bb0 <tu_fifo_write+0x48>
10004bb8:	6823      	ldr	r3, [r4, #0]
10004bba:	88e2      	ldrh	r2, [r4, #6]
10004bbc:	469c      	mov	ip, r3
10004bbe:	0452      	lsls	r2, r2, #17
10004bc0:	0c52      	lsrs	r2, r2, #17
10004bc2:	4350      	muls	r0, r2
10004bc4:	0031      	movs	r1, r6
10004bc6:	4460      	add	r0, ip
10004bc8:	f7fd fb06 	bl	100021d8 <__wrap___aeabi_memcpy>
10004bcc:	88a2      	ldrh	r2, [r4, #4]
10004bce:	1c6b      	adds	r3, r5, #1
10004bd0:	b29b      	uxth	r3, r3
10004bd2:	0052      	lsls	r2, r2, #1
10004bd4:	429d      	cmp	r5, r3
10004bd6:	d909      	bls.n	10004bec <tu_fifo_write+0x84>
10004bd8:	1a9b      	subs	r3, r3, r2
10004bda:	b29b      	uxth	r3, r3
10004bdc:	8123      	strh	r3, [r4, #8]
10004bde:	2701      	movs	r7, #1
10004be0:	e7dc      	b.n	10004b9c <tu_fifo_write+0x34>
10004be2:	0058      	lsls	r0, r3, #1
10004be4:	1a41      	subs	r1, r0, r1
10004be6:	1852      	adds	r2, r2, r1
10004be8:	b292      	uxth	r2, r2
10004bea:	e7d2      	b.n	10004b92 <tu_fifo_write+0x2a>
10004bec:	4293      	cmp	r3, r2
10004bee:	dbf5      	blt.n	10004bdc <tu_fifo_write+0x74>
10004bf0:	e7f2      	b.n	10004bd8 <tu_fifo_write+0x70>
10004bf2:	46c0      	nop			; (mov r8, r8)

10004bf4 <tu_fifo_write_n>:
10004bf4:	b5f0      	push	{r4, r5, r6, r7, lr}
10004bf6:	4646      	mov	r6, r8
10004bf8:	464f      	mov	r7, r9
10004bfa:	46d6      	mov	lr, sl
10004bfc:	0004      	movs	r4, r0
10004bfe:	b5c0      	push	{r6, r7, lr}
10004c00:	4688      	mov	r8, r1
10004c02:	4691      	mov	r9, r2
10004c04:	2600      	movs	r6, #0
10004c06:	2a00      	cmp	r2, #0
10004c08:	d052      	beq.n	10004cb0 <tu_fifo_write_n+0xbc>
10004c0a:	68c0      	ldr	r0, [r0, #12]
10004c0c:	2800      	cmp	r0, #0
10004c0e:	d003      	beq.n	10004c18 <tu_fifo_write_n+0x24>
10004c10:	2101      	movs	r1, #1
10004c12:	4249      	negs	r1, r1
10004c14:	f000 f938 	bl	10004e88 <__mutex_enter_timeout_ms_veneer>
10004c18:	8925      	ldrh	r5, [r4, #8]
10004c1a:	79e2      	ldrb	r2, [r4, #7]
10004c1c:	8961      	ldrh	r1, [r4, #10]
10004c1e:	b2ad      	uxth	r5, r5
10004c20:	b289      	uxth	r1, r1
10004c22:	88a3      	ldrh	r3, [r4, #4]
10004c24:	09d2      	lsrs	r2, r2, #7
10004c26:	d149      	bne.n	10004cbc <tu_fifo_write_n+0xc8>
10004c28:	428d      	cmp	r5, r1
10004c2a:	d25e      	bcs.n	10004cea <tu_fifo_write_n+0xf6>
10004c2c:	005a      	lsls	r2, r3, #1
10004c2e:	1a51      	subs	r1, r2, r1
10004c30:	1869      	adds	r1, r5, r1
10004c32:	b289      	uxth	r1, r1
10004c34:	2600      	movs	r6, #0
10004c36:	4299      	cmp	r1, r3
10004c38:	d235      	bcs.n	10004ca6 <tu_fifo_write_n+0xb2>
10004c3a:	1a59      	subs	r1, r3, r1
10004c3c:	1c0e      	adds	r6, r1, #0
10004c3e:	b289      	uxth	r1, r1
10004c40:	4549      	cmp	r1, r9
10004c42:	d900      	bls.n	10004c46 <tu_fifo_write_n+0x52>
10004c44:	464e      	mov	r6, r9
10004c46:	88e0      	ldrh	r0, [r4, #6]
10004c48:	b2b6      	uxth	r6, r6
10004c4a:	0447      	lsls	r7, r0, #17
10004c4c:	0c7f      	lsrs	r7, r7, #17
10004c4e:	0028      	movs	r0, r5
10004c50:	42ab      	cmp	r3, r5
10004c52:	d803      	bhi.n	10004c5c <tu_fifo_write_n+0x68>
10004c54:	1ac0      	subs	r0, r0, r3
10004c56:	b280      	uxth	r0, r0
10004c58:	4298      	cmp	r0, r3
10004c5a:	d2fb      	bcs.n	10004c54 <tu_fifo_write_n+0x60>
10004c5c:	1a1b      	subs	r3, r3, r0
10004c5e:	b29b      	uxth	r3, r3
10004c60:	4699      	mov	r9, r3
10004c62:	6823      	ldr	r3, [r4, #0]
10004c64:	4378      	muls	r0, r7
10004c66:	469c      	mov	ip, r3
10004c68:	4460      	add	r0, ip
10004c6a:	45b1      	cmp	r9, r6
10004c6c:	d248      	bcs.n	10004d00 <tu_fifo_write_n+0x10c>
10004c6e:	4649      	mov	r1, r9
10004c70:	4379      	muls	r1, r7
10004c72:	b28b      	uxth	r3, r1
10004c74:	001a      	movs	r2, r3
10004c76:	4641      	mov	r1, r8
10004c78:	469a      	mov	sl, r3
10004c7a:	f7fd faad 	bl	100021d8 <__wrap___aeabi_memcpy>
10004c7e:	464b      	mov	r3, r9
10004c80:	4641      	mov	r1, r8
10004c82:	1af2      	subs	r2, r6, r3
10004c84:	437a      	muls	r2, r7
10004c86:	4451      	add	r1, sl
10004c88:	b292      	uxth	r2, r2
10004c8a:	6820      	ldr	r0, [r4, #0]
10004c8c:	f7fd faa4 	bl	100021d8 <__wrap___aeabi_memcpy>
10004c90:	88a2      	ldrh	r2, [r4, #4]
10004c92:	1973      	adds	r3, r6, r5
10004c94:	b29b      	uxth	r3, r3
10004c96:	0052      	lsls	r2, r2, #1
10004c98:	42ab      	cmp	r3, r5
10004c9a:	d301      	bcc.n	10004ca0 <tu_fifo_write_n+0xac>
10004c9c:	4293      	cmp	r3, r2
10004c9e:	db01      	blt.n	10004ca4 <tu_fifo_write_n+0xb0>
10004ca0:	1a9b      	subs	r3, r3, r2
10004ca2:	b29b      	uxth	r3, r3
10004ca4:	8123      	strh	r3, [r4, #8]
10004ca6:	68e0      	ldr	r0, [r4, #12]
10004ca8:	2800      	cmp	r0, #0
10004caa:	d001      	beq.n	10004cb0 <tu_fifo_write_n+0xbc>
10004cac:	f000 f8cc 	bl	10004e48 <__mutex_exit_veneer>
10004cb0:	0030      	movs	r0, r6
10004cb2:	bc1c      	pop	{r2, r3, r4}
10004cb4:	4690      	mov	r8, r2
10004cb6:	4699      	mov	r9, r3
10004cb8:	46a2      	mov	sl, r4
10004cba:	bdf0      	pop	{r4, r5, r6, r7, pc}
10004cbc:	88e0      	ldrh	r0, [r4, #6]
10004cbe:	0447      	lsls	r7, r0, #17
10004cc0:	0c7f      	lsrs	r7, r7, #17
10004cc2:	4599      	cmp	r9, r3
10004cc4:	d214      	bcs.n	10004cf0 <tu_fifo_write_n+0xfc>
10004cc6:	428d      	cmp	r5, r1
10004cc8:	d320      	bcc.n	10004d0c <tu_fifo_write_n+0x118>
10004cca:	1a6a      	subs	r2, r5, r1
10004ccc:	b292      	uxth	r2, r2
10004cce:	0058      	lsls	r0, r3, #1
10004cd0:	444a      	add	r2, r9
10004cd2:	464e      	mov	r6, r9
10004cd4:	4282      	cmp	r2, r0
10004cd6:	dbba      	blt.n	10004c4e <tu_fifo_write_n+0x5a>
10004cd8:	18cd      	adds	r5, r1, r3
10004cda:	1bad      	subs	r5, r5, r6
10004cdc:	b2ad      	uxth	r5, r5
10004cde:	42a9      	cmp	r1, r5
10004ce0:	d919      	bls.n	10004d16 <tu_fifo_write_n+0x122>
10004ce2:	1a2d      	subs	r5, r5, r0
10004ce4:	b2ad      	uxth	r5, r5
10004ce6:	464e      	mov	r6, r9
10004ce8:	e7b1      	b.n	10004c4e <tu_fifo_write_n+0x5a>
10004cea:	1a69      	subs	r1, r5, r1
10004cec:	b289      	uxth	r1, r1
10004cee:	e7a1      	b.n	10004c34 <tu_fifo_write_n+0x40>
10004cf0:	464a      	mov	r2, r9
10004cf2:	1ad2      	subs	r2, r2, r3
10004cf4:	4357      	muls	r7, r2
10004cf6:	44b8      	add	r8, r7
10004cf8:	2b00      	cmp	r3, #0
10004cfa:	d10f      	bne.n	10004d1c <tu_fifo_write_n+0x128>
10004cfc:	2600      	movs	r6, #0
10004cfe:	e7d2      	b.n	10004ca6 <tu_fifo_write_n+0xb2>
10004d00:	003a      	movs	r2, r7
10004d02:	4641      	mov	r1, r8
10004d04:	4372      	muls	r2, r6
10004d06:	f7fd fa67 	bl	100021d8 <__wrap___aeabi_memcpy>
10004d0a:	e7c1      	b.n	10004c90 <tu_fifo_write_n+0x9c>
10004d0c:	0058      	lsls	r0, r3, #1
10004d0e:	1a42      	subs	r2, r0, r1
10004d10:	18aa      	adds	r2, r5, r2
10004d12:	b292      	uxth	r2, r2
10004d14:	e7dc      	b.n	10004cd0 <tu_fifo_write_n+0xdc>
10004d16:	42a8      	cmp	r0, r5
10004d18:	dc99      	bgt.n	10004c4e <tu_fifo_write_n+0x5a>
10004d1a:	e7e2      	b.n	10004ce2 <tu_fifo_write_n+0xee>
10004d1c:	000d      	movs	r5, r1
10004d1e:	001e      	movs	r6, r3
10004d20:	e793      	b.n	10004c4a <tu_fifo_write_n+0x56>
10004d22:	46c0      	nop			; (mov r8, r8)

10004d24 <tu_fifo_clear>:
10004d24:	b510      	push	{r4, lr}
10004d26:	0004      	movs	r4, r0
10004d28:	68c0      	ldr	r0, [r0, #12]
10004d2a:	2800      	cmp	r0, #0
10004d2c:	d003      	beq.n	10004d36 <tu_fifo_clear+0x12>
10004d2e:	2101      	movs	r1, #1
10004d30:	4249      	negs	r1, r1
10004d32:	f000 f8a9 	bl	10004e88 <__mutex_enter_timeout_ms_veneer>
10004d36:	6920      	ldr	r0, [r4, #16]
10004d38:	2800      	cmp	r0, #0
10004d3a:	d003      	beq.n	10004d44 <tu_fifo_clear+0x20>
10004d3c:	2101      	movs	r1, #1
10004d3e:	4249      	negs	r1, r1
10004d40:	f000 f8a2 	bl	10004e88 <__mutex_enter_timeout_ms_veneer>
10004d44:	2300      	movs	r3, #0
10004d46:	68e0      	ldr	r0, [r4, #12]
10004d48:	8163      	strh	r3, [r4, #10]
10004d4a:	8123      	strh	r3, [r4, #8]
10004d4c:	2800      	cmp	r0, #0
10004d4e:	d001      	beq.n	10004d54 <tu_fifo_clear+0x30>
10004d50:	f000 f87a 	bl	10004e48 <__mutex_exit_veneer>
10004d54:	6920      	ldr	r0, [r4, #16]
10004d56:	2800      	cmp	r0, #0
10004d58:	d001      	beq.n	10004d5e <tu_fifo_clear+0x3a>
10004d5a:	f000 f875 	bl	10004e48 <__mutex_exit_veneer>
10004d5e:	2001      	movs	r0, #1
10004d60:	bd10      	pop	{r4, pc}
10004d62:	46c0      	nop			; (mov r8, r8)

10004d64 <tu_fifo_set_overwritable>:
10004d64:	b570      	push	{r4, r5, r6, lr}
10004d66:	0004      	movs	r4, r0
10004d68:	68c0      	ldr	r0, [r0, #12]
10004d6a:	000d      	movs	r5, r1
10004d6c:	2800      	cmp	r0, #0
10004d6e:	d003      	beq.n	10004d78 <tu_fifo_set_overwritable+0x14>
10004d70:	2101      	movs	r1, #1
10004d72:	4249      	negs	r1, r1
10004d74:	f000 f888 	bl	10004e88 <__mutex_enter_timeout_ms_veneer>
10004d78:	6920      	ldr	r0, [r4, #16]
10004d7a:	2800      	cmp	r0, #0
10004d7c:	d003      	beq.n	10004d86 <tu_fifo_set_overwritable+0x22>
10004d7e:	2101      	movs	r1, #1
10004d80:	4249      	negs	r1, r1
10004d82:	f000 f881 	bl	10004e88 <__mutex_enter_timeout_ms_veneer>
10004d86:	217f      	movs	r1, #127	; 0x7f
10004d88:	79e3      	ldrb	r3, [r4, #7]
10004d8a:	01ed      	lsls	r5, r5, #7
10004d8c:	4019      	ands	r1, r3
10004d8e:	68e0      	ldr	r0, [r4, #12]
10004d90:	4329      	orrs	r1, r5
10004d92:	71e1      	strb	r1, [r4, #7]
10004d94:	2800      	cmp	r0, #0
10004d96:	d001      	beq.n	10004d9c <tu_fifo_set_overwritable+0x38>
10004d98:	f000 f856 	bl	10004e48 <__mutex_exit_veneer>
10004d9c:	6920      	ldr	r0, [r4, #16]
10004d9e:	2800      	cmp	r0, #0
10004da0:	d001      	beq.n	10004da6 <tu_fifo_set_overwritable+0x42>
10004da2:	f000 f851 	bl	10004e48 <__mutex_exit_veneer>
10004da6:	2001      	movs	r0, #1
10004da8:	bd70      	pop	{r4, r5, r6, pc}
10004daa:	46c0      	nop			; (mov r8, r8)

10004dac <dma_claim_unused_channel>:
10004dac:	b500      	push	{lr}
10004dae:	4b05      	ldr	r3, [pc, #20]	; (10004dc4 <dma_claim_unused_channel+0x18>)
10004db0:	b083      	sub	sp, #12
10004db2:	0001      	movs	r1, r0
10004db4:	9300      	str	r3, [sp, #0]
10004db6:	2200      	movs	r2, #0
10004db8:	230b      	movs	r3, #11
10004dba:	4803      	ldr	r0, [pc, #12]	; (10004dc8 <dma_claim_unused_channel+0x1c>)
10004dbc:	f7fb fe9a 	bl	10000af4 <hw_claim_unused_from_range>
10004dc0:	b003      	add	sp, #12
10004dc2:	bd00      	pop	{pc}
10004dc4:	100054a4 	.word	0x100054a4
10004dc8:	20001e3e 	.word	0x20001e3e

10004dcc <strlen>:
10004dcc:	b510      	push	{r4, lr}
10004dce:	0004      	movs	r4, r0
10004dd0:	0783      	lsls	r3, r0, #30
10004dd2:	d00a      	beq.n	10004dea <strlen+0x1e>
10004dd4:	7803      	ldrb	r3, [r0, #0]
10004dd6:	2b00      	cmp	r3, #0
10004dd8:	d023      	beq.n	10004e22 <strlen+0x56>
10004dda:	2203      	movs	r2, #3
10004ddc:	e002      	b.n	10004de4 <strlen+0x18>
10004dde:	7803      	ldrb	r3, [r0, #0]
10004de0:	2b00      	cmp	r3, #0
10004de2:	d01c      	beq.n	10004e1e <strlen+0x52>
10004de4:	3001      	adds	r0, #1
10004de6:	4210      	tst	r0, r2
10004de8:	d1f9      	bne.n	10004dde <strlen+0x12>
10004dea:	6802      	ldr	r2, [r0, #0]
10004dec:	4b0e      	ldr	r3, [pc, #56]	; (10004e28 <strlen+0x5c>)
10004dee:	490f      	ldr	r1, [pc, #60]	; (10004e2c <strlen+0x60>)
10004df0:	18d3      	adds	r3, r2, r3
10004df2:	4393      	bics	r3, r2
10004df4:	420b      	tst	r3, r1
10004df6:	d10f      	bne.n	10004e18 <strlen+0x4c>
10004df8:	3004      	adds	r0, #4
10004dfa:	6802      	ldr	r2, [r0, #0]
10004dfc:	4b0a      	ldr	r3, [pc, #40]	; (10004e28 <strlen+0x5c>)
10004dfe:	18d3      	adds	r3, r2, r3
10004e00:	4393      	bics	r3, r2
10004e02:	420b      	tst	r3, r1
10004e04:	d108      	bne.n	10004e18 <strlen+0x4c>
10004e06:	3004      	adds	r0, #4
10004e08:	6802      	ldr	r2, [r0, #0]
10004e0a:	4b07      	ldr	r3, [pc, #28]	; (10004e28 <strlen+0x5c>)
10004e0c:	18d3      	adds	r3, r2, r3
10004e0e:	4393      	bics	r3, r2
10004e10:	420b      	tst	r3, r1
10004e12:	d0f1      	beq.n	10004df8 <strlen+0x2c>
10004e14:	e000      	b.n	10004e18 <strlen+0x4c>
10004e16:	3001      	adds	r0, #1
10004e18:	7803      	ldrb	r3, [r0, #0]
10004e1a:	2b00      	cmp	r3, #0
10004e1c:	d1fb      	bne.n	10004e16 <strlen+0x4a>
10004e1e:	1b00      	subs	r0, r0, r4
10004e20:	bd10      	pop	{r4, pc}
10004e22:	2000      	movs	r0, #0
10004e24:	e7fc      	b.n	10004e20 <strlen+0x54>
10004e26:	46c0      	nop			; (mov r8, r8)
10004e28:	fefefeff 	.word	0xfefefeff
10004e2c:	80808080 	.word	0x80808080

10004e30 <_fini>:
10004e30:	b5f8      	push	{r3, r4, r5, r6, r7, lr}
10004e32:	46c0      	nop			; (mov r8, r8)
10004e34:	0000      	movs	r0, r0
	...

10004e38 <__flash_do_cmd_veneer>:
10004e38:	b401      	push	{r0}
10004e3a:	4802      	ldr	r0, [pc, #8]	; (10004e44 <__flash_do_cmd_veneer+0xc>)
10004e3c:	4684      	mov	ip, r0
10004e3e:	bc01      	pop	{r0}
10004e40:	4760      	bx	ip
10004e42:	bf00      	nop
10004e44:	20000325 	.word	0x20000325

10004e48 <__mutex_exit_veneer>:
10004e48:	b401      	push	{r0}
10004e4a:	4802      	ldr	r0, [pc, #8]	; (10004e54 <__mutex_exit_veneer+0xc>)
10004e4c:	4684      	mov	ip, r0
10004e4e:	bc01      	pop	{r0}
10004e50:	4760      	bx	ip
10004e52:	bf00      	nop
10004e54:	20000231 	.word	0x20000231

10004e58 <__reset_non_control_endpoints_veneer>:
10004e58:	b401      	push	{r0}
10004e5a:	4802      	ldr	r0, [pc, #8]	; (10004e64 <__reset_non_control_endpoints_veneer+0xc>)
10004e5c:	4684      	mov	ip, r0
10004e5e:	bc01      	pop	{r0}
10004e60:	4760      	bx	ip
10004e62:	bf00      	nop
10004e64:	200003e1 	.word	0x200003e1

10004e68 <____aeabi_idiv0_veneer>:
10004e68:	b401      	push	{r0}
10004e6a:	4802      	ldr	r0, [pc, #8]	; (10004e74 <____aeabi_idiv0_veneer+0xc>)
10004e6c:	4684      	mov	ip, r0
10004e6e:	bc01      	pop	{r0}
10004e70:	4760      	bx	ip
10004e72:	bf00      	nop
10004e74:	20000fe9 	.word	0x20000fe9

10004e78 <__mutex_try_enter_veneer>:
10004e78:	b401      	push	{r0}
10004e7a:	4802      	ldr	r0, [pc, #8]	; (10004e84 <__mutex_try_enter_veneer+0xc>)
10004e7c:	4684      	mov	ip, r0
10004e7e:	bc01      	pop	{r0}
10004e80:	4760      	bx	ip
10004e82:	bf00      	nop
10004e84:	200000c1 	.word	0x200000c1

10004e88 <__mutex_enter_timeout_ms_veneer>:
10004e88:	b401      	push	{r0}
10004e8a:	4802      	ldr	r0, [pc, #8]	; (10004e94 <__mutex_enter_timeout_ms_veneer+0xc>)
10004e8c:	4684      	mov	ip, r0
10004e8e:	bc01      	pop	{r0}
10004e90:	4760      	bx	ip
10004e92:	bf00      	nop
10004e94:	200001a5 	.word	0x200001a5

10004e98 <__mutex_try_enter_block_until_veneer>:
10004e98:	b401      	push	{r0}
10004e9a:	4802      	ldr	r0, [pc, #8]	; (10004ea4 <__mutex_try_enter_block_until_veneer+0xc>)
10004e9c:	4684      	mov	ip, r0
10004e9e:	bc01      	pop	{r0}
10004ea0:	4760      	bx	ip
10004ea2:	bf00      	nop
10004ea4:	20000109 	.word	0x20000109

10004ea8 <__hw_endpoint_start_next_buffer_veneer>:
10004ea8:	b401      	push	{r0}
10004eaa:	4802      	ldr	r0, [pc, #8]	; (10004eb4 <__hw_endpoint_start_next_buffer_veneer+0xc>)
10004eac:	4684      	mov	ip, r0
10004eae:	bc01      	pop	{r0}
10004eb0:	4760      	bx	ip
10004eb2:	bf00      	nop
10004eb4:	20000d49 	.word	0x20000d49

10004eb8 <__hw_endpoint_reset_transfer_veneer>:
10004eb8:	b401      	push	{r0}
10004eba:	4802      	ldr	r0, [pc, #8]	; (10004ec4 <__hw_endpoint_reset_transfer_veneer+0xc>)
10004ebc:	4684      	mov	ip, r0
10004ebe:	bc01      	pop	{r0}
10004ec0:	4760      	bx	ip
10004ec2:	bf00      	nop
10004ec4:	20000ced 	.word	0x20000ced

10004ec8 <___hw_endpoint_buffer_control_update32_veneer>:
10004ec8:	b401      	push	{r0}
10004eca:	4802      	ldr	r0, [pc, #8]	; (10004ed4 <___hw_endpoint_buffer_control_update32_veneer+0xc>)
10004ecc:	4684      	mov	ip, r0
10004ece:	bc01      	pop	{r0}
10004ed0:	4760      	bx	ip
10004ed2:	bf00      	nop
10004ed4:	20000cf9 	.word	0x20000cf9

10004ed8 <__e15_is_critical_frame_period_veneer>:
10004ed8:	b401      	push	{r0}
10004eda:	4802      	ldr	r0, [pc, #8]	; (10004ee4 <__e15_is_critical_frame_period_veneer+0xc>)
10004edc:	4684      	mov	ip, r0
10004ede:	bc01      	pop	{r0}
10004ee0:	4760      	bx	ip
10004ee2:	bf00      	nop
10004ee4:	20000cb5 	.word	0x20000cb5

10004ee8 <__e15_is_bulkin_ep.isra.0_veneer>:
10004ee8:	b401      	push	{r0}
10004eea:	4802      	ldr	r0, [pc, #8]	; (10004ef4 <__e15_is_bulkin_ep.isra.0_veneer+0xc>)
10004eec:	4684      	mov	ip, r0
10004eee:	bc01      	pop	{r0}
10004ef0:	4760      	bx	ip
10004ef2:	bf00      	nop
10004ef4:	20000c8d 	.word	0x20000c8d

10004ef8 <__pre_init_runtime_init_early_resets>:
10004ef8:	10001e0d                                ....

10004efc <__pre_init_runtime_init_usb_power_down>:
10004efc:	10001e39 10001fb1 100021bd 1000205d     9........!..] ..
10004f0c:	10002129                                )!..

10004f10 <__pre_init_runtime_init_clocks>:
10004f10:	10001ed9                                ....

10004f14 <__pre_init_runtime_init_post_clock_resets>:
10004f14:	10001e55                                U...

10004f18 <__pre_init_runtime_init_rp2040_gpio_ie_disable>:
10004f18:	10001e75                                u...

10004f1c <__pre_init_runtime_init_spin_locks_reset>:
10004f1c:	10001e89                                ....

10004f20 <__pre_init_runtime_init_mutex>:
10004f20:	10000f81                                ....

10004f24 <__pre_init_runtime_init_install_ram_vector_table>:
10004f24:	10001e91                                ....

10004f28 <__pre_init_runtime_init_default_alarm_pool>:
10004f28:	10001379                                y...

10004f2c <__pre_init_first_per_core_initializer>:
10004f2c:	10001dd5                                ....

10004f30 <__pre_init_runtime_init_per_core_irq_priorities>:
10004f30:	10000be5                                ....

10004f34 <__init_array_start>:
10004f34:	10002aa5 	.word	0x10002aa5

10004f38 <__frame_dummy_init_array_entry>:
10004f38:	100002b1                                ....

Disassembly of section .data:

200000c0 <mutex_try_enter>:
200000c0:	0003      	movs	r3, r0
200000c2:	b510      	push	{r4, lr}
200000c4:	6800      	ldr	r0, [r0, #0]
200000c6:	f3ef 8410 	mrs	r4, PRIMASK
200000ca:	b672      	cpsid	i
200000cc:	6802      	ldr	r2, [r0, #0]
200000ce:	2a00      	cmp	r2, #0
200000d0:	d0fc      	beq.n	200000cc <mutex_try_enter+0xc>
200000d2:	f3bf 8f5f 	dmb	sy
200000d6:	2204      	movs	r2, #4
200000d8:	569a      	ldrsb	r2, [r3, r2]
200000da:	2a00      	cmp	r2, #0
200000dc:	db0b      	blt.n	200000f6 <mutex_try_enter+0x36>
200000de:	2900      	cmp	r1, #0
200000e0:	d00f      	beq.n	20000102 <mutex_try_enter+0x42>
200000e2:	2000      	movs	r0, #0
200000e4:	600a      	str	r2, [r1, #0]
200000e6:	681b      	ldr	r3, [r3, #0]
200000e8:	f3bf 8f5f 	dmb	sy
200000ec:	2200      	movs	r2, #0
200000ee:	601a      	str	r2, [r3, #0]
200000f0:	f384 8810 	msr	PRIMASK, r4
200000f4:	bd10      	pop	{r4, pc}
200000f6:	22d0      	movs	r2, #208	; 0xd0
200000f8:	0612      	lsls	r2, r2, #24
200000fa:	6812      	ldr	r2, [r2, #0]
200000fc:	2001      	movs	r0, #1
200000fe:	711a      	strb	r2, [r3, #4]
20000100:	e7f1      	b.n	200000e6 <mutex_try_enter+0x26>
20000102:	2000      	movs	r0, #0
20000104:	e7ef      	b.n	200000e6 <mutex_try_enter+0x26>
20000106:	46c0      	nop			; (mov r8, r8)

20000108 <mutex_try_enter_block_until>:
20000108:	b5f0      	push	{r4, r5, r6, r7, lr}
2000010a:	46c6      	mov	lr, r8
2000010c:	0016      	movs	r6, r2
2000010e:	b500      	push	{lr}
20000110:	0004      	movs	r4, r0
20000112:	001f      	movs	r7, r3
20000114:	6802      	ldr	r2, [r0, #0]
20000116:	f3ef 8110 	mrs	r1, PRIMASK
2000011a:	b672      	cpsid	i
2000011c:	6813      	ldr	r3, [r2, #0]
2000011e:	2b00      	cmp	r3, #0
20000120:	d0fc      	beq.n	2000011c <mutex_try_enter_block_until+0x14>
20000122:	f3bf 8f5f 	dmb	sy
20000126:	2304      	movs	r3, #4
20000128:	56e3      	ldrsb	r3, [r4, r3]
2000012a:	2b00      	cmp	r3, #0
2000012c:	db2d      	blt.n	2000018a <mutex_try_enter_block_until+0x82>
2000012e:	6822      	ldr	r2, [r4, #0]
20000130:	f3bf 8f5f 	dmb	sy
20000134:	2000      	movs	r0, #0
20000136:	6010      	str	r0, [r2, #0]
20000138:	f381 8810 	msr	PRIMASK, r1
2000013c:	22d0      	movs	r2, #208	; 0xd0
2000013e:	0612      	lsls	r2, r2, #24
20000140:	7812      	ldrb	r2, [r2, #0]
20000142:	b252      	sxtb	r2, r2
20000144:	4690      	mov	r8, r2
20000146:	429a      	cmp	r2, r3
20000148:	d01b      	beq.n	20000182 <mutex_try_enter_block_until+0x7a>
2000014a:	2500      	movs	r5, #0
2000014c:	e00b      	b.n	20000166 <mutex_try_enter_block_until+0x5e>
2000014e:	6823      	ldr	r3, [r4, #0]
20000150:	f3bf 8f5f 	dmb	sy
20000154:	601d      	str	r5, [r3, #0]
20000156:	f381 8810 	msr	PRIMASK, r1
2000015a:	0030      	movs	r0, r6
2000015c:	0039      	movs	r1, r7
2000015e:	f000 ff4f 	bl	20001000 <__best_effort_wfe_or_timeout_veneer>
20000162:	2800      	cmp	r0, #0
20000164:	d10d      	bne.n	20000182 <mutex_try_enter_block_until+0x7a>
20000166:	6822      	ldr	r2, [r4, #0]
20000168:	f3ef 8110 	mrs	r1, PRIMASK
2000016c:	b672      	cpsid	i
2000016e:	6813      	ldr	r3, [r2, #0]
20000170:	2b00      	cmp	r3, #0
20000172:	d0fc      	beq.n	2000016e <mutex_try_enter_block_until+0x66>
20000174:	f3bf 8f5f 	dmb	sy
20000178:	7923      	ldrb	r3, [r4, #4]
2000017a:	2b7f      	cmp	r3, #127	; 0x7f
2000017c:	d9e7      	bls.n	2000014e <mutex_try_enter_block_until+0x46>
2000017e:	4643      	mov	r3, r8
20000180:	e006      	b.n	20000190 <mutex_try_enter_block_until+0x88>
20000182:	2000      	movs	r0, #0
20000184:	bc04      	pop	{r2}
20000186:	4690      	mov	r8, r2
20000188:	bdf0      	pop	{r4, r5, r6, r7, pc}
2000018a:	23d0      	movs	r3, #208	; 0xd0
2000018c:	061b      	lsls	r3, r3, #24
2000018e:	681b      	ldr	r3, [r3, #0]
20000190:	7123      	strb	r3, [r4, #4]
20000192:	6823      	ldr	r3, [r4, #0]
20000194:	f3bf 8f5f 	dmb	sy
20000198:	2200      	movs	r2, #0
2000019a:	601a      	str	r2, [r3, #0]
2000019c:	f381 8810 	msr	PRIMASK, r1
200001a0:	2001      	movs	r0, #1
200001a2:	e7ef      	b.n	20000184 <mutex_try_enter_block_until+0x7c>

200001a4 <mutex_enter_timeout_ms>:
200001a4:	b5f0      	push	{r4, r5, r6, r7, lr}
200001a6:	46c6      	mov	lr, r8
200001a8:	b500      	push	{lr}
200001aa:	000d      	movs	r5, r1
200001ac:	0004      	movs	r4, r0
200001ae:	f000 ff3f 	bl	20001030 <__time_us_64_veneer>
200001b2:	22fa      	movs	r2, #250	; 0xfa
200001b4:	0006      	movs	r6, r0
200001b6:	000f      	movs	r7, r1
200001b8:	0092      	lsls	r2, r2, #2
200001ba:	2300      	movs	r3, #0
200001bc:	0028      	movs	r0, r5
200001be:	2100      	movs	r1, #0
200001c0:	f000 ff3e 	bl	20001040 <____wrap___aeabi_lmul_veneer>
200001c4:	1836      	adds	r6, r6, r0
200001c6:	414f      	adcs	r7, r1
200001c8:	2f00      	cmp	r7, #0
200001ca:	da02      	bge.n	200001d2 <mutex_enter_timeout_ms+0x2e>
200001cc:	2601      	movs	r6, #1
200001ce:	4f17      	ldr	r7, [pc, #92]	; (2000022c <mutex_enter_timeout_ms+0x88>)
200001d0:	4276      	negs	r6, r6
200001d2:	23d0      	movs	r3, #208	; 0xd0
200001d4:	061b      	lsls	r3, r3, #24
200001d6:	681b      	ldr	r3, [r3, #0]
200001d8:	2500      	movs	r5, #0
200001da:	4698      	mov	r8, r3
200001dc:	e00b      	b.n	200001f6 <mutex_enter_timeout_ms+0x52>
200001de:	6823      	ldr	r3, [r4, #0]
200001e0:	f3bf 8f5f 	dmb	sy
200001e4:	601d      	str	r5, [r3, #0]
200001e6:	f381 8810 	msr	PRIMASK, r1
200001ea:	0030      	movs	r0, r6
200001ec:	0039      	movs	r1, r7
200001ee:	f000 ff07 	bl	20001000 <__best_effort_wfe_or_timeout_veneer>
200001f2:	2800      	cmp	r0, #0
200001f4:	d118      	bne.n	20000228 <mutex_enter_timeout_ms+0x84>
200001f6:	6822      	ldr	r2, [r4, #0]
200001f8:	f3ef 8110 	mrs	r1, PRIMASK
200001fc:	b672      	cpsid	i
200001fe:	6813      	ldr	r3, [r2, #0]
20000200:	2b00      	cmp	r3, #0
20000202:	d0fc      	beq.n	200001fe <mutex_enter_timeout_ms+0x5a>
20000204:	f3bf 8f5f 	dmb	sy
20000208:	7923      	ldrb	r3, [r4, #4]
2000020a:	2b7f      	cmp	r3, #127	; 0x7f
2000020c:	d9e7      	bls.n	200001de <mutex_enter_timeout_ms+0x3a>
2000020e:	4643      	mov	r3, r8
20000210:	7123      	strb	r3, [r4, #4]
20000212:	6823      	ldr	r3, [r4, #0]
20000214:	f3bf 8f5f 	dmb	sy
20000218:	2200      	movs	r2, #0
2000021a:	601a      	str	r2, [r3, #0]
2000021c:	f381 8810 	msr	PRIMASK, r1
20000220:	2001      	movs	r0, #1
20000222:	bc04      	pop	{r2}
20000224:	4690      	mov	r8, r2
20000226:	bdf0      	pop	{r4, r5, r6, r7, pc}
20000228:	2000      	movs	r0, #0
2000022a:	e7fa      	b.n	20000222 <mutex_enter_timeout_ms+0x7e>
2000022c:	7fffffff 	.word	0x7fffffff

20000230 <mutex_exit>:
20000230:	6802      	ldr	r2, [r0, #0]
20000232:	f3ef 8110 	mrs	r1, PRIMASK
20000236:	b672      	cpsid	i
20000238:	6813      	ldr	r3, [r2, #0]
2000023a:	2b00      	cmp	r3, #0
2000023c:	d0fc      	beq.n	20000238 <mutex_exit+0x8>
2000023e:	f3bf 8f5f 	dmb	sy
20000242:	23ff      	movs	r3, #255	; 0xff
20000244:	7103      	strb	r3, [r0, #4]
20000246:	6803      	ldr	r3, [r0, #0]
20000248:	f3bf 8f5f 	dmb	sy
2000024c:	2200      	movs	r2, #0
2000024e:	601a      	str	r2, [r3, #0]
20000250:	f381 8810 	msr	PRIMASK, r1
20000254:	bf40      	sev
20000256:	4770      	bx	lr

20000258 <flash_init_boot2_copyout>:
20000258:	b530      	push	{r4, r5, lr}
2000025a:	4d09      	ldr	r5, [pc, #36]	; (20000280 <flash_init_boot2_copyout+0x28>)
2000025c:	782b      	ldrb	r3, [r5, #0]
2000025e:	2b00      	cmp	r3, #0
20000260:	d10d      	bne.n	2000027e <flash_init_boot2_copyout+0x26>
20000262:	2380      	movs	r3, #128	; 0x80
20000264:	4c07      	ldr	r4, [pc, #28]	; (20000284 <flash_init_boot2_copyout+0x2c>)
20000266:	4808      	ldr	r0, [pc, #32]	; (20000288 <flash_init_boot2_copyout+0x30>)
20000268:	055b      	lsls	r3, r3, #21
2000026a:	22f0      	movs	r2, #240	; 0xf0
2000026c:	6819      	ldr	r1, [r3, #0]
2000026e:	0612      	lsls	r2, r2, #24
20000270:	189a      	adds	r2, r3, r2
20000272:	3304      	adds	r3, #4
20000274:	50a1      	str	r1, [r4, r2]
20000276:	4283      	cmp	r3, r0
20000278:	d1f7      	bne.n	2000026a <flash_init_boot2_copyout+0x12>
2000027a:	2301      	movs	r3, #1
2000027c:	702b      	strb	r3, [r5, #0]
2000027e:	bd30      	pop	{r4, r5, pc}
20000280:	20001e43 	.word	0x20001e43
20000284:	20001884 	.word	0x20001884
20000288:	10000100 	.word	0x10000100

2000028c <flash_enable_xip_via_boot2>:
2000028c:	b510      	push	{r4, lr}
2000028e:	4b02      	ldr	r3, [pc, #8]	; (20000298 <flash_enable_xip_via_boot2+0xc>)
20000290:	3301      	adds	r3, #1
20000292:	4798      	blx	r3
20000294:	bd10      	pop	{r4, pc}
20000296:	46c0      	nop			; (mov r8, r8)
20000298:	20001884 	.word	0x20001884

2000029c <flash_save_hardware_state>:
2000029c:	4b07      	ldr	r3, [pc, #28]	; (200002bc <flash_save_hardware_state+0x20>)
2000029e:	685b      	ldr	r3, [r3, #4]
200002a0:	6003      	str	r3, [r0, #0]
200002a2:	4b07      	ldr	r3, [pc, #28]	; (200002c0 <flash_save_hardware_state+0x24>)
200002a4:	685a      	ldr	r2, [r3, #4]
200002a6:	6042      	str	r2, [r0, #4]
200002a8:	689a      	ldr	r2, [r3, #8]
200002aa:	6082      	str	r2, [r0, #8]
200002ac:	68da      	ldr	r2, [r3, #12]
200002ae:	60c2      	str	r2, [r0, #12]
200002b0:	691a      	ldr	r2, [r3, #16]
200002b2:	695b      	ldr	r3, [r3, #20]
200002b4:	6102      	str	r2, [r0, #16]
200002b6:	6143      	str	r3, [r0, #20]
200002b8:	4770      	bx	lr
200002ba:	46c0      	nop			; (mov r8, r8)
200002bc:	40020000 	.word	0x40020000
200002c0:	40020004 	.word	0x40020004

200002c4 <flash_restore_hardware_state>:
200002c4:	6802      	ldr	r2, [r0, #0]
200002c6:	4b07      	ldr	r3, [pc, #28]	; (200002e4 <flash_restore_hardware_state+0x20>)
200002c8:	605a      	str	r2, [r3, #4]
200002ca:	6842      	ldr	r2, [r0, #4]
200002cc:	4b06      	ldr	r3, [pc, #24]	; (200002e8 <flash_restore_hardware_state+0x24>)
200002ce:	605a      	str	r2, [r3, #4]
200002d0:	6882      	ldr	r2, [r0, #8]
200002d2:	609a      	str	r2, [r3, #8]
200002d4:	68c2      	ldr	r2, [r0, #12]
200002d6:	60da      	str	r2, [r3, #12]
200002d8:	6902      	ldr	r2, [r0, #16]
200002da:	611a      	str	r2, [r3, #16]
200002dc:	6942      	ldr	r2, [r0, #20]
200002de:	615a      	str	r2, [r3, #20]
200002e0:	4770      	bx	lr
200002e2:	46c0      	nop			; (mov r8, r8)
200002e4:	40020000 	.word	0x40020000
200002e8:	40020004 	.word	0x40020004

200002ec <flash_cs_force.constprop.0>:
200002ec:	4b05      	ldr	r3, [pc, #20]	; (20000304 <flash_cs_force.constprop.0+0x18>)
200002ee:	681a      	ldr	r2, [r3, #0]
200002f0:	2380      	movs	r3, #128	; 0x80
200002f2:	009b      	lsls	r3, r3, #2
200002f4:	4053      	eors	r3, r2
200002f6:	22c0      	movs	r2, #192	; 0xc0
200002f8:	0092      	lsls	r2, r2, #2
200002fa:	4013      	ands	r3, r2
200002fc:	4a02      	ldr	r2, [pc, #8]	; (20000308 <flash_cs_force.constprop.0+0x1c>)
200002fe:	6013      	str	r3, [r2, #0]
20000300:	4770      	bx	lr
20000302:	46c0      	nop			; (mov r8, r8)
20000304:	4001800c 	.word	0x4001800c
20000308:	4001900c 	.word	0x4001900c

2000030c <flash_cs_force.constprop.1>:
2000030c:	4b03      	ldr	r3, [pc, #12]	; (2000031c <flash_cs_force.constprop.1+0x10>)
2000030e:	681a      	ldr	r2, [r3, #0]
20000310:	23c0      	movs	r3, #192	; 0xc0
20000312:	009b      	lsls	r3, r3, #2
20000314:	4393      	bics	r3, r2
20000316:	4a02      	ldr	r2, [pc, #8]	; (20000320 <flash_cs_force.constprop.1+0x14>)
20000318:	6013      	str	r3, [r2, #0]
2000031a:	4770      	bx	lr
2000031c:	4001800c 	.word	0x4001800c
20000320:	4001900c 	.word	0x4001900c

20000324 <flash_do_cmd>:
20000324:	b5f0      	push	{r4, r5, r6, r7, lr}
20000326:	46d6      	mov	lr, sl
20000328:	464f      	mov	r7, r9
2000032a:	4646      	mov	r6, r8
2000032c:	2314      	movs	r3, #20
2000032e:	b5c0      	push	{r6, r7, lr}
20000330:	2718      	movs	r7, #24
20000332:	4698      	mov	r8, r3
20000334:	b086      	sub	sp, #24
20000336:	4681      	mov	r9, r0
20000338:	000d      	movs	r5, r1
2000033a:	8818      	ldrh	r0, [r3, #0]
2000033c:	4925      	ldr	r1, [pc, #148]	; (200003d4 <flash_do_cmd+0xb0>)
2000033e:	883b      	ldrh	r3, [r7, #0]
20000340:	0014      	movs	r4, r2
20000342:	4798      	blx	r3
20000344:	4643      	mov	r3, r8
20000346:	4682      	mov	sl, r0
20000348:	4923      	ldr	r1, [pc, #140]	; (200003d8 <flash_do_cmd+0xb4>)
2000034a:	8818      	ldrh	r0, [r3, #0]
2000034c:	883b      	ldrh	r3, [r7, #0]
2000034e:	4798      	blx	r3
20000350:	4643      	mov	r3, r8
20000352:	4922      	ldr	r1, [pc, #136]	; (200003dc <flash_do_cmd+0xb8>)
20000354:	0006      	movs	r6, r0
20000356:	8818      	ldrh	r0, [r3, #0]
20000358:	883b      	ldrh	r3, [r7, #0]
2000035a:	4798      	blx	r3
2000035c:	4680      	mov	r8, r0
2000035e:	f7ff ff7b 	bl	20000258 <flash_init_boot2_copyout>
20000362:	4668      	mov	r0, sp
20000364:	f7ff ff9a 	bl	2000029c <flash_save_hardware_state>
20000368:	47d0      	blx	sl
2000036a:	47b0      	blx	r6
2000036c:	f7ff ffbe 	bl	200002ec <flash_cs_force.constprop.0>
20000370:	20c0      	movs	r0, #192	; 0xc0
20000372:	0022      	movs	r2, r4
20000374:	2608      	movs	r6, #8
20000376:	0540      	lsls	r0, r0, #21
20000378:	3f16      	subs	r7, #22
2000037a:	0023      	movs	r3, r4
2000037c:	4313      	orrs	r3, r2
2000037e:	d01b      	beq.n	200003b8 <flash_do_cmd+0x94>
20000380:	0031      	movs	r1, r6
20000382:	6a83      	ldr	r3, [r0, #40]	; 0x28
20000384:	4019      	ands	r1, r3
20000386:	421f      	tst	r7, r3
20000388:	d00b      	beq.n	200003a2 <flash_do_cmd+0x7e>
2000038a:	2c00      	cmp	r4, #0
2000038c:	d009      	beq.n	200003a2 <flash_do_cmd+0x7e>
2000038e:	1b13      	subs	r3, r2, r4
20000390:	2b0d      	cmp	r3, #13
20000392:	d806      	bhi.n	200003a2 <flash_do_cmd+0x7e>
20000394:	464b      	mov	r3, r9
20000396:	781b      	ldrb	r3, [r3, #0]
20000398:	3c01      	subs	r4, #1
2000039a:	6603      	str	r3, [r0, #96]	; 0x60
2000039c:	2301      	movs	r3, #1
2000039e:	469c      	mov	ip, r3
200003a0:	44e1      	add	r9, ip
200003a2:	2900      	cmp	r1, #0
200003a4:	d0e9      	beq.n	2000037a <flash_do_cmd+0x56>
200003a6:	2a00      	cmp	r2, #0
200003a8:	d0e7      	beq.n	2000037a <flash_do_cmd+0x56>
200003aa:	6e03      	ldr	r3, [r0, #96]	; 0x60
200003ac:	3a01      	subs	r2, #1
200003ae:	702b      	strb	r3, [r5, #0]
200003b0:	0023      	movs	r3, r4
200003b2:	3501      	adds	r5, #1
200003b4:	4313      	orrs	r3, r2
200003b6:	d1e3      	bne.n	20000380 <flash_do_cmd+0x5c>
200003b8:	f7ff ffa8 	bl	2000030c <flash_cs_force.constprop.1>
200003bc:	47c0      	blx	r8
200003be:	f7ff ff65 	bl	2000028c <flash_enable_xip_via_boot2>
200003c2:	4668      	mov	r0, sp
200003c4:	f7ff ff7e 	bl	200002c4 <flash_restore_hardware_state>
200003c8:	b006      	add	sp, #24
200003ca:	bc1c      	pop	{r2, r3, r4}
200003cc:	4690      	mov	r8, r2
200003ce:	4699      	mov	r9, r3
200003d0:	46a2      	mov	sl, r4
200003d2:	bdf0      	pop	{r4, r5, r6, r7, pc}
200003d4:	00004649 	.word	0x00004649
200003d8:	00005845 	.word	0x00005845
200003dc:	00004346 	.word	0x00004346

200003e0 <reset_non_control_endpoints>:
200003e0:	2300      	movs	r3, #0
200003e2:	4a1c      	ldr	r2, [pc, #112]	; (20000454 <reset_non_control_endpoints+0x74>)
200003e4:	b510      	push	{r4, lr}
200003e6:	6093      	str	r3, [r2, #8]
200003e8:	60d3      	str	r3, [r2, #12]
200003ea:	4a1b      	ldr	r2, [pc, #108]	; (20000458 <reset_non_control_endpoints+0x78>)
200003ec:	2100      	movs	r1, #0
200003ee:	6093      	str	r3, [r2, #8]
200003f0:	60d3      	str	r3, [r2, #12]
200003f2:	4a1a      	ldr	r2, [pc, #104]	; (2000045c <reset_non_control_endpoints+0x7c>)
200003f4:	481a      	ldr	r0, [pc, #104]	; (20000460 <reset_non_control_endpoints+0x80>)
200003f6:	6093      	str	r3, [r2, #8]
200003f8:	60d3      	str	r3, [r2, #12]
200003fa:	4a1a      	ldr	r2, [pc, #104]	; (20000464 <reset_non_control_endpoints+0x84>)
200003fc:	6093      	str	r3, [r2, #8]
200003fe:	60d3      	str	r3, [r2, #12]
20000400:	4a19      	ldr	r2, [pc, #100]	; (20000468 <reset_non_control_endpoints+0x88>)
20000402:	6093      	str	r3, [r2, #8]
20000404:	60d3      	str	r3, [r2, #12]
20000406:	4a19      	ldr	r2, [pc, #100]	; (2000046c <reset_non_control_endpoints+0x8c>)
20000408:	6093      	str	r3, [r2, #8]
2000040a:	60d3      	str	r3, [r2, #12]
2000040c:	4a18      	ldr	r2, [pc, #96]	; (20000470 <reset_non_control_endpoints+0x90>)
2000040e:	6093      	str	r3, [r2, #8]
20000410:	60d3      	str	r3, [r2, #12]
20000412:	4a18      	ldr	r2, [pc, #96]	; (20000474 <reset_non_control_endpoints+0x94>)
20000414:	6093      	str	r3, [r2, #8]
20000416:	60d3      	str	r3, [r2, #12]
20000418:	4a17      	ldr	r2, [pc, #92]	; (20000478 <reset_non_control_endpoints+0x98>)
2000041a:	6093      	str	r3, [r2, #8]
2000041c:	60d3      	str	r3, [r2, #12]
2000041e:	4a17      	ldr	r2, [pc, #92]	; (2000047c <reset_non_control_endpoints+0x9c>)
20000420:	6093      	str	r3, [r2, #8]
20000422:	60d3      	str	r3, [r2, #12]
20000424:	4a16      	ldr	r2, [pc, #88]	; (20000480 <reset_non_control_endpoints+0xa0>)
20000426:	6093      	str	r3, [r2, #8]
20000428:	60d3      	str	r3, [r2, #12]
2000042a:	4a16      	ldr	r2, [pc, #88]	; (20000484 <reset_non_control_endpoints+0xa4>)
2000042c:	6093      	str	r3, [r2, #8]
2000042e:	60d3      	str	r3, [r2, #12]
20000430:	4a15      	ldr	r2, [pc, #84]	; (20000488 <reset_non_control_endpoints+0xa8>)
20000432:	6093      	str	r3, [r2, #8]
20000434:	60d3      	str	r3, [r2, #12]
20000436:	4a15      	ldr	r2, [pc, #84]	; (2000048c <reset_non_control_endpoints+0xac>)
20000438:	6093      	str	r3, [r2, #8]
2000043a:	60d3      	str	r3, [r2, #12]
2000043c:	4a14      	ldr	r2, [pc, #80]	; (20000490 <reset_non_control_endpoints+0xb0>)
2000043e:	6093      	str	r3, [r2, #8]
20000440:	60d3      	str	r3, [r2, #12]
20000442:	22f0      	movs	r2, #240	; 0xf0
20000444:	0092      	lsls	r2, r2, #2
20000446:	f000 fe0b 	bl	20001060 <____wrap_memset_veneer>
2000044a:	4b12      	ldr	r3, [pc, #72]	; (20000494 <reset_non_control_endpoints+0xb4>)
2000044c:	4a12      	ldr	r2, [pc, #72]	; (20000498 <reset_non_control_endpoints+0xb8>)
2000044e:	601a      	str	r2, [r3, #0]
20000450:	bd10      	pop	{r4, pc}
20000452:	46c0      	nop			; (mov r8, r8)
20000454:	50100000 	.word	0x50100000
20000458:	50100008 	.word	0x50100008
2000045c:	50100010 	.word	0x50100010
20000460:	20001a30 	.word	0x20001a30
20000464:	50100018 	.word	0x50100018
20000468:	50100020 	.word	0x50100020
2000046c:	50100028 	.word	0x50100028
20000470:	50100030 	.word	0x50100030
20000474:	50100038 	.word	0x50100038
20000478:	50100040 	.word	0x50100040
2000047c:	50100048 	.word	0x50100048
20000480:	50100050 	.word	0x50100050
20000484:	50100058 	.word	0x50100058
20000488:	50100060 	.word	0x50100060
2000048c:	50100068 	.word	0x50100068
20000490:	50100070 	.word	0x50100070
20000494:	20001df8 	.word	0x20001df8
20000498:	50100180 	.word	0x50100180

2000049c <hw_handle_buff_status>:
2000049c:	b5f0      	push	{r4, r5, r6, r7, lr}
2000049e:	464f      	mov	r7, r9
200004a0:	46d6      	mov	lr, sl
200004a2:	4646      	mov	r6, r8
200004a4:	b5c0      	push	{r6, r7, lr}
200004a6:	4b20      	ldr	r3, [pc, #128]	; (20000528 <hw_handle_buff_status+0x8c>)
200004a8:	b084      	sub	sp, #16
200004aa:	6d9f      	ldr	r7, [r3, #88]	; 0x58
200004ac:	2f00      	cmp	r7, #0
200004ae:	d023      	beq.n	200004f8 <hw_handle_buff_status+0x5c>
200004b0:	4b1e      	ldr	r3, [pc, #120]	; (2000052c <hw_handle_buff_status+0x90>)
200004b2:	2400      	movs	r4, #0
200004b4:	469a      	mov	sl, r3
200004b6:	2301      	movs	r3, #1
200004b8:	4699      	mov	r9, r3
200004ba:	4b1d      	ldr	r3, [pc, #116]	; (20000530 <hw_handle_buff_status+0x94>)
200004bc:	2601      	movs	r6, #1
200004be:	4698      	mov	r8, r3
200004c0:	e004      	b.n	200004cc <hw_handle_buff_status+0x30>
200004c2:	3401      	adds	r4, #1
200004c4:	0076      	lsls	r6, r6, #1
200004c6:	b2e4      	uxtb	r4, r4
200004c8:	2c20      	cmp	r4, #32
200004ca:	d015      	beq.n	200004f8 <hw_handle_buff_status+0x5c>
200004cc:	423e      	tst	r6, r7
200004ce:	d0f8      	beq.n	200004c2 <hw_handle_buff_status+0x26>
200004d0:	4653      	mov	r3, sl
200004d2:	659e      	str	r6, [r3, #88]	; 0x58
200004d4:	464b      	mov	r3, r9
200004d6:	0865      	lsrs	r5, r4, #1
200004d8:	006d      	lsls	r5, r5, #1
200004da:	43a3      	bics	r3, r4
200004dc:	18ed      	adds	r5, r5, r3
200004de:	016d      	lsls	r5, r5, #5
200004e0:	4445      	add	r5, r8
200004e2:	0028      	movs	r0, r5
200004e4:	f000 fc66 	bl	20000db4 <hw_endpoint_xfer_continue>
200004e8:	2800      	cmp	r0, #0
200004ea:	d10b      	bne.n	20000504 <hw_handle_buff_status+0x68>
200004ec:	3401      	adds	r4, #1
200004ee:	43b7      	bics	r7, r6
200004f0:	b2e4      	uxtb	r4, r4
200004f2:	0076      	lsls	r6, r6, #1
200004f4:	2f00      	cmp	r7, #0
200004f6:	d1e7      	bne.n	200004c8 <hw_handle_buff_status+0x2c>
200004f8:	b004      	add	sp, #16
200004fa:	bc1c      	pop	{r2, r3, r4}
200004fc:	4690      	mov	r8, r2
200004fe:	4699      	mov	r9, r3
20000500:	46a2      	mov	sl, r4
20000502:	bdf0      	pop	{r4, r5, r6, r7, pc}
20000504:	8aeb      	ldrh	r3, [r5, #22]
20000506:	21e0      	movs	r1, #224	; 0xe0
20000508:	a801      	add	r0, sp, #4
2000050a:	6083      	str	r3, [r0, #8]
2000050c:	2300      	movs	r3, #0
2000050e:	78aa      	ldrb	r2, [r5, #2]
20000510:	00c9      	lsls	r1, r1, #3
20000512:	8001      	strh	r1, [r0, #0]
20000514:	2101      	movs	r1, #1
20000516:	7102      	strb	r2, [r0, #4]
20000518:	7143      	strb	r3, [r0, #5]
2000051a:	f000 fc6b 	bl	20000df4 <dcd_event_handler>
2000051e:	0028      	movs	r0, r5
20000520:	f000 fbe4 	bl	20000cec <hw_endpoint_reset_transfer>
20000524:	e7e2      	b.n	200004ec <hw_handle_buff_status+0x50>
20000526:	46c0      	nop			; (mov r8, r8)
20000528:	50110000 	.word	0x50110000
2000052c:	50113000 	.word	0x50113000
20000530:	200019f0 	.word	0x200019f0

20000534 <dcd_rp2040_irq>:
20000534:	2398      	movs	r3, #152	; 0x98
20000536:	b5f0      	push	{r4, r5, r6, r7, lr}
20000538:	4ac4      	ldr	r2, [pc, #784]	; (2000084c <dcd_rp2040_irq+0x318>)
2000053a:	b085      	sub	sp, #20
2000053c:	58d5      	ldr	r5, [r2, r3]
2000053e:	03ab      	lsls	r3, r5, #14
20000540:	d579      	bpl.n	20000636 <dcd_rp2040_irq+0x102>
20000542:	4bc3      	ldr	r3, [pc, #780]	; (20000850 <dcd_rp2040_irq+0x31c>)
20000544:	4cc3      	ldr	r4, [pc, #780]	; (20000854 <dcd_rp2040_irq+0x320>)
20000546:	6a9a      	ldr	r2, [r3, #40]	; 0x28
20000548:	4bc3      	ldr	r3, [pc, #780]	; (20000858 <dcd_rp2040_irq+0x324>)
2000054a:	2600      	movs	r6, #0
2000054c:	601a      	str	r2, [r3, #0]
2000054e:	233b      	movs	r3, #59	; 0x3b
20000550:	5ce3      	ldrb	r3, [r4, r3]
20000552:	2b02      	cmp	r3, #2
20000554:	d100      	bne.n	20000558 <dcd_rp2040_irq+0x24>
20000556:	e11c      	b.n	20000792 <dcd_rp2040_irq+0x25e>
20000558:	237b      	movs	r3, #123	; 0x7b
2000055a:	5ce3      	ldrb	r3, [r4, r3]
2000055c:	2b02      	cmp	r3, #2
2000055e:	d100      	bne.n	20000562 <dcd_rp2040_irq+0x2e>
20000560:	e128      	b.n	200007b4 <dcd_rp2040_irq+0x280>
20000562:	23bb      	movs	r3, #187	; 0xbb
20000564:	5ce3      	ldrb	r3, [r4, r3]
20000566:	2b02      	cmp	r3, #2
20000568:	d100      	bne.n	2000056c <dcd_rp2040_irq+0x38>
2000056a:	e135      	b.n	200007d8 <dcd_rp2040_irq+0x2a4>
2000056c:	23fb      	movs	r3, #251	; 0xfb
2000056e:	5ce3      	ldrb	r3, [r4, r3]
20000570:	2b02      	cmp	r3, #2
20000572:	d100      	bne.n	20000576 <dcd_rp2040_irq+0x42>
20000574:	e142      	b.n	200007fc <dcd_rp2040_irq+0x2c8>
20000576:	233c      	movs	r3, #60	; 0x3c
20000578:	33ff      	adds	r3, #255	; 0xff
2000057a:	5ce3      	ldrb	r3, [r4, r3]
2000057c:	2b02      	cmp	r3, #2
2000057e:	d100      	bne.n	20000582 <dcd_rp2040_irq+0x4e>
20000580:	e14e      	b.n	20000820 <dcd_rp2040_irq+0x2ec>
20000582:	237c      	movs	r3, #124	; 0x7c
20000584:	33ff      	adds	r3, #255	; 0xff
20000586:	5ce3      	ldrb	r3, [r4, r3]
20000588:	2b02      	cmp	r3, #2
2000058a:	d100      	bne.n	2000058e <dcd_rp2040_irq+0x5a>
2000058c:	e184      	b.n	20000898 <dcd_rp2040_irq+0x364>
2000058e:	23bc      	movs	r3, #188	; 0xbc
20000590:	33ff      	adds	r3, #255	; 0xff
20000592:	5ce3      	ldrb	r3, [r4, r3]
20000594:	2b02      	cmp	r3, #2
20000596:	d100      	bne.n	2000059a <dcd_rp2040_irq+0x66>
20000598:	e193      	b.n	200008c2 <dcd_rp2040_irq+0x38e>
2000059a:	23fc      	movs	r3, #252	; 0xfc
2000059c:	33ff      	adds	r3, #255	; 0xff
2000059e:	5ce3      	ldrb	r3, [r4, r3]
200005a0:	2b02      	cmp	r3, #2
200005a2:	d100      	bne.n	200005a6 <dcd_rp2040_irq+0x72>
200005a4:	e1a2      	b.n	200008ec <dcd_rp2040_irq+0x3b8>
200005a6:	4bad      	ldr	r3, [pc, #692]	; (2000085c <dcd_rp2040_irq+0x328>)
200005a8:	5ce3      	ldrb	r3, [r4, r3]
200005aa:	2b02      	cmp	r3, #2
200005ac:	d100      	bne.n	200005b0 <dcd_rp2040_irq+0x7c>
200005ae:	e1b2      	b.n	20000916 <dcd_rp2040_irq+0x3e2>
200005b0:	4bab      	ldr	r3, [pc, #684]	; (20000860 <dcd_rp2040_irq+0x32c>)
200005b2:	5ce3      	ldrb	r3, [r4, r3]
200005b4:	2b02      	cmp	r3, #2
200005b6:	d100      	bne.n	200005ba <dcd_rp2040_irq+0x86>
200005b8:	e1c1      	b.n	2000093e <dcd_rp2040_irq+0x40a>
200005ba:	4baa      	ldr	r3, [pc, #680]	; (20000864 <dcd_rp2040_irq+0x330>)
200005bc:	5ce3      	ldrb	r3, [r4, r3]
200005be:	2b02      	cmp	r3, #2
200005c0:	d100      	bne.n	200005c4 <dcd_rp2040_irq+0x90>
200005c2:	e1d0      	b.n	20000966 <dcd_rp2040_irq+0x432>
200005c4:	4ba8      	ldr	r3, [pc, #672]	; (20000868 <dcd_rp2040_irq+0x334>)
200005c6:	5ce3      	ldrb	r3, [r4, r3]
200005c8:	2b02      	cmp	r3, #2
200005ca:	d100      	bne.n	200005ce <dcd_rp2040_irq+0x9a>
200005cc:	e1df      	b.n	2000098e <dcd_rp2040_irq+0x45a>
200005ce:	4ba7      	ldr	r3, [pc, #668]	; (2000086c <dcd_rp2040_irq+0x338>)
200005d0:	5ce3      	ldrb	r3, [r4, r3]
200005d2:	2b02      	cmp	r3, #2
200005d4:	d100      	bne.n	200005d8 <dcd_rp2040_irq+0xa4>
200005d6:	e1ee      	b.n	200009b6 <dcd_rp2040_irq+0x482>
200005d8:	4ba5      	ldr	r3, [pc, #660]	; (20000870 <dcd_rp2040_irq+0x33c>)
200005da:	5ce3      	ldrb	r3, [r4, r3]
200005dc:	2b02      	cmp	r3, #2
200005de:	d100      	bne.n	200005e2 <dcd_rp2040_irq+0xae>
200005e0:	e1fd      	b.n	200009de <dcd_rp2040_irq+0x4aa>
200005e2:	4ba4      	ldr	r3, [pc, #656]	; (20000874 <dcd_rp2040_irq+0x340>)
200005e4:	5ce3      	ldrb	r3, [r4, r3]
200005e6:	2b02      	cmp	r3, #2
200005e8:	d100      	bne.n	200005ec <dcd_rp2040_irq+0xb8>
200005ea:	e0bc      	b.n	20000766 <dcd_rp2040_irq+0x232>
200005ec:	4ba2      	ldr	r3, [pc, #648]	; (20000878 <dcd_rp2040_irq+0x344>)
200005ee:	5ce3      	ldrb	r3, [r4, r3]
200005f0:	2b02      	cmp	r3, #2
200005f2:	d100      	bne.n	200005f6 <dcd_rp2040_irq+0xc2>
200005f4:	e217      	b.n	20000a26 <dcd_rp2040_irq+0x4f2>
200005f6:	2e00      	cmp	r6, #0
200005f8:	d108      	bne.n	2000060c <dcd_rp2040_irq+0xd8>
200005fa:	4ba0      	ldr	r3, [pc, #640]	; (2000087c <dcd_rp2040_irq+0x348>)
200005fc:	781b      	ldrb	r3, [r3, #0]
200005fe:	2b00      	cmp	r3, #0
20000600:	d104      	bne.n	2000060c <dcd_rp2040_irq+0xd8>
20000602:	2180      	movs	r1, #128	; 0x80
20000604:	4a9e      	ldr	r2, [pc, #632]	; (20000880 <dcd_rp2040_irq+0x34c>)
20000606:	3390      	adds	r3, #144	; 0x90
20000608:	0289      	lsls	r1, r1, #10
2000060a:	50d1      	str	r1, [r2, r3]
2000060c:	22c0      	movs	r2, #192	; 0xc0
2000060e:	2680      	movs	r6, #128	; 0x80
20000610:	4b8e      	ldr	r3, [pc, #568]	; (2000084c <dcd_rp2040_irq+0x318>)
20000612:	a801      	add	r0, sp, #4
20000614:	6c9b      	ldr	r3, [r3, #72]	; 0x48
20000616:	0092      	lsls	r2, r2, #2
20000618:	055b      	lsls	r3, r3, #21
2000061a:	0d5b      	lsrs	r3, r3, #21
2000061c:	8002      	strh	r2, [r0, #0]
2000061e:	2101      	movs	r1, #1
20000620:	6043      	str	r3, [r0, #4]
20000622:	4c98      	ldr	r4, [pc, #608]	; (20000884 <dcd_rp2040_irq+0x350>)
20000624:	f000 fbe6 	bl	20000df4 <dcd_event_handler>
20000628:	02b6      	lsls	r6, r6, #10
2000062a:	06eb      	lsls	r3, r5, #27
2000062c:	d507      	bpl.n	2000063e <dcd_rp2040_irq+0x10a>
2000062e:	f7ff ff35 	bl	2000049c <hw_handle_buff_status>
20000632:	0026      	movs	r6, r4
20000634:	e003      	b.n	2000063e <dcd_rp2040_irq+0x10a>
20000636:	2410      	movs	r4, #16
20000638:	2600      	movs	r6, #0
2000063a:	06eb      	lsls	r3, r5, #27
2000063c:	d4f7      	bmi.n	2000062e <dcd_rp2040_irq+0xfa>
2000063e:	2380      	movs	r3, #128	; 0x80
20000640:	025b      	lsls	r3, r3, #9
20000642:	421d      	tst	r5, r3
20000644:	d032      	beq.n	200006ac <dcd_rp2040_irq+0x178>
20000646:	4c83      	ldr	r4, [pc, #524]	; (20000854 <dcd_rp2040_irq+0x320>)
20000648:	431e      	orrs	r6, r3
2000064a:	7ea3      	ldrb	r3, [r4, #26]
2000064c:	2b00      	cmp	r3, #0
2000064e:	d015      	beq.n	2000067c <dcd_rp2040_irq+0x148>
20000650:	f000 fcfe 	bl	20001050 <__rp2040_chip_version_veneer>
20000654:	2801      	cmp	r0, #1
20000656:	d900      	bls.n	2000065a <dcd_rp2040_irq+0x126>
20000658:	e1d5      	b.n	20000a06 <dcd_rp2040_irq+0x4d2>
2000065a:	22c0      	movs	r2, #192	; 0xc0
2000065c:	2100      	movs	r1, #0
2000065e:	0192      	lsls	r2, r2, #6
20000660:	0020      	movs	r0, r4
20000662:	f000 fb49 	bl	20000cf8 <_hw_endpoint_buffer_control_update32>
20000666:	0020      	movs	r0, r4
20000668:	f000 fb40 	bl	20000cec <hw_endpoint_reset_transfer>
2000066c:	f000 fcf0 	bl	20001050 <__rp2040_chip_version_veneer>
20000670:	2801      	cmp	r0, #1
20000672:	d903      	bls.n	2000067c <dcd_rp2040_irq+0x148>
20000674:	2202      	movs	r2, #2
20000676:	4b82      	ldr	r3, [pc, #520]	; (20000880 <dcd_rp2040_irq+0x34c>)
20000678:	665a      	str	r2, [r3, #100]	; 0x64
2000067a:	661a      	str	r2, [r3, #96]	; 0x60
2000067c:	2701      	movs	r7, #1
2000067e:	233a      	movs	r3, #58	; 0x3a
20000680:	70e7      	strb	r7, [r4, #3]
20000682:	5ce3      	ldrb	r3, [r4, r3]
20000684:	2b00      	cmp	r3, #0
20000686:	d122      	bne.n	200006ce <dcd_rp2040_irq+0x19a>
20000688:	2323      	movs	r3, #35	; 0x23
2000068a:	2201      	movs	r2, #1
2000068c:	54e2      	strb	r2, [r4, r3]
2000068e:	23c0      	movs	r3, #192	; 0xc0
20000690:	a801      	add	r0, sp, #4
20000692:	00db      	lsls	r3, r3, #3
20000694:	4a7c      	ldr	r2, [pc, #496]	; (20000888 <dcd_rp2040_irq+0x354>)
20000696:	8003      	strh	r3, [r0, #0]
20000698:	ab02      	add	r3, sp, #8
2000069a:	ca12      	ldmia	r2!, {r1, r4}
2000069c:	c312      	stmia	r3!, {r1, r4}
2000069e:	2101      	movs	r1, #1
200006a0:	f000 fba8 	bl	20000df4 <dcd_event_handler>
200006a4:	2280      	movs	r2, #128	; 0x80
200006a6:	4b76      	ldr	r3, [pc, #472]	; (20000880 <dcd_rp2040_irq+0x34c>)
200006a8:	0292      	lsls	r2, r2, #10
200006aa:	651a      	str	r2, [r3, #80]	; 0x50
200006ac:	2380      	movs	r3, #128	; 0x80
200006ae:	015b      	lsls	r3, r3, #5
200006b0:	421d      	tst	r5, r3
200006b2:	d124      	bne.n	200006fe <dcd_rp2040_irq+0x1ca>
200006b4:	2380      	movs	r3, #128	; 0x80
200006b6:	01db      	lsls	r3, r3, #7
200006b8:	421d      	tst	r5, r3
200006ba:	d136      	bne.n	2000072a <dcd_rp2040_irq+0x1f6>
200006bc:	2380      	movs	r3, #128	; 0x80
200006be:	021b      	lsls	r3, r3, #8
200006c0:	421d      	tst	r5, r3
200006c2:	d142      	bne.n	2000074a <dcd_rp2040_irq+0x216>
200006c4:	42ae      	cmp	r6, r5
200006c6:	d000      	beq.n	200006ca <dcd_rp2040_irq+0x196>
200006c8:	e1c7      	b.n	20000a5a <dcd_rp2040_irq+0x526>
200006ca:	b005      	add	sp, #20
200006cc:	bdf0      	pop	{r4, r5, r6, r7, pc}
200006ce:	f000 fcbf 	bl	20001050 <__rp2040_chip_version_veneer>
200006d2:	2801      	cmp	r0, #1
200006d4:	d900      	bls.n	200006d8 <dcd_rp2040_irq+0x1a4>
200006d6:	e19e      	b.n	20000a16 <dcd_rp2040_irq+0x4e2>
200006d8:	22c0      	movs	r2, #192	; 0xc0
200006da:	4f6c      	ldr	r7, [pc, #432]	; (2000088c <dcd_rp2040_irq+0x358>)
200006dc:	0192      	lsls	r2, r2, #6
200006de:	2100      	movs	r1, #0
200006e0:	0038      	movs	r0, r7
200006e2:	f000 fb09 	bl	20000cf8 <_hw_endpoint_buffer_control_update32>
200006e6:	0038      	movs	r0, r7
200006e8:	f000 fb00 	bl	20000cec <hw_endpoint_reset_transfer>
200006ec:	f000 fcb0 	bl	20001050 <__rp2040_chip_version_veneer>
200006f0:	2801      	cmp	r0, #1
200006f2:	d9c9      	bls.n	20000688 <dcd_rp2040_irq+0x154>
200006f4:	2201      	movs	r2, #1
200006f6:	4b62      	ldr	r3, [pc, #392]	; (20000880 <dcd_rp2040_irq+0x34c>)
200006f8:	665a      	str	r2, [r3, #100]	; 0x64
200006fa:	661a      	str	r2, [r3, #96]	; 0x60
200006fc:	e7c4      	b.n	20000688 <dcd_rp2040_irq+0x154>
200006fe:	2400      	movs	r4, #0
20000700:	431e      	orrs	r6, r3
20000702:	4b52      	ldr	r3, [pc, #328]	; (2000084c <dcd_rp2040_irq+0x318>)
20000704:	601c      	str	r4, [r3, #0]
20000706:	f7ff fe6b 	bl	200003e0 <reset_non_control_endpoints>
2000070a:	2380      	movs	r3, #128	; 0x80
2000070c:	a801      	add	r0, sp, #4
2000070e:	005b      	lsls	r3, r3, #1
20000710:	8003      	strh	r3, [r0, #0]
20000712:	2101      	movs	r1, #1
20000714:	7104      	strb	r4, [r0, #4]
20000716:	f000 fb6d 	bl	20000df4 <dcd_event_handler>
2000071a:	2280      	movs	r2, #128	; 0x80
2000071c:	4b58      	ldr	r3, [pc, #352]	; (20000880 <dcd_rp2040_irq+0x34c>)
2000071e:	0312      	lsls	r2, r2, #12
20000720:	651a      	str	r2, [r3, #80]	; 0x50
20000722:	2380      	movs	r3, #128	; 0x80
20000724:	01db      	lsls	r3, r3, #7
20000726:	421d      	tst	r5, r3
20000728:	d0c8      	beq.n	200006bc <dcd_rp2040_irq+0x188>
2000072a:	431e      	orrs	r6, r3
2000072c:	2300      	movs	r3, #0
2000072e:	a801      	add	r0, sp, #4
20000730:	7003      	strb	r3, [r0, #0]
20000732:	2101      	movs	r1, #1
20000734:	3304      	adds	r3, #4
20000736:	7043      	strb	r3, [r0, #1]
20000738:	f000 fb5c 	bl	20000df4 <dcd_event_handler>
2000073c:	2210      	movs	r2, #16
2000073e:	4b50      	ldr	r3, [pc, #320]	; (20000880 <dcd_rp2040_irq+0x34c>)
20000740:	651a      	str	r2, [r3, #80]	; 0x50
20000742:	2380      	movs	r3, #128	; 0x80
20000744:	021b      	lsls	r3, r3, #8
20000746:	421d      	tst	r5, r3
20000748:	d0bc      	beq.n	200006c4 <dcd_rp2040_irq+0x190>
2000074a:	431e      	orrs	r6, r3
2000074c:	2300      	movs	r3, #0
2000074e:	a801      	add	r0, sp, #4
20000750:	7003      	strb	r3, [r0, #0]
20000752:	2101      	movs	r1, #1
20000754:	3305      	adds	r3, #5
20000756:	7043      	strb	r3, [r0, #1]
20000758:	f000 fb4c 	bl	20000df4 <dcd_event_handler>
2000075c:	2280      	movs	r2, #128	; 0x80
2000075e:	4b48      	ldr	r3, [pc, #288]	; (20000880 <dcd_rp2040_irq+0x34c>)
20000760:	0112      	lsls	r2, r2, #4
20000762:	651a      	str	r2, [r3, #80]	; 0x50
20000764:	e7ae      	b.n	200006c4 <dcd_rp2040_irq+0x190>
20000766:	4b4a      	ldr	r3, [pc, #296]	; (20000890 <dcd_rp2040_irq+0x35c>)
20000768:	5ce3      	ldrb	r3, [r4, r3]
2000076a:	2b00      	cmp	r3, #0
2000076c:	d100      	bne.n	20000770 <dcd_rp2040_irq+0x23c>
2000076e:	e73d      	b.n	200005ec <dcd_rp2040_irq+0xb8>
20000770:	23ef      	movs	r3, #239	; 0xef
20000772:	009b      	lsls	r3, r3, #2
20000774:	5ce2      	ldrb	r2, [r4, r3]
20000776:	2a00      	cmp	r2, #0
20000778:	d000      	beq.n	2000077c <dcd_rp2040_irq+0x248>
2000077a:	e166      	b.n	20000a4a <dcd_rp2040_irq+0x516>
2000077c:	4b3e      	ldr	r3, [pc, #248]	; (20000878 <dcd_rp2040_irq+0x344>)
2000077e:	5ce3      	ldrb	r3, [r4, r3]
20000780:	2b02      	cmp	r3, #2
20000782:	d000      	beq.n	20000786 <dcd_rp2040_irq+0x252>
20000784:	e742      	b.n	2000060c <dcd_rp2040_irq+0xd8>
20000786:	4b43      	ldr	r3, [pc, #268]	; (20000894 <dcd_rp2040_irq+0x360>)
20000788:	5ce3      	ldrb	r3, [r4, r3]
2000078a:	2b00      	cmp	r3, #0
2000078c:	d000      	beq.n	20000790 <dcd_rp2040_irq+0x25c>
2000078e:	e14f      	b.n	20000a30 <dcd_rp2040_irq+0x4fc>
20000790:	e73c      	b.n	2000060c <dcd_rp2040_irq+0xd8>
20000792:	3338      	adds	r3, #56	; 0x38
20000794:	5ce6      	ldrb	r6, [r4, r3]
20000796:	2e00      	cmp	r6, #0
20000798:	d100      	bne.n	2000079c <dcd_rp2040_irq+0x268>
2000079a:	e6dd      	b.n	20000558 <dcd_rp2040_irq+0x24>
2000079c:	3302      	adds	r3, #2
2000079e:	5ce2      	ldrb	r2, [r4, r3]
200007a0:	2a00      	cmp	r2, #0
200007a2:	d100      	bne.n	200007a6 <dcd_rp2040_irq+0x272>
200007a4:	e6d8      	b.n	20000558 <dcd_rp2040_irq+0x24>
200007a6:	2200      	movs	r2, #0
200007a8:	0020      	movs	r0, r4
200007aa:	54e2      	strb	r2, [r4, r3]
200007ac:	3020      	adds	r0, #32
200007ae:	f000 facb 	bl	20000d48 <hw_endpoint_start_next_buffer>
200007b2:	e6d1      	b.n	20000558 <dcd_rp2040_irq+0x24>
200007b4:	3378      	adds	r3, #120	; 0x78
200007b6:	5ce3      	ldrb	r3, [r4, r3]
200007b8:	2b00      	cmp	r3, #0
200007ba:	d100      	bne.n	200007be <dcd_rp2040_irq+0x28a>
200007bc:	e6d1      	b.n	20000562 <dcd_rp2040_irq+0x2e>
200007be:	227c      	movs	r2, #124	; 0x7c
200007c0:	5ca1      	ldrb	r1, [r4, r2]
200007c2:	001e      	movs	r6, r3
200007c4:	2900      	cmp	r1, #0
200007c6:	d100      	bne.n	200007ca <dcd_rp2040_irq+0x296>
200007c8:	e6cb      	b.n	20000562 <dcd_rp2040_irq+0x2e>
200007ca:	2300      	movs	r3, #0
200007cc:	0020      	movs	r0, r4
200007ce:	54a3      	strb	r3, [r4, r2]
200007d0:	3060      	adds	r0, #96	; 0x60
200007d2:	f000 fab9 	bl	20000d48 <hw_endpoint_start_next_buffer>
200007d6:	e6c4      	b.n	20000562 <dcd_rp2040_irq+0x2e>
200007d8:	33b8      	adds	r3, #184	; 0xb8
200007da:	5ce3      	ldrb	r3, [r4, r3]
200007dc:	2b00      	cmp	r3, #0
200007de:	d100      	bne.n	200007e2 <dcd_rp2040_irq+0x2ae>
200007e0:	e6c4      	b.n	2000056c <dcd_rp2040_irq+0x38>
200007e2:	22bc      	movs	r2, #188	; 0xbc
200007e4:	5ca1      	ldrb	r1, [r4, r2]
200007e6:	001e      	movs	r6, r3
200007e8:	2900      	cmp	r1, #0
200007ea:	d100      	bne.n	200007ee <dcd_rp2040_irq+0x2ba>
200007ec:	e6be      	b.n	2000056c <dcd_rp2040_irq+0x38>
200007ee:	2300      	movs	r3, #0
200007f0:	0020      	movs	r0, r4
200007f2:	54a3      	strb	r3, [r4, r2]
200007f4:	30a0      	adds	r0, #160	; 0xa0
200007f6:	f000 faa7 	bl	20000d48 <hw_endpoint_start_next_buffer>
200007fa:	e6b7      	b.n	2000056c <dcd_rp2040_irq+0x38>
200007fc:	33f8      	adds	r3, #248	; 0xf8
200007fe:	5ce3      	ldrb	r3, [r4, r3]
20000800:	2b00      	cmp	r3, #0
20000802:	d100      	bne.n	20000806 <dcd_rp2040_irq+0x2d2>
20000804:	e6b7      	b.n	20000576 <dcd_rp2040_irq+0x42>
20000806:	22fc      	movs	r2, #252	; 0xfc
20000808:	5ca1      	ldrb	r1, [r4, r2]
2000080a:	001e      	movs	r6, r3
2000080c:	2900      	cmp	r1, #0
2000080e:	d100      	bne.n	20000812 <dcd_rp2040_irq+0x2de>
20000810:	e6b1      	b.n	20000576 <dcd_rp2040_irq+0x42>
20000812:	2300      	movs	r3, #0
20000814:	0020      	movs	r0, r4
20000816:	54a3      	strb	r3, [r4, r2]
20000818:	30e0      	adds	r0, #224	; 0xe0
2000081a:	f000 fa95 	bl	20000d48 <hw_endpoint_start_next_buffer>
2000081e:	e6aa      	b.n	20000576 <dcd_rp2040_irq+0x42>
20000820:	3339      	adds	r3, #57	; 0x39
20000822:	33ff      	adds	r3, #255	; 0xff
20000824:	5ce3      	ldrb	r3, [r4, r3]
20000826:	2b00      	cmp	r3, #0
20000828:	d100      	bne.n	2000082c <dcd_rp2040_irq+0x2f8>
2000082a:	e6aa      	b.n	20000582 <dcd_rp2040_irq+0x4e>
2000082c:	229e      	movs	r2, #158	; 0x9e
2000082e:	0052      	lsls	r2, r2, #1
20000830:	5ca1      	ldrb	r1, [r4, r2]
20000832:	001e      	movs	r6, r3
20000834:	2900      	cmp	r1, #0
20000836:	d100      	bne.n	2000083a <dcd_rp2040_irq+0x306>
20000838:	e6a3      	b.n	20000582 <dcd_rp2040_irq+0x4e>
2000083a:	0020      	movs	r0, r4
2000083c:	2300      	movs	r3, #0
2000083e:	3021      	adds	r0, #33	; 0x21
20000840:	54a3      	strb	r3, [r4, r2]
20000842:	30ff      	adds	r0, #255	; 0xff
20000844:	f000 fa80 	bl	20000d48 <hw_endpoint_start_next_buffer>
20000848:	e69b      	b.n	20000582 <dcd_rp2040_irq+0x4e>
2000084a:	46c0      	nop			; (mov r8, r8)
2000084c:	50110000 	.word	0x50110000
20000850:	40054000 	.word	0x40054000
20000854:	200019f0 	.word	0x200019f0
20000858:	200019e8 	.word	0x200019e8
2000085c:	0000023b 	.word	0x0000023b
20000860:	0000027b 	.word	0x0000027b
20000864:	000002bb 	.word	0x000002bb
20000868:	000002fb 	.word	0x000002fb
2000086c:	0000033b 	.word	0x0000033b
20000870:	0000037b 	.word	0x0000037b
20000874:	000003bb 	.word	0x000003bb
20000878:	000003fb 	.word	0x000003fb
2000087c:	20001e41 	.word	0x20001e41
20000880:	50113000 	.word	0x50113000
20000884:	00020010 	.word	0x00020010
20000888:	50100000 	.word	0x50100000
2000088c:	20001a10 	.word	0x20001a10
20000890:	000003ba 	.word	0x000003ba
20000894:	000003fa 	.word	0x000003fa
20000898:	3379      	adds	r3, #121	; 0x79
2000089a:	33ff      	adds	r3, #255	; 0xff
2000089c:	5ce3      	ldrb	r3, [r4, r3]
2000089e:	2b00      	cmp	r3, #0
200008a0:	d100      	bne.n	200008a4 <dcd_rp2040_irq+0x370>
200008a2:	e674      	b.n	2000058e <dcd_rp2040_irq+0x5a>
200008a4:	22be      	movs	r2, #190	; 0xbe
200008a6:	0052      	lsls	r2, r2, #1
200008a8:	5ca1      	ldrb	r1, [r4, r2]
200008aa:	001e      	movs	r6, r3
200008ac:	2900      	cmp	r1, #0
200008ae:	d100      	bne.n	200008b2 <dcd_rp2040_irq+0x37e>
200008b0:	e66d      	b.n	2000058e <dcd_rp2040_irq+0x5a>
200008b2:	0020      	movs	r0, r4
200008b4:	2300      	movs	r3, #0
200008b6:	3061      	adds	r0, #97	; 0x61
200008b8:	54a3      	strb	r3, [r4, r2]
200008ba:	30ff      	adds	r0, #255	; 0xff
200008bc:	f000 fa44 	bl	20000d48 <hw_endpoint_start_next_buffer>
200008c0:	e665      	b.n	2000058e <dcd_rp2040_irq+0x5a>
200008c2:	33b9      	adds	r3, #185	; 0xb9
200008c4:	33ff      	adds	r3, #255	; 0xff
200008c6:	5ce3      	ldrb	r3, [r4, r3]
200008c8:	2b00      	cmp	r3, #0
200008ca:	d100      	bne.n	200008ce <dcd_rp2040_irq+0x39a>
200008cc:	e665      	b.n	2000059a <dcd_rp2040_irq+0x66>
200008ce:	22de      	movs	r2, #222	; 0xde
200008d0:	0052      	lsls	r2, r2, #1
200008d2:	5ca1      	ldrb	r1, [r4, r2]
200008d4:	001e      	movs	r6, r3
200008d6:	2900      	cmp	r1, #0
200008d8:	d100      	bne.n	200008dc <dcd_rp2040_irq+0x3a8>
200008da:	e65e      	b.n	2000059a <dcd_rp2040_irq+0x66>
200008dc:	0020      	movs	r0, r4
200008de:	2300      	movs	r3, #0
200008e0:	30a1      	adds	r0, #161	; 0xa1
200008e2:	54a3      	strb	r3, [r4, r2]
200008e4:	30ff      	adds	r0, #255	; 0xff
200008e6:	f000 fa2f 	bl	20000d48 <hw_endpoint_start_next_buffer>
200008ea:	e656      	b.n	2000059a <dcd_rp2040_irq+0x66>
200008ec:	33f9      	adds	r3, #249	; 0xf9
200008ee:	33ff      	adds	r3, #255	; 0xff
200008f0:	5ce3      	ldrb	r3, [r4, r3]
200008f2:	2b00      	cmp	r3, #0
200008f4:	d100      	bne.n	200008f8 <dcd_rp2040_irq+0x3c4>
200008f6:	e656      	b.n	200005a6 <dcd_rp2040_irq+0x72>
200008f8:	22fe      	movs	r2, #254	; 0xfe
200008fa:	0052      	lsls	r2, r2, #1
200008fc:	5ca1      	ldrb	r1, [r4, r2]
200008fe:	001e      	movs	r6, r3
20000900:	2900      	cmp	r1, #0
20000902:	d100      	bne.n	20000906 <dcd_rp2040_irq+0x3d2>
20000904:	e64f      	b.n	200005a6 <dcd_rp2040_irq+0x72>
20000906:	0020      	movs	r0, r4
20000908:	2300      	movs	r3, #0
2000090a:	30e1      	adds	r0, #225	; 0xe1
2000090c:	54a3      	strb	r3, [r4, r2]
2000090e:	30ff      	adds	r0, #255	; 0xff
20000910:	f000 fa1a 	bl	20000d48 <hw_endpoint_start_next_buffer>
20000914:	e647      	b.n	200005a6 <dcd_rp2040_irq+0x72>
20000916:	4b53      	ldr	r3, [pc, #332]	; (20000a64 <dcd_rp2040_irq+0x530>)
20000918:	5ce3      	ldrb	r3, [r4, r3]
2000091a:	2b00      	cmp	r3, #0
2000091c:	d100      	bne.n	20000920 <dcd_rp2040_irq+0x3ec>
2000091e:	e647      	b.n	200005b0 <dcd_rp2040_irq+0x7c>
20000920:	228f      	movs	r2, #143	; 0x8f
20000922:	0092      	lsls	r2, r2, #2
20000924:	5ca1      	ldrb	r1, [r4, r2]
20000926:	001e      	movs	r6, r3
20000928:	2900      	cmp	r1, #0
2000092a:	d100      	bne.n	2000092e <dcd_rp2040_irq+0x3fa>
2000092c:	e640      	b.n	200005b0 <dcd_rp2040_irq+0x7c>
2000092e:	2300      	movs	r3, #0
20000930:	54a3      	strb	r3, [r4, r2]
20000932:	2388      	movs	r3, #136	; 0x88
20000934:	009b      	lsls	r3, r3, #2
20000936:	18e0      	adds	r0, r4, r3
20000938:	f000 fa06 	bl	20000d48 <hw_endpoint_start_next_buffer>
2000093c:	e638      	b.n	200005b0 <dcd_rp2040_irq+0x7c>
2000093e:	4b4a      	ldr	r3, [pc, #296]	; (20000a68 <dcd_rp2040_irq+0x534>)
20000940:	5ce3      	ldrb	r3, [r4, r3]
20000942:	2b00      	cmp	r3, #0
20000944:	d100      	bne.n	20000948 <dcd_rp2040_irq+0x414>
20000946:	e638      	b.n	200005ba <dcd_rp2040_irq+0x86>
20000948:	229f      	movs	r2, #159	; 0x9f
2000094a:	0092      	lsls	r2, r2, #2
2000094c:	5ca1      	ldrb	r1, [r4, r2]
2000094e:	001e      	movs	r6, r3
20000950:	2900      	cmp	r1, #0
20000952:	d100      	bne.n	20000956 <dcd_rp2040_irq+0x422>
20000954:	e631      	b.n	200005ba <dcd_rp2040_irq+0x86>
20000956:	2300      	movs	r3, #0
20000958:	54a3      	strb	r3, [r4, r2]
2000095a:	2398      	movs	r3, #152	; 0x98
2000095c:	009b      	lsls	r3, r3, #2
2000095e:	18e0      	adds	r0, r4, r3
20000960:	f000 f9f2 	bl	20000d48 <hw_endpoint_start_next_buffer>
20000964:	e629      	b.n	200005ba <dcd_rp2040_irq+0x86>
20000966:	4b41      	ldr	r3, [pc, #260]	; (20000a6c <dcd_rp2040_irq+0x538>)
20000968:	5ce3      	ldrb	r3, [r4, r3]
2000096a:	2b00      	cmp	r3, #0
2000096c:	d100      	bne.n	20000970 <dcd_rp2040_irq+0x43c>
2000096e:	e629      	b.n	200005c4 <dcd_rp2040_irq+0x90>
20000970:	22af      	movs	r2, #175	; 0xaf
20000972:	0092      	lsls	r2, r2, #2
20000974:	5ca1      	ldrb	r1, [r4, r2]
20000976:	001e      	movs	r6, r3
20000978:	2900      	cmp	r1, #0
2000097a:	d100      	bne.n	2000097e <dcd_rp2040_irq+0x44a>
2000097c:	e622      	b.n	200005c4 <dcd_rp2040_irq+0x90>
2000097e:	2300      	movs	r3, #0
20000980:	54a3      	strb	r3, [r4, r2]
20000982:	23a8      	movs	r3, #168	; 0xa8
20000984:	009b      	lsls	r3, r3, #2
20000986:	18e0      	adds	r0, r4, r3
20000988:	f000 f9de 	bl	20000d48 <hw_endpoint_start_next_buffer>
2000098c:	e61a      	b.n	200005c4 <dcd_rp2040_irq+0x90>
2000098e:	4b38      	ldr	r3, [pc, #224]	; (20000a70 <dcd_rp2040_irq+0x53c>)
20000990:	5ce3      	ldrb	r3, [r4, r3]
20000992:	2b00      	cmp	r3, #0
20000994:	d100      	bne.n	20000998 <dcd_rp2040_irq+0x464>
20000996:	e61a      	b.n	200005ce <dcd_rp2040_irq+0x9a>
20000998:	22bf      	movs	r2, #191	; 0xbf
2000099a:	0092      	lsls	r2, r2, #2
2000099c:	5ca1      	ldrb	r1, [r4, r2]
2000099e:	001e      	movs	r6, r3
200009a0:	2900      	cmp	r1, #0
200009a2:	d100      	bne.n	200009a6 <dcd_rp2040_irq+0x472>
200009a4:	e613      	b.n	200005ce <dcd_rp2040_irq+0x9a>
200009a6:	2300      	movs	r3, #0
200009a8:	54a3      	strb	r3, [r4, r2]
200009aa:	23b8      	movs	r3, #184	; 0xb8
200009ac:	009b      	lsls	r3, r3, #2
200009ae:	18e0      	adds	r0, r4, r3
200009b0:	f000 f9ca 	bl	20000d48 <hw_endpoint_start_next_buffer>
200009b4:	e60b      	b.n	200005ce <dcd_rp2040_irq+0x9a>
200009b6:	4b2f      	ldr	r3, [pc, #188]	; (20000a74 <dcd_rp2040_irq+0x540>)
200009b8:	5ce3      	ldrb	r3, [r4, r3]
200009ba:	2b00      	cmp	r3, #0
200009bc:	d100      	bne.n	200009c0 <dcd_rp2040_irq+0x48c>
200009be:	e60b      	b.n	200005d8 <dcd_rp2040_irq+0xa4>
200009c0:	22cf      	movs	r2, #207	; 0xcf
200009c2:	0092      	lsls	r2, r2, #2
200009c4:	5ca1      	ldrb	r1, [r4, r2]
200009c6:	001e      	movs	r6, r3
200009c8:	2900      	cmp	r1, #0
200009ca:	d100      	bne.n	200009ce <dcd_rp2040_irq+0x49a>
200009cc:	e604      	b.n	200005d8 <dcd_rp2040_irq+0xa4>
200009ce:	2300      	movs	r3, #0
200009d0:	54a3      	strb	r3, [r4, r2]
200009d2:	23c8      	movs	r3, #200	; 0xc8
200009d4:	009b      	lsls	r3, r3, #2
200009d6:	18e0      	adds	r0, r4, r3
200009d8:	f000 f9b6 	bl	20000d48 <hw_endpoint_start_next_buffer>
200009dc:	e5fc      	b.n	200005d8 <dcd_rp2040_irq+0xa4>
200009de:	4b26      	ldr	r3, [pc, #152]	; (20000a78 <dcd_rp2040_irq+0x544>)
200009e0:	5ce3      	ldrb	r3, [r4, r3]
200009e2:	2b00      	cmp	r3, #0
200009e4:	d100      	bne.n	200009e8 <dcd_rp2040_irq+0x4b4>
200009e6:	e5fc      	b.n	200005e2 <dcd_rp2040_irq+0xae>
200009e8:	22df      	movs	r2, #223	; 0xdf
200009ea:	0092      	lsls	r2, r2, #2
200009ec:	5ca1      	ldrb	r1, [r4, r2]
200009ee:	001e      	movs	r6, r3
200009f0:	2900      	cmp	r1, #0
200009f2:	d100      	bne.n	200009f6 <dcd_rp2040_irq+0x4c2>
200009f4:	e5f5      	b.n	200005e2 <dcd_rp2040_irq+0xae>
200009f6:	2300      	movs	r3, #0
200009f8:	54a3      	strb	r3, [r4, r2]
200009fa:	23d8      	movs	r3, #216	; 0xd8
200009fc:	009b      	lsls	r3, r3, #2
200009fe:	18e0      	adds	r0, r4, r3
20000a00:	f000 f9a2 	bl	20000d48 <hw_endpoint_start_next_buffer>
20000a04:	e5ed      	b.n	200005e2 <dcd_rp2040_irq+0xae>
20000a06:	2202      	movs	r2, #2
20000a08:	4b1c      	ldr	r3, [pc, #112]	; (20000a7c <dcd_rp2040_irq+0x548>)
20000a0a:	491d      	ldr	r1, [pc, #116]	; (20000a80 <dcd_rp2040_irq+0x54c>)
20000a0c:	661a      	str	r2, [r3, #96]	; 0x60
20000a0e:	6e4b      	ldr	r3, [r1, #100]	; 0x64
20000a10:	421a      	tst	r2, r3
20000a12:	d0fc      	beq.n	20000a0e <dcd_rp2040_irq+0x4da>
20000a14:	e621      	b.n	2000065a <dcd_rp2040_irq+0x126>
20000a16:	2201      	movs	r2, #1
20000a18:	4b18      	ldr	r3, [pc, #96]	; (20000a7c <dcd_rp2040_irq+0x548>)
20000a1a:	4919      	ldr	r1, [pc, #100]	; (20000a80 <dcd_rp2040_irq+0x54c>)
20000a1c:	661f      	str	r7, [r3, #96]	; 0x60
20000a1e:	6e4b      	ldr	r3, [r1, #100]	; 0x64
20000a20:	421a      	tst	r2, r3
20000a22:	d0fc      	beq.n	20000a1e <dcd_rp2040_irq+0x4ea>
20000a24:	e658      	b.n	200006d8 <dcd_rp2040_irq+0x1a4>
20000a26:	4b17      	ldr	r3, [pc, #92]	; (20000a84 <dcd_rp2040_irq+0x550>)
20000a28:	5ce3      	ldrb	r3, [r4, r3]
20000a2a:	2b00      	cmp	r3, #0
20000a2c:	d100      	bne.n	20000a30 <dcd_rp2040_irq+0x4fc>
20000a2e:	e5e2      	b.n	200005f6 <dcd_rp2040_irq+0xc2>
20000a30:	23ff      	movs	r3, #255	; 0xff
20000a32:	009b      	lsls	r3, r3, #2
20000a34:	5ce2      	ldrb	r2, [r4, r3]
20000a36:	2a00      	cmp	r2, #0
20000a38:	d100      	bne.n	20000a3c <dcd_rp2040_irq+0x508>
20000a3a:	e5e7      	b.n	2000060c <dcd_rp2040_irq+0xd8>
20000a3c:	2200      	movs	r2, #0
20000a3e:	54e2      	strb	r2, [r4, r3]
20000a40:	3b1c      	subs	r3, #28
20000a42:	18e0      	adds	r0, r4, r3
20000a44:	f000 f980 	bl	20000d48 <hw_endpoint_start_next_buffer>
20000a48:	e5e0      	b.n	2000060c <dcd_rp2040_irq+0xd8>
20000a4a:	2200      	movs	r2, #0
20000a4c:	54e2      	strb	r2, [r4, r3]
20000a4e:	23e8      	movs	r3, #232	; 0xe8
20000a50:	009b      	lsls	r3, r3, #2
20000a52:	18e0      	adds	r0, r4, r3
20000a54:	f000 f978 	bl	20000d48 <hw_endpoint_start_next_buffer>
20000a58:	e690      	b.n	2000077c <dcd_rp2040_irq+0x248>
20000a5a:	0031      	movs	r1, r6
20000a5c:	480a      	ldr	r0, [pc, #40]	; (20000a88 <dcd_rp2040_irq+0x554>)
20000a5e:	4069      	eors	r1, r5
20000a60:	f000 fad6 	bl	20001010 <__panic_veneer>
20000a64:	0000023a 	.word	0x0000023a
20000a68:	0000027a 	.word	0x0000027a
20000a6c:	000002ba 	.word	0x000002ba
20000a70:	000002fa 	.word	0x000002fa
20000a74:	0000033a 	.word	0x0000033a
20000a78:	0000037a 	.word	0x0000037a
20000a7c:	50112000 	.word	0x50112000
20000a80:	50110000 	.word	0x50110000
20000a84:	000003fa 	.word	0x000003fa
20000a88:	10005360 	.word	0x10005360

20000a8c <prepare_ep_buffer>:
20000a8c:	b5f0      	push	{r4, r5, r6, r7, lr}
20000a8e:	46d6      	mov	lr, sl
20000a90:	464f      	mov	r7, r9
20000a92:	4646      	mov	r6, r8
20000a94:	0003      	movs	r3, r0
20000a96:	b5c0      	push	{r6, r7, lr}
20000a98:	8b1c      	ldrh	r4, [r3, #24]
20000a9a:	8a80      	ldrh	r0, [r0, #20]
20000a9c:	468a      	mov	sl, r1
20000a9e:	1c22      	adds	r2, r4, #0
20000aa0:	4284      	cmp	r4, r0
20000aa2:	d900      	bls.n	20000aa6 <prepare_ep_buffer+0x1a>
20000aa4:	1c02      	adds	r2, r0, #0
20000aa6:	2680      	movs	r6, #128	; 0x80
20000aa8:	b292      	uxth	r2, r2
20000aaa:	1a80      	subs	r0, r0, r2
20000aac:	78dd      	ldrb	r5, [r3, #3]
20000aae:	b284      	uxth	r4, r0
20000ab0:	00f6      	lsls	r6, r6, #3
20000ab2:	829c      	strh	r4, [r3, #20]
20000ab4:	4316      	orrs	r6, r2
20000ab6:	2d00      	cmp	r5, #0
20000ab8:	d002      	beq.n	20000ac0 <prepare_ep_buffer+0x34>
20000aba:	2690      	movs	r6, #144	; 0x90
20000abc:	01b6      	lsls	r6, r6, #6
20000abe:	4316      	orrs	r6, r2
20000ac0:	2701      	movs	r7, #1
20000ac2:	407d      	eors	r5, r7
20000ac4:	785f      	ldrb	r7, [r3, #1]
20000ac6:	0030      	movs	r0, r6
20000ac8:	70dd      	strb	r5, [r3, #3]
20000aca:	2f00      	cmp	r7, #0
20000acc:	d14f      	bne.n	20000b6e <prepare_ep_buffer+0xe2>
20000ace:	4651      	mov	r1, sl
20000ad0:	68d8      	ldr	r0, [r3, #12]
20000ad2:	0189      	lsls	r1, r1, #6
20000ad4:	4689      	mov	r9, r1
20000ad6:	4684      	mov	ip, r0
20000ad8:	1e51      	subs	r1, r2, #1
20000ada:	44cc      	add	ip, r9
20000adc:	691d      	ldr	r5, [r3, #16]
20000ade:	4688      	mov	r8, r1
20000ae0:	2a00      	cmp	r2, #0
20000ae2:	d03f      	beq.n	20000b64 <prepare_ep_buffer+0xd8>
20000ae4:	464c      	mov	r4, r9
20000ae6:	0039      	movs	r1, r7
20000ae8:	3404      	adds	r4, #4
20000aea:	1900      	adds	r0, r0, r4
20000aec:	4285      	cmp	r5, r0
20000aee:	4179      	adcs	r1, r7
20000af0:	0008      	movs	r0, r1
20000af2:	4661      	mov	r1, ip
20000af4:	1d2c      	adds	r4, r5, #4
20000af6:	42a1      	cmp	r1, r4
20000af8:	417f      	adcs	r7, r7
20000afa:	4307      	orrs	r7, r0
20000afc:	2009      	movs	r0, #9
20000afe:	4290      	cmp	r0, r2
20000b00:	4180      	sbcs	r0, r0
20000b02:	4240      	negs	r0, r0
20000b04:	4238      	tst	r0, r7
20000b06:	d040      	beq.n	20000b8a <prepare_ep_buffer+0xfe>
20000b08:	4660      	mov	r0, ip
20000b0a:	4328      	orrs	r0, r5
20000b0c:	0781      	lsls	r1, r0, #30
20000b0e:	d13c      	bne.n	20000b8a <prepare_ep_buffer+0xfe>
20000b10:	4641      	mov	r1, r8
20000b12:	2902      	cmp	r1, #2
20000b14:	d915      	bls.n	20000b42 <prepare_ep_buffer+0xb6>
20000b16:	1f17      	subs	r7, r2, #4
20000b18:	08bf      	lsrs	r7, r7, #2
20000b1a:	1c79      	adds	r1, r7, #1
20000b1c:	4689      	mov	r9, r1
20000b1e:	2000      	movs	r0, #0
20000b20:	2400      	movs	r4, #0
20000b22:	4661      	mov	r1, ip
20000b24:	582f      	ldr	r7, [r5, r0]
20000b26:	3401      	adds	r4, #1
20000b28:	500f      	str	r7, [r1, r0]
20000b2a:	3004      	adds	r0, #4
20000b2c:	45a1      	cmp	r9, r4
20000b2e:	d8f8      	bhi.n	20000b22 <prepare_ep_buffer+0x96>
20000b30:	4649      	mov	r1, r9
20000b32:	008f      	lsls	r7, r1, #2
20000b34:	4641      	mov	r1, r8
20000b36:	1bc9      	subs	r1, r1, r7
20000b38:	19ed      	adds	r5, r5, r7
20000b3a:	44bc      	add	ip, r7
20000b3c:	4688      	mov	r8, r1
20000b3e:	42ba      	cmp	r2, r7
20000b40:	d00e      	beq.n	20000b60 <prepare_ep_buffer+0xd4>
20000b42:	4661      	mov	r1, ip
20000b44:	7828      	ldrb	r0, [r5, #0]
20000b46:	7008      	strb	r0, [r1, #0]
20000b48:	4641      	mov	r1, r8
20000b4a:	2900      	cmp	r1, #0
20000b4c:	d008      	beq.n	20000b60 <prepare_ep_buffer+0xd4>
20000b4e:	4661      	mov	r1, ip
20000b50:	7868      	ldrb	r0, [r5, #1]
20000b52:	7048      	strb	r0, [r1, #1]
20000b54:	4641      	mov	r1, r8
20000b56:	2901      	cmp	r1, #1
20000b58:	d002      	beq.n	20000b60 <prepare_ep_buffer+0xd4>
20000b5a:	4661      	mov	r1, ip
20000b5c:	78a8      	ldrb	r0, [r5, #2]
20000b5e:	7088      	strb	r0, [r1, #2]
20000b60:	691d      	ldr	r5, [r3, #16]
20000b62:	8a9c      	ldrh	r4, [r3, #20]
20000b64:	2080      	movs	r0, #128	; 0x80
20000b66:	18aa      	adds	r2, r5, r2
20000b68:	0200      	lsls	r0, r0, #8
20000b6a:	611a      	str	r2, [r3, #16]
20000b6c:	4330      	orrs	r0, r6
20000b6e:	2c00      	cmp	r4, #0
20000b70:	d102      	bne.n	20000b78 <prepare_ep_buffer+0xec>
20000b72:	2380      	movs	r3, #128	; 0x80
20000b74:	01db      	lsls	r3, r3, #7
20000b76:	4318      	orrs	r0, r3
20000b78:	4653      	mov	r3, sl
20000b7a:	2b00      	cmp	r3, #0
20000b7c:	d000      	beq.n	20000b80 <prepare_ep_buffer+0xf4>
20000b7e:	0400      	lsls	r0, r0, #16
20000b80:	bc1c      	pop	{r2, r3, r4}
20000b82:	4690      	mov	r8, r2
20000b84:	4699      	mov	r9, r3
20000b86:	46a2      	mov	sl, r4
20000b88:	bdf0      	pop	{r4, r5, r6, r7, pc}
20000b8a:	2000      	movs	r0, #0
20000b8c:	4661      	mov	r1, ip
20000b8e:	5c2c      	ldrb	r4, [r5, r0]
20000b90:	540c      	strb	r4, [r1, r0]
20000b92:	3001      	adds	r0, #1
20000b94:	4282      	cmp	r2, r0
20000b96:	d1f9      	bne.n	20000b8c <prepare_ep_buffer+0x100>
20000b98:	e7e2      	b.n	20000b60 <prepare_ep_buffer+0xd4>
20000b9a:	46c0      	nop			; (mov r8, r8)

20000b9c <sync_ep_buffer>:
20000b9c:	6883      	ldr	r3, [r0, #8]
20000b9e:	b5f0      	push	{r4, r5, r6, r7, lr}
20000ba0:	0006      	movs	r6, r0
20000ba2:	6818      	ldr	r0, [r3, #0]
20000ba4:	2900      	cmp	r1, #0
20000ba6:	d000      	beq.n	20000baa <sync_ep_buffer+0xe>
20000ba8:	0c00      	lsrs	r0, r0, #16
20000baa:	7873      	ldrb	r3, [r6, #1]
20000bac:	0580      	lsls	r0, r0, #22
20000bae:	0d80      	lsrs	r0, r0, #22
20000bb0:	2b00      	cmp	r3, #0
20000bb2:	d108      	bne.n	20000bc6 <sync_ep_buffer+0x2a>
20000bb4:	8af3      	ldrh	r3, [r6, #22]
20000bb6:	18c3      	adds	r3, r0, r3
20000bb8:	82f3      	strh	r3, [r6, #22]
20000bba:	8b33      	ldrh	r3, [r6, #24]
20000bbc:	4283      	cmp	r3, r0
20000bbe:	d901      	bls.n	20000bc4 <sync_ep_buffer+0x28>
20000bc0:	2300      	movs	r3, #0
20000bc2:	82b3      	strh	r3, [r6, #20]
20000bc4:	bdf0      	pop	{r4, r5, r6, r7, pc}
20000bc6:	68f3      	ldr	r3, [r6, #12]
20000bc8:	0189      	lsls	r1, r1, #6
20000bca:	1e44      	subs	r4, r0, #1
20000bcc:	6932      	ldr	r2, [r6, #16]
20000bce:	185d      	adds	r5, r3, r1
20000bd0:	46a4      	mov	ip, r4
20000bd2:	2800      	cmp	r0, #0
20000bd4:	d037      	beq.n	20000c46 <sync_ep_buffer+0xaa>
20000bd6:	3104      	adds	r1, #4
20000bd8:	1859      	adds	r1, r3, r1
20000bda:	2300      	movs	r3, #0
20000bdc:	001c      	movs	r4, r3
20000bde:	428a      	cmp	r2, r1
20000be0:	415c      	adcs	r4, r3
20000be2:	0021      	movs	r1, r4
20000be4:	1d14      	adds	r4, r2, #4
20000be6:	42a5      	cmp	r5, r4
20000be8:	415b      	adcs	r3, r3
20000bea:	0014      	movs	r4, r2
20000bec:	430b      	orrs	r3, r1
20000bee:	2103      	movs	r1, #3
20000bf0:	432c      	orrs	r4, r5
20000bf2:	4021      	ands	r1, r4
20000bf4:	424c      	negs	r4, r1
20000bf6:	4161      	adcs	r1, r4
20000bf8:	4219      	tst	r1, r3
20000bfa:	d02a      	beq.n	20000c52 <sync_ep_buffer+0xb6>
20000bfc:	2809      	cmp	r0, #9
20000bfe:	d928      	bls.n	20000c52 <sync_ep_buffer+0xb6>
20000c00:	4663      	mov	r3, ip
20000c02:	2b02      	cmp	r3, #2
20000c04:	d912      	bls.n	20000c2c <sync_ep_buffer+0x90>
20000c06:	2300      	movs	r3, #0
20000c08:	2100      	movs	r1, #0
20000c0a:	1f04      	subs	r4, r0, #4
20000c0c:	08a4      	lsrs	r4, r4, #2
20000c0e:	3401      	adds	r4, #1
20000c10:	58ef      	ldr	r7, [r5, r3]
20000c12:	3101      	adds	r1, #1
20000c14:	50d7      	str	r7, [r2, r3]
20000c16:	3304      	adds	r3, #4
20000c18:	428c      	cmp	r4, r1
20000c1a:	d8f9      	bhi.n	20000c10 <sync_ep_buffer+0x74>
20000c1c:	4663      	mov	r3, ip
20000c1e:	00a4      	lsls	r4, r4, #2
20000c20:	1b1b      	subs	r3, r3, r4
20000c22:	192d      	adds	r5, r5, r4
20000c24:	1912      	adds	r2, r2, r4
20000c26:	469c      	mov	ip, r3
20000c28:	42a0      	cmp	r0, r4
20000c2a:	d00b      	beq.n	20000c44 <sync_ep_buffer+0xa8>
20000c2c:	782b      	ldrb	r3, [r5, #0]
20000c2e:	7013      	strb	r3, [r2, #0]
20000c30:	4663      	mov	r3, ip
20000c32:	2b00      	cmp	r3, #0
20000c34:	d006      	beq.n	20000c44 <sync_ep_buffer+0xa8>
20000c36:	786b      	ldrb	r3, [r5, #1]
20000c38:	7053      	strb	r3, [r2, #1]
20000c3a:	4663      	mov	r3, ip
20000c3c:	2b01      	cmp	r3, #1
20000c3e:	d001      	beq.n	20000c44 <sync_ep_buffer+0xa8>
20000c40:	78ab      	ldrb	r3, [r5, #2]
20000c42:	7093      	strb	r3, [r2, #2]
20000c44:	6932      	ldr	r2, [r6, #16]
20000c46:	8af3      	ldrh	r3, [r6, #22]
20000c48:	1812      	adds	r2, r2, r0
20000c4a:	18c3      	adds	r3, r0, r3
20000c4c:	82f3      	strh	r3, [r6, #22]
20000c4e:	6132      	str	r2, [r6, #16]
20000c50:	e7b3      	b.n	20000bba <sync_ep_buffer+0x1e>
20000c52:	2300      	movs	r3, #0
20000c54:	5ce9      	ldrb	r1, [r5, r3]
20000c56:	54d1      	strb	r1, [r2, r3]
20000c58:	3301      	adds	r3, #1
20000c5a:	4298      	cmp	r0, r3
20000c5c:	d1fa      	bne.n	20000c54 <sync_ep_buffer+0xb8>
20000c5e:	6932      	ldr	r2, [r6, #16]
20000c60:	e7f1      	b.n	20000c46 <sync_ep_buffer+0xaa>
20000c62:	46c0      	nop			; (mov r8, r8)

20000c64 <_hw_endpoint_xfer_sync>:
20000c64:	b510      	push	{r4, lr}
20000c66:	0004      	movs	r4, r0
20000c68:	6883      	ldr	r3, [r0, #8]
20000c6a:	2100      	movs	r1, #0
20000c6c:	681b      	ldr	r3, [r3, #0]
20000c6e:	f7ff ff95 	bl	20000b9c <sync_ep_buffer>
20000c72:	6863      	ldr	r3, [r4, #4]
20000c74:	681b      	ldr	r3, [r3, #0]
20000c76:	005b      	lsls	r3, r3, #1
20000c78:	d502      	bpl.n	20000c80 <_hw_endpoint_xfer_sync+0x1c>
20000c7a:	8b23      	ldrh	r3, [r4, #24]
20000c7c:	4283      	cmp	r3, r0
20000c7e:	d000      	beq.n	20000c82 <_hw_endpoint_xfer_sync+0x1e>
20000c80:	bd10      	pop	{r4, pc}
20000c82:	2101      	movs	r1, #1
20000c84:	0020      	movs	r0, r4
20000c86:	f7ff ff89 	bl	20000b9c <sync_ep_buffer>
20000c8a:	e7f9      	b.n	20000c80 <_hw_endpoint_xfer_sync+0x1c>

20000c8c <e15_is_bulkin_ep.isra.0>:
20000c8c:	4b08      	ldr	r3, [pc, #32]	; (20000cb0 <e15_is_bulkin_ep.isra.0+0x24>)
20000c8e:	6c1a      	ldr	r2, [r3, #64]	; 0x40
20000c90:	2300      	movs	r3, #0
20000c92:	0792      	lsls	r2, r2, #30
20000c94:	d403      	bmi.n	20000c9e <e15_is_bulkin_ep.isra.0+0x12>
20000c96:	7802      	ldrb	r2, [r0, #0]
20000c98:	09d2      	lsrs	r2, r2, #7
20000c9a:	2a01      	cmp	r2, #1
20000c9c:	d001      	beq.n	20000ca2 <e15_is_bulkin_ep.isra.0+0x16>
20000c9e:	0018      	movs	r0, r3
20000ca0:	4770      	bx	lr
20000ca2:	780b      	ldrb	r3, [r1, #0]
20000ca4:	3b02      	subs	r3, #2
20000ca6:	4258      	negs	r0, r3
20000ca8:	4143      	adcs	r3, r0
20000caa:	b2db      	uxtb	r3, r3
20000cac:	e7f7      	b.n	20000c9e <e15_is_bulkin_ep.isra.0+0x12>
20000cae:	46c0      	nop			; (mov r8, r8)
20000cb0:	50110000 	.word	0x50110000

20000cb4 <e15_is_critical_frame_period>:
20000cb4:	0001      	movs	r1, r0
20000cb6:	b510      	push	{r4, lr}
20000cb8:	311b      	adds	r1, #27
20000cba:	3002      	adds	r0, #2
20000cbc:	f7ff ffe6 	bl	20000c8c <e15_is_bulkin_ep.isra.0>
20000cc0:	2800      	cmp	r0, #0
20000cc2:	d00c      	beq.n	20000cde <e15_is_critical_frame_period+0x2a>
20000cc4:	4906      	ldr	r1, [pc, #24]	; (20000ce0 <e15_is_critical_frame_period+0x2c>)
20000cc6:	4b07      	ldr	r3, [pc, #28]	; (20000ce4 <e15_is_critical_frame_period+0x30>)
20000cc8:	468c      	mov	ip, r1
20000cca:	4a07      	ldr	r2, [pc, #28]	; (20000ce8 <e15_is_critical_frame_period+0x34>)
20000ccc:	6a9b      	ldr	r3, [r3, #40]	; 0x28
20000cce:	6812      	ldr	r2, [r2, #0]
20000cd0:	4463      	add	r3, ip
20000cd2:	1a9b      	subs	r3, r3, r2
20000cd4:	2000      	movs	r0, #0
20000cd6:	22c6      	movs	r2, #198	; 0xc6
20000cd8:	429a      	cmp	r2, r3
20000cda:	4140      	adcs	r0, r0
20000cdc:	b2c0      	uxtb	r0, r0
20000cde:	bd10      	pop	{r4, pc}
20000ce0:	fffffce0 	.word	0xfffffce0
20000ce4:	40054000 	.word	0x40054000
20000ce8:	200019e8 	.word	0x200019e8

20000cec <hw_endpoint_reset_transfer>:
20000cec:	2300      	movs	r3, #0
20000cee:	7683      	strb	r3, [r0, #26]
20000cf0:	6143      	str	r3, [r0, #20]
20000cf2:	6103      	str	r3, [r0, #16]
20000cf4:	4770      	bx	lr
20000cf6:	46c0      	nop			; (mov r8, r8)

20000cf8 <_hw_endpoint_buffer_control_update32>:
20000cf8:	b510      	push	{r4, lr}
20000cfa:	6883      	ldr	r3, [r0, #8]
20000cfc:	2900      	cmp	r1, #0
20000cfe:	d001      	beq.n	20000d04 <_hw_endpoint_buffer_control_update32+0xc>
20000d00:	681c      	ldr	r4, [r3, #0]
20000d02:	4021      	ands	r1, r4
20000d04:	2a00      	cmp	r2, #0
20000d06:	d012      	beq.n	20000d2e <_hw_endpoint_buffer_control_update32+0x36>
20000d08:	2480      	movs	r4, #128	; 0x80
20000d0a:	00e4      	lsls	r4, r4, #3
20000d0c:	4311      	orrs	r1, r2
20000d0e:	4222      	tst	r2, r4
20000d10:	d00d      	beq.n	20000d2e <_hw_endpoint_buffer_control_update32+0x36>
20000d12:	681a      	ldr	r2, [r3, #0]
20000d14:	4222      	tst	r2, r4
20000d16:	d10c      	bne.n	20000d32 <_hw_endpoint_buffer_control_update32+0x3a>
20000d18:	4a08      	ldr	r2, [pc, #32]	; (20000d3c <_hw_endpoint_buffer_control_update32+0x44>)
20000d1a:	400a      	ands	r2, r1
20000d1c:	601a      	str	r2, [r3, #0]
20000d1e:	4a08      	ldr	r2, [pc, #32]	; (20000d40 <_hw_endpoint_buffer_control_update32+0x48>)
20000d20:	6c12      	ldr	r2, [r2, #64]	; 0x40
20000d22:	0792      	lsls	r2, r2, #30
20000d24:	d403      	bmi.n	20000d2e <_hw_endpoint_buffer_control_update32+0x36>
20000d26:	230c      	movs	r3, #12
20000d28:	3b03      	subs	r3, #3
20000d2a:	d2fd      	bcs.n	20000d28 <_hw_endpoint_buffer_control_update32+0x30>
20000d2c:	6883      	ldr	r3, [r0, #8]
20000d2e:	6019      	str	r1, [r3, #0]
20000d30:	bd10      	pop	{r4, pc}
20000d32:	7881      	ldrb	r1, [r0, #2]
20000d34:	4803      	ldr	r0, [pc, #12]	; (20000d44 <_hw_endpoint_buffer_control_update32+0x4c>)
20000d36:	f000 f96b 	bl	20001010 <__panic_veneer>
20000d3a:	46c0      	nop			; (mov r8, r8)
20000d3c:	fffffbff 	.word	0xfffffbff
20000d40:	50110000 	.word	0x50110000
20000d44:	10005374 	.word	0x10005374

20000d48 <hw_endpoint_start_next_buffer>:
20000d48:	6843      	ldr	r3, [r0, #4]
20000d4a:	b570      	push	{r4, r5, r6, lr}
20000d4c:	2100      	movs	r1, #0
20000d4e:	2580      	movs	r5, #128	; 0x80
20000d50:	681e      	ldr	r6, [r3, #0]
20000d52:	0004      	movs	r4, r0
20000d54:	f7ff fe9a 	bl	20000a8c <prepare_ep_buffer>
20000d58:	4b13      	ldr	r3, [pc, #76]	; (20000da8 <hw_endpoint_start_next_buffer+0x60>)
20000d5a:	016d      	lsls	r5, r5, #5
20000d5c:	6c1b      	ldr	r3, [r3, #64]	; 0x40
20000d5e:	4305      	orrs	r5, r0
20000d60:	079b      	lsls	r3, r3, #30
20000d62:	d50f      	bpl.n	20000d84 <hw_endpoint_start_next_buffer+0x3c>
20000d64:	78a3      	ldrb	r3, [r4, #2]
20000d66:	065b      	lsls	r3, r3, #25
20000d68:	d00f      	beq.n	20000d8a <hw_endpoint_start_next_buffer+0x42>
20000d6a:	4b10      	ldr	r3, [pc, #64]	; (20000dac <hw_endpoint_start_next_buffer+0x64>)
20000d6c:	401e      	ands	r6, r3
20000d6e:	2380      	movs	r3, #128	; 0x80
20000d70:	059b      	lsls	r3, r3, #22
20000d72:	4333      	orrs	r3, r6
20000d74:	6862      	ldr	r2, [r4, #4]
20000d76:	2100      	movs	r1, #0
20000d78:	6013      	str	r3, [r2, #0]
20000d7a:	0020      	movs	r0, r4
20000d7c:	002a      	movs	r2, r5
20000d7e:	f7ff ffbb 	bl	20000cf8 <_hw_endpoint_buffer_control_update32>
20000d82:	bd70      	pop	{r4, r5, r6, pc}
20000d84:	78a3      	ldrb	r3, [r4, #2]
20000d86:	09db      	lsrs	r3, r3, #7
20000d88:	d0ef      	beq.n	20000d6a <hw_endpoint_start_next_buffer+0x22>
20000d8a:	8aa3      	ldrh	r3, [r4, #20]
20000d8c:	2b00      	cmp	r3, #0
20000d8e:	d0ec      	beq.n	20000d6a <hw_endpoint_start_next_buffer+0x22>
20000d90:	2101      	movs	r1, #1
20000d92:	0020      	movs	r0, r4
20000d94:	f7ff fe7a 	bl	20000a8c <prepare_ep_buffer>
20000d98:	4b05      	ldr	r3, [pc, #20]	; (20000db0 <hw_endpoint_start_next_buffer+0x68>)
20000d9a:	4305      	orrs	r5, r0
20000d9c:	401e      	ands	r6, r3
20000d9e:	23a0      	movs	r3, #160	; 0xa0
20000da0:	05db      	lsls	r3, r3, #23
20000da2:	4333      	orrs	r3, r6
20000da4:	e7e6      	b.n	20000d74 <hw_endpoint_start_next_buffer+0x2c>
20000da6:	46c0      	nop			; (mov r8, r8)
20000da8:	50110000 	.word	0x50110000
20000dac:	afffffff 	.word	0xafffffff
20000db0:	dfffffff 	.word	0xdfffffff

20000db4 <hw_endpoint_xfer_continue>:
20000db4:	b570      	push	{r4, r5, r6, lr}
20000db6:	7e85      	ldrb	r5, [r0, #26]
20000db8:	0004      	movs	r4, r0
20000dba:	2d00      	cmp	r5, #0
20000dbc:	d013      	beq.n	20000de6 <hw_endpoint_xfer_continue+0x32>
20000dbe:	f7ff ff51 	bl	20000c64 <_hw_endpoint_xfer_sync>
20000dc2:	8aa3      	ldrh	r3, [r4, #20]
20000dc4:	2b00      	cmp	r3, #0
20000dc6:	d101      	bne.n	20000dcc <hw_endpoint_xfer_continue+0x18>
20000dc8:	0028      	movs	r0, r5
20000dca:	bd70      	pop	{r4, r5, r6, pc}
20000dcc:	0020      	movs	r0, r4
20000dce:	f7ff ff71 	bl	20000cb4 <e15_is_critical_frame_period>
20000dd2:	1e05      	subs	r5, r0, #0
20000dd4:	d003      	beq.n	20000dde <hw_endpoint_xfer_continue+0x2a>
20000dd6:	2301      	movs	r3, #1
20000dd8:	2500      	movs	r5, #0
20000dda:	7723      	strb	r3, [r4, #28]
20000ddc:	e7f4      	b.n	20000dc8 <hw_endpoint_xfer_continue+0x14>
20000dde:	0020      	movs	r0, r4
20000de0:	f7ff ffb2 	bl	20000d48 <hw_endpoint_start_next_buffer>
20000de4:	e7f0      	b.n	20000dc8 <hw_endpoint_xfer_continue+0x14>
20000de6:	7881      	ldrb	r1, [r0, #2]
20000de8:	4801      	ldr	r0, [pc, #4]	; (20000df0 <hw_endpoint_xfer_continue+0x3c>)
20000dea:	f000 f911 	bl	20001010 <__panic_veneer>
20000dee:	46c0      	nop			; (mov r8, r8)
20000df0:	10005394 	.word	0x10005394

20000df4 <dcd_event_handler>:
20000df4:	b5f0      	push	{r4, r5, r6, r7, lr}
20000df6:	46ce      	mov	lr, r9
20000df8:	4647      	mov	r7, r8
20000dfa:	b580      	push	{r7, lr}
20000dfc:	7843      	ldrb	r3, [r0, #1]
20000dfe:	b085      	sub	sp, #20
20000e00:	0005      	movs	r5, r0
20000e02:	000e      	movs	r6, r1
20000e04:	2b06      	cmp	r3, #6
20000e06:	d80b      	bhi.n	20000e20 <dcd_event_handler+0x2c>
20000e08:	4a70      	ldr	r2, [pc, #448]	; (20000fcc <dcd_event_handler+0x1d8>)
20000e0a:	009b      	lsls	r3, r3, #2
20000e0c:	58d3      	ldr	r3, [r2, r3]
20000e0e:	469f      	mov	pc, r3
20000e10:	4b6f      	ldr	r3, [pc, #444]	; (20000fd0 <dcd_event_handler+0x1dc>)
20000e12:	781a      	ldrb	r2, [r3, #0]
20000e14:	07d2      	lsls	r2, r2, #31
20000e16:	d51d      	bpl.n	20000e54 <dcd_event_handler+0x60>
20000e18:	2104      	movs	r1, #4
20000e1a:	781a      	ldrb	r2, [r3, #0]
20000e1c:	430a      	orrs	r2, r1
20000e1e:	701a      	strb	r2, [r3, #0]
20000e20:	4b6c      	ldr	r3, [pc, #432]	; (20000fd4 <dcd_event_handler+0x1e0>)
20000e22:	681c      	ldr	r4, [r3, #0]
20000e24:	6962      	ldr	r2, [r4, #20]
20000e26:	f3ef 8110 	mrs	r1, PRIMASK
20000e2a:	b672      	cpsid	i
20000e2c:	6813      	ldr	r3, [r2, #0]
20000e2e:	2b00      	cmp	r3, #0
20000e30:	d0fc      	beq.n	20000e2c <dcd_event_handler+0x38>
20000e32:	f3bf 8f5f 	dmb	sy
20000e36:	61a1      	str	r1, [r4, #24]
20000e38:	0020      	movs	r0, r4
20000e3a:	0029      	movs	r1, r5
20000e3c:	f000 f8d8 	bl	20000ff0 <__tu_fifo_write_veneer>
20000e40:	6962      	ldr	r2, [r4, #20]
20000e42:	69a3      	ldr	r3, [r4, #24]
20000e44:	f3bf 8f5f 	dmb	sy
20000e48:	2100      	movs	r1, #0
20000e4a:	6011      	str	r1, [r2, #0]
20000e4c:	f383 8810 	msr	PRIMASK, r3
20000e50:	2800      	cmp	r0, #0
20000e52:	d104      	bne.n	20000e5e <dcd_event_handler+0x6a>
20000e54:	b005      	add	sp, #20
20000e56:	bc0c      	pop	{r2, r3}
20000e58:	4690      	mov	r8, r2
20000e5a:	4699      	mov	r9, r3
20000e5c:	bdf0      	pop	{r4, r5, r6, r7, pc}
20000e5e:	7869      	ldrb	r1, [r5, #1]
20000e60:	7828      	ldrb	r0, [r5, #0]
20000e62:	0032      	movs	r2, r6
20000e64:	f000 f8dc 	bl	20001020 <__tud_event_hook_cb_veneer>
20000e68:	e7f4      	b.n	20000e54 <dcd_event_handler+0x60>
20000e6a:	4a5b      	ldr	r2, [pc, #364]	; (20000fd8 <dcd_event_handler+0x1e4>)
20000e6c:	7813      	ldrb	r3, [r2, #0]
20000e6e:	3301      	adds	r3, #1
20000e70:	b2db      	uxtb	r3, r3
20000e72:	7013      	strb	r3, [r2, #0]
20000e74:	e7d4      	b.n	20000e20 <dcd_event_handler+0x2c>
20000e76:	2101      	movs	r1, #1
20000e78:	4b55      	ldr	r3, [pc, #340]	; (20000fd0 <dcd_event_handler+0x1dc>)
20000e7a:	781a      	ldrb	r2, [r3, #0]
20000e7c:	438a      	bics	r2, r1
20000e7e:	701a      	strb	r2, [r3, #0]
20000e80:	781a      	ldrb	r2, [r3, #0]
20000e82:	3101      	adds	r1, #1
20000e84:	438a      	bics	r2, r1
20000e86:	701a      	strb	r2, [r3, #0]
20000e88:	2200      	movs	r2, #0
20000e8a:	705a      	strb	r2, [r3, #1]
20000e8c:	781a      	ldrb	r2, [r3, #0]
20000e8e:	3102      	adds	r1, #2
20000e90:	438a      	bics	r2, r1
20000e92:	701a      	strb	r2, [r3, #0]
20000e94:	e7c4      	b.n	20000e20 <dcd_event_handler+0x2c>
20000e96:	4951      	ldr	r1, [pc, #324]	; (20000fdc <dcd_event_handler+0x1e8>)
20000e98:	4f51      	ldr	r7, [pc, #324]	; (20000fe0 <dcd_event_handler+0x1ec>)
20000e9a:	4689      	mov	r9, r1
20000e9c:	4951      	ldr	r1, [pc, #324]	; (20000fe4 <dcd_event_handler+0x1f0>)
20000e9e:	783a      	ldrb	r2, [r7, #0]
20000ea0:	2400      	movs	r4, #0
20000ea2:	2300      	movs	r3, #0
20000ea4:	4688      	mov	r8, r1
20000ea6:	e00c      	b.n	20000ec2 <dcd_event_handler+0xce>
20000ea8:	4641      	mov	r1, r8
20000eaa:	6809      	ldr	r1, [r1, #0]
20000eac:	0163      	lsls	r3, r4, #5
20000eae:	468c      	mov	ip, r1
20000eb0:	4463      	add	r3, ip
20000eb2:	2b00      	cmp	r3, #0
20000eb4:	d10a      	bne.n	20000ecc <dcd_event_handler+0xd8>
20000eb6:	3401      	adds	r4, #1
20000eb8:	b2e4      	uxtb	r4, r4
20000eba:	1c51      	adds	r1, r2, #1
20000ebc:	0023      	movs	r3, r4
20000ebe:	42a1      	cmp	r1, r4
20000ec0:	db11      	blt.n	20000ee6 <dcd_event_handler+0xf2>
20000ec2:	42a2      	cmp	r2, r4
20000ec4:	d8f0      	bhi.n	20000ea8 <dcd_event_handler+0xb4>
20000ec6:	1a9b      	subs	r3, r3, r2
20000ec8:	015b      	lsls	r3, r3, #5
20000eca:	444b      	add	r3, r9
20000ecc:	69db      	ldr	r3, [r3, #28]
20000ece:	2b00      	cmp	r3, #0
20000ed0:	d0f1      	beq.n	20000eb6 <dcd_event_handler+0xc2>
20000ed2:	6869      	ldr	r1, [r5, #4]
20000ed4:	7828      	ldrb	r0, [r5, #0]
20000ed6:	4798      	blx	r3
20000ed8:	783a      	ldrb	r2, [r7, #0]
20000eda:	3401      	adds	r4, #1
20000edc:	b2e4      	uxtb	r4, r4
20000ede:	1c51      	adds	r1, r2, #1
20000ee0:	0023      	movs	r3, r4
20000ee2:	42a1      	cmp	r1, r4
20000ee4:	daed      	bge.n	20000ec2 <dcd_event_handler+0xce>
20000ee6:	4f3a      	ldr	r7, [pc, #232]	; (20000fd0 <dcd_event_handler+0x1dc>)
20000ee8:	783b      	ldrb	r3, [r7, #0]
20000eea:	075b      	lsls	r3, r3, #29
20000eec:	d52b      	bpl.n	20000f46 <dcd_event_handler+0x152>
20000eee:	2204      	movs	r2, #4
20000ef0:	783b      	ldrb	r3, [r7, #0]
20000ef2:	2100      	movs	r1, #0
20000ef4:	4393      	bics	r3, r2
20000ef6:	703b      	strb	r3, [r7, #0]
20000ef8:	466b      	mov	r3, sp
20000efa:	3206      	adds	r2, #6
20000efc:	1d98      	adds	r0, r3, #6
20000efe:	f000 f8af 	bl	20001060 <____wrap_memset_veneer>
20000f02:	782b      	ldrb	r3, [r5, #0]
20000f04:	ac01      	add	r4, sp, #4
20000f06:	7023      	strb	r3, [r4, #0]
20000f08:	2305      	movs	r3, #5
20000f0a:	7063      	strb	r3, [r4, #1]
20000f0c:	4b31      	ldr	r3, [pc, #196]	; (20000fd4 <dcd_event_handler+0x1e0>)
20000f0e:	681b      	ldr	r3, [r3, #0]
20000f10:	4698      	mov	r8, r3
20000f12:	695a      	ldr	r2, [r3, #20]
20000f14:	f3ef 8110 	mrs	r1, PRIMASK
20000f18:	b672      	cpsid	i
20000f1a:	6813      	ldr	r3, [r2, #0]
20000f1c:	2b00      	cmp	r3, #0
20000f1e:	d0fc      	beq.n	20000f1a <dcd_event_handler+0x126>
20000f20:	f3bf 8f5f 	dmb	sy
20000f24:	4643      	mov	r3, r8
20000f26:	4640      	mov	r0, r8
20000f28:	6199      	str	r1, [r3, #24]
20000f2a:	0021      	movs	r1, r4
20000f2c:	f000 f860 	bl	20000ff0 <__tu_fifo_write_veneer>
20000f30:	4643      	mov	r3, r8
20000f32:	695a      	ldr	r2, [r3, #20]
20000f34:	699b      	ldr	r3, [r3, #24]
20000f36:	f3bf 8f5f 	dmb	sy
20000f3a:	2100      	movs	r1, #0
20000f3c:	6011      	str	r1, [r2, #0]
20000f3e:	f383 8810 	msr	PRIMASK, r3
20000f42:	2800      	cmp	r0, #0
20000f44:	d13b      	bne.n	20000fbe <dcd_event_handler+0x1ca>
20000f46:	78fb      	ldrb	r3, [r7, #3]
20000f48:	07db      	lsls	r3, r3, #31
20000f4a:	d400      	bmi.n	20000f4e <dcd_event_handler+0x15a>
20000f4c:	e782      	b.n	20000e54 <dcd_event_handler+0x60>
20000f4e:	466b      	mov	r3, sp
20000f50:	220a      	movs	r2, #10
20000f52:	2100      	movs	r1, #0
20000f54:	1d98      	adds	r0, r3, #6
20000f56:	f000 f883 	bl	20001060 <____wrap_memset_veneer>
20000f5a:	782b      	ldrb	r3, [r5, #0]
20000f5c:	ac01      	add	r4, sp, #4
20000f5e:	7023      	strb	r3, [r4, #0]
20000f60:	2303      	movs	r3, #3
20000f62:	7063      	strb	r3, [r4, #1]
20000f64:	686b      	ldr	r3, [r5, #4]
20000f66:	6063      	str	r3, [r4, #4]
20000f68:	4b1a      	ldr	r3, [pc, #104]	; (20000fd4 <dcd_event_handler+0x1e0>)
20000f6a:	681d      	ldr	r5, [r3, #0]
20000f6c:	696a      	ldr	r2, [r5, #20]
20000f6e:	f3ef 8110 	mrs	r1, PRIMASK
20000f72:	b672      	cpsid	i
20000f74:	6813      	ldr	r3, [r2, #0]
20000f76:	2b00      	cmp	r3, #0
20000f78:	d0fc      	beq.n	20000f74 <dcd_event_handler+0x180>
20000f7a:	f3bf 8f5f 	dmb	sy
20000f7e:	61a9      	str	r1, [r5, #24]
20000f80:	0028      	movs	r0, r5
20000f82:	0021      	movs	r1, r4
20000f84:	f000 f834 	bl	20000ff0 <__tu_fifo_write_veneer>
20000f88:	696a      	ldr	r2, [r5, #20]
20000f8a:	69ab      	ldr	r3, [r5, #24]
20000f8c:	f3bf 8f5f 	dmb	sy
20000f90:	2100      	movs	r1, #0
20000f92:	6011      	str	r1, [r2, #0]
20000f94:	f383 8810 	msr	PRIMASK, r3
20000f98:	2800      	cmp	r0, #0
20000f9a:	d100      	bne.n	20000f9e <dcd_event_handler+0x1aa>
20000f9c:	e75a      	b.n	20000e54 <dcd_event_handler+0x60>
20000f9e:	7861      	ldrb	r1, [r4, #1]
20000fa0:	7820      	ldrb	r0, [r4, #0]
20000fa2:	0032      	movs	r2, r6
20000fa4:	f000 f83c 	bl	20001020 <__tud_event_hook_cb_veneer>
20000fa8:	e754      	b.n	20000e54 <dcd_event_handler+0x60>
20000faa:	4b09      	ldr	r3, [pc, #36]	; (20000fd0 <dcd_event_handler+0x1dc>)
20000fac:	781a      	ldrb	r2, [r3, #0]
20000fae:	07d2      	lsls	r2, r2, #31
20000fb0:	d400      	bmi.n	20000fb4 <dcd_event_handler+0x1c0>
20000fb2:	e74f      	b.n	20000e54 <dcd_event_handler+0x60>
20000fb4:	2104      	movs	r1, #4
20000fb6:	781a      	ldrb	r2, [r3, #0]
20000fb8:	438a      	bics	r2, r1
20000fba:	701a      	strb	r2, [r3, #0]
20000fbc:	e730      	b.n	20000e20 <dcd_event_handler+0x2c>
20000fbe:	7861      	ldrb	r1, [r4, #1]
20000fc0:	7820      	ldrb	r0, [r4, #0]
20000fc2:	0032      	movs	r2, r6
20000fc4:	f000 f82c 	bl	20001020 <__tud_event_hook_cb_veneer>
20000fc8:	e7bd      	b.n	20000f46 <dcd_event_handler+0x152>
20000fca:	46c0      	nop			; (mov r8, r8)
20000fcc:	10005448 	.word	0x10005448
20000fd0:	2000155c 	.word	0x2000155c
20000fd4:	200015b4 	.word	0x200015b4
20000fd8:	20001e42 	.word	0x20001e42
20000fdc:	10005464 	.word	0x10005464
20000fe0:	20001e40 	.word	0x20001e40
20000fe4:	200013ac 	.word	0x200013ac

20000fe8 <__aeabi_idiv0>:
20000fe8:	4770      	bx	lr
20000fea:	46c0      	nop			; (mov r8, r8)
20000fec:	0000      	movs	r0, r0
	...

20000ff0 <__tu_fifo_write_veneer>:
20000ff0:	b401      	push	{r0}
20000ff2:	4802      	ldr	r0, [pc, #8]	; (20000ffc <__tu_fifo_write_veneer+0xc>)
20000ff4:	4684      	mov	ip, r0
20000ff6:	bc01      	pop	{r0}
20000ff8:	4760      	bx	ip
20000ffa:	bf00      	nop
20000ffc:	10004b69 	.word	0x10004b69

20001000 <__best_effort_wfe_or_timeout_veneer>:
20001000:	b401      	push	{r0}
20001002:	4802      	ldr	r0, [pc, #8]	; (2000100c <__best_effort_wfe_or_timeout_veneer+0xc>)
20001004:	4684      	mov	ip, r0
20001006:	bc01      	pop	{r0}
20001008:	4760      	bx	ip
2000100a:	bf00      	nop
2000100c:	100016c1 	.word	0x100016c1

20001010 <__panic_veneer>:
20001010:	b401      	push	{r0}
20001012:	4802      	ldr	r0, [pc, #8]	; (2000101c <__panic_veneer+0xc>)
20001014:	4684      	mov	ip, r0
20001016:	bc01      	pop	{r0}
20001018:	4760      	bx	ip
2000101a:	bf00      	nop
2000101c:	10000a81 	.word	0x10000a81

20001020 <__tud_event_hook_cb_veneer>:
20001020:	b401      	push	{r0}
20001022:	4802      	ldr	r0, [pc, #8]	; (2000102c <__tud_event_hook_cb_veneer+0xc>)
20001024:	4684      	mov	ip, r0
20001026:	bc01      	pop	{r0}
20001028:	4760      	bx	ip
2000102a:	bf00      	nop
2000102c:	10002fc1 	.word	0x10002fc1

20001030 <__time_us_64_veneer>:
20001030:	b401      	push	{r0}
20001032:	4802      	ldr	r0, [pc, #8]	; (2000103c <__time_us_64_veneer+0xc>)
20001034:	4684      	mov	ip, r0
20001036:	bc01      	pop	{r0}
20001038:	4760      	bx	ip
2000103a:	bf00      	nop
2000103c:	1000184d 	.word	0x1000184d

20001040 <____wrap___aeabi_lmul_veneer>:
20001040:	b401      	push	{r0}
20001042:	4802      	ldr	r0, [pc, #8]	; (2000104c <____wrap___aeabi_lmul_veneer+0xc>)
20001044:	4684      	mov	ip, r0
20001046:	bc01      	pop	{r0}
20001048:	4760      	bx	ip
2000104a:	bf00      	nop
2000104c:	100020f5 	.word	0x100020f5

20001050 <__rp2040_chip_version_veneer>:
20001050:	b401      	push	{r0}
20001052:	4802      	ldr	r0, [pc, #8]	; (2000105c <__rp2040_chip_version_veneer+0xc>)
20001054:	4684      	mov	ip, r0
20001056:	bc01      	pop	{r0}
20001058:	4760      	bx	ip
2000105a:	bf00      	nop
2000105c:	10000a75 	.word	0x10000a75

20001060 <____wrap_memset_veneer>:
20001060:	b401      	push	{r0}
20001062:	4802      	ldr	r0, [pc, #8]	; (2000106c <____wrap_memset_veneer+0xc>)
20001064:	4684      	mov	ip, r0
20001066:	bc01      	pop	{r0}
20001068:	4760      	bx	ip
2000106a:	bf00      	nop
2000106c:	100021cd 	.word	0x100021cd

20001070 <normal_interval_us>:
20001070:	00001388 00000000                       ........

20001078 <sweep_dir>:
20001078:	0000000a                                ....

2000107c <sweep_val>:
2000107c:	                                         ..

2000107e <striped_spin_lock_num>:
2000107e:	                                         ..

20001080 <irq_handler_chain_slots>:
20001080:	00000000 	.word	0x00000000
20001084:	00010000 	.word	0x00010000
	...
20001090:	00020000 	.word	0x00020000
	...
2000109c:	00030000 	.word	0x00030000
	...
200010a8:	00ff0000 	.word	0x00ff0000
200010ac:	00000000 	.word	0x00000000

200010b0 <irq_handler_chain_first_slot>:
200010b0:	b501      	push	{r0, lr}
200010b2:	6848      	ldr	r0, [r1, #4]
200010b4:	3101      	adds	r1, #1
200010b6:	468e      	mov	lr, r1
200010b8:	4700      	bx	r0

200010ba <irq_handler_chain_remove_tail>:
200010ba:	4670      	mov	r0, lr
200010bc:	3809      	subs	r0, #9
200010be:	4901      	ldr	r1, [pc, #4]	; (200010c4 <irq_handler_chain_remove_tail+0xa>)
200010c0:	4788      	blx	r1
200010c2:	bd01      	pop	{r0, pc}
200010c4:	10000e95 	.word	0x10000e95

200010c8 <default_alarm_pool>:
	...
200010dc:	20001208                                ... 

200010e0 <aeabi_bits_funcs>:
200010e0:	00003350 	.word	0x00003350
200010e4:	0000334c 	.word	0x0000334c
200010e8:	00003354 	.word	0x00003354
200010ec:	00003352 	.word	0x00003352

200010f0 <aeabi_bits_funcs_end>:
200010f0:	0000534d 	.word	0x0000534d
200010f4:	0000434d 	.word	0x0000434d
200010f8:	00003453 	.word	0x00003453
200010fc:	00003443 	.word	0x00003443

20001100 <stdio_usb>:
20001100:	10002775 10002729 1000269d 10002615     u'..)'...&...&..
20001110:	00000000 00000100                       ........

20001118 <_usbd_qdef>:
20001118:	20002428 000c0010 00000000 00000000     ($. ............
	...

20001134 <_usbd_rhport>:
20001134:	000000ff                                ....

20001138 <print_mutex>:
	...
